
aes_wasm2c.o:	file format elf32-littleriscv

Disassembly of section .text:

00000000 <quiet_nanf>:
       0: 7fc005b7     	lui	a1, 0x7fc00
       4: 8d4d         	or	a0, a0, a1
       6: 8082         	ret

00000008 <quiet_nan>:
       8: 7ff80637     	lui	a2, 0x7ff80
       c: 8dd1         	or	a1, a1, a2
       e: 8082         	ret

00000010 <wasm_quiet>:
      10: 8082         	ret

00000012 <wasm_quietf>:
      12: 8082         	ret

00000014 <wasm_floor>:
      14: 8082         	ret

00000016 <wasm_floorf>:
      16: 8082         	ret

00000018 <wasm_ceil>:
      18: 8082         	ret

0000001a <wasm_ceilf>:
      1a: 8082         	ret

0000001c <wasm_trunc>:
      1c: 8082         	ret

0000001e <wasm_truncf>:
      1e: 8082         	ret

00000020 <wasm_nearbyintf>:
      20: 8082         	ret

00000022 <wasm_nearbyint>:
      22: 8082         	ret

00000024 <wasm_fabsf>:
      24: 1141         	addi	sp, sp, -0x10
      26: c606         	sw	ra, 0xc(sp)
      28: c422         	sw	s0, 0x8(sp)
      2a: 842a         	mv	s0, a0
      2c: 4581         	li	a1, 0x0
      2e: 00000097     	auipc	ra, 0x0
      32: 000080e7     	jalr	ra <wasm_fabsf+0xa>
      36: 800005b7     	lui	a1, 0x80000
      3a: 8d6d         	and	a0, a0, a1
      3c: 8d21         	xor	a0, a0, s0
      3e: 40b2         	lw	ra, 0xc(sp)
      40: 4422         	lw	s0, 0x8(sp)
      42: 0141         	addi	sp, sp, 0x10
      44: 8082         	ret

00000046 <wasm_fabs>:
      46: 1141         	addi	sp, sp, -0x10
      48: c606         	sw	ra, 0xc(sp)
      4a: c422         	sw	s0, 0x8(sp)
      4c: c226         	sw	s1, 0x4(sp)
      4e: 842e         	mv	s0, a1
      50: 84aa         	mv	s1, a0
      52: 4601         	li	a2, 0x0
      54: 4681         	li	a3, 0x0
      56: 00000097     	auipc	ra, 0x0
      5a: 000080e7     	jalr	ra <wasm_fabs+0x10>
      5e: 800005b7     	lui	a1, 0x80000
      62: 8d6d         	and	a0, a0, a1
      64: 00a445b3     	xor	a1, s0, a0
      68: 8526         	mv	a0, s1
      6a: 40b2         	lw	ra, 0xc(sp)
      6c: 4422         	lw	s0, 0x8(sp)
      6e: 4492         	lw	s1, 0x4(sp)
      70: 0141         	addi	sp, sp, 0x10
      72: 8082         	ret

00000074 <wasm_sqrt>:
      74: 8082         	ret

00000076 <wasm_sqrtf>:
      76: 8082         	ret

00000078 <init_globals>:
      78: 8082         	ret

0000007a <init_memories>:
      7a: 410c         	lw	a1, 0x0(a0)
      7c: 4190         	lw	a2, 0x0(a1)
      7e: 10060593     	addi	a1, a2, 0x100
      82: 000006b7     	lui	a3, 0x0
      86: 00068693     	mv	a3, a3
      8a: 0006c703     	lbu	a4, 0x0(a3)
      8e: 0685         	addi	a3, a3, 0x1
      90: 00160793     	addi	a5, a2, 0x1
      94: 00e60023     	sb	a4, 0x0(a2)
      98: 863e         	mv	a2, a5
      9a: feb798e3     	bne	a5, a1, 0x8a <init_memories+0x10>
      9e: 410c         	lw	a1, 0x0(a0)
      a0: 08d00813     	li	a6, 0x8d
      a4: 4885         	li	a7, 0x1
      a6: 4309         	li	t1, 0x2
      a8: 4791         	li	a5, 0x4
      aa: 42a1         	li	t0, 0x8
      ac: 43c1         	li	t2, 0x10
      ae: 418c         	lw	a1, 0x0(a1)
      b0: 02000613     	li	a2, 0x20
      b4: 04000713     	li	a4, 0x40
      b8: 08000693     	li	a3, 0x80
      bc: 11058023     	sb	a6, 0x100(a1)
      c0: 111580a3     	sb	a7, 0x101(a1)
      c4: 10658123     	sb	t1, 0x102(a1)
      c8: 10f581a3     	sb	a5, 0x103(a1)
      cc: 47ed         	li	a5, 0x1b
      ce: 10558223     	sb	t0, 0x104(a1)
      d2: 107582a3     	sb	t2, 0x105(a1)
      d6: 10c58323     	sb	a2, 0x106(a1)
      da: 10e583a3     	sb	a4, 0x107(a1)
      de: 03600613     	li	a2, 0x36
      e2: 10d58423     	sb	a3, 0x108(a1)
      e6: 10f584a3     	sb	a5, 0x109(a1)
      ea: 10c58523     	sb	a2, 0x10a(a1)
      ee: 4108         	lw	a0, 0x0(a0)
      f0: 4108         	lw	a0, 0x0(a0)
      f2: 11050593     	addi	a1, a0, 0x110
      f6: 21050513     	addi	a0, a0, 0x210
      fa: 00000637     	lui	a2, 0x0
      fe: 00060613     	mv	a2, a2
     102: 00064683     	lbu	a3, 0x0(a2)
     106: 0605         	addi	a2, a2, 0x1
     108: 00158713     	addi	a4, a1, 0x1
     10c: 00d58023     	sb	a3, 0x0(a1)
     110: 85ba         	mv	a1, a4
     112: fea718e3     	bne	a4, a0, 0x102 <init_memories+0x88>
     116: 8082         	ret

00000118 <init_data_instances>:
     118: 8082         	ret

0000011a <init_instance_import>:
     11a: 1141         	addi	sp, sp, -0x10
     11c: c606         	sw	ra, 0xc(sp)
     11e: c422         	sw	s0, 0x8(sp)
     120: c226         	sw	s1, 0x4(sp)
     122: 842e         	mv	s0, a1
     124: 84aa         	mv	s1, a0
     126: 852e         	mv	a0, a1
     128: 00000097     	auipc	ra, 0x0
     12c: 000080e7     	jalr	ra <init_instance_import+0xe>
     130: c088         	sw	a0, 0x0(s1)
     132: 8522         	mv	a0, s0
     134: 00000097     	auipc	ra, 0x0
     138: 000080e7     	jalr	ra <init_instance_import+0x1a>
     13c: c0c8         	sw	a0, 0x4(s1)
     13e: 40b2         	lw	ra, 0xc(sp)
     140: 4422         	lw	s0, 0x8(sp)
     142: 4492         	lw	s1, 0x4(sp)
     144: 0141         	addi	sp, sp, 0x10
     146: 8082         	ret

00000148 <wasm2c_aes_instantiate>:
     148: 1141         	addi	sp, sp, -0x10
     14a: c606         	sw	ra, 0xc(sp)
     14c: c422         	sw	s0, 0x8(sp)
     14e: c226         	sw	s1, 0x4(sp)
     150: 84ae         	mv	s1, a1
     152: 842a         	mv	s0, a0
     154: 852e         	mv	a0, a1
     156: 00000097     	auipc	ra, 0x0
     15a: 000080e7     	jalr	ra <wasm2c_aes_instantiate+0xe>
     15e: c008         	sw	a0, 0x0(s0)
     160: 8526         	mv	a0, s1
     162: 00000097     	auipc	ra, 0x0
     166: 000080e7     	jalr	ra <wasm2c_aes_instantiate+0x1a>
     16a: 400c         	lw	a1, 0x0(s0)
     16c: 418c         	lw	a1, 0x0(a1)
     16e: c048         	sw	a0, 0x4(s0)
     170: 10058513     	addi	a0, a1, 0x100
     174: 00000637     	lui	a2, 0x0
     178: 00060613     	mv	a2, a2
     17c: 00064683     	lbu	a3, 0x0(a2)
     180: 0605         	addi	a2, a2, 0x1
     182: 00158713     	addi	a4, a1, 0x1
     186: 00d58023     	sb	a3, 0x0(a1)
     18a: 85ba         	mv	a1, a4
     18c: fea718e3     	bne	a4, a0, 0x17c <wasm2c_aes_instantiate+0x34>
     190: 4008         	lw	a0, 0x0(s0)
     192: 08d00813     	li	a6, 0x8d
     196: 4885         	li	a7, 0x1
     198: 4289         	li	t0, 0x2
     19a: 4711         	li	a4, 0x4
     19c: 47a1         	li	a5, 0x8
     19e: 44c1         	li	s1, 0x10
     1a0: 4108         	lw	a0, 0x0(a0)
     1a2: 02000593     	li	a1, 0x20
     1a6: 04000613     	li	a2, 0x40
     1aa: 08000693     	li	a3, 0x80
     1ae: 11050023     	sb	a6, 0x100(a0)
     1b2: 111500a3     	sb	a7, 0x101(a0)
     1b6: 10550123     	sb	t0, 0x102(a0)
     1ba: 10e501a3     	sb	a4, 0x103(a0)
     1be: 476d         	li	a4, 0x1b
     1c0: 10f50223     	sb	a5, 0x104(a0)
     1c4: 109502a3     	sb	s1, 0x105(a0)
     1c8: 10b50323     	sb	a1, 0x106(a0)
     1cc: 10c503a3     	sb	a2, 0x107(a0)
     1d0: 03600593     	li	a1, 0x36
     1d4: 10d50423     	sb	a3, 0x108(a0)
     1d8: 10e504a3     	sb	a4, 0x109(a0)
     1dc: 10b50523     	sb	a1, 0x10a(a0)
     1e0: 4008         	lw	a0, 0x0(s0)
     1e2: 4108         	lw	a0, 0x0(a0)
     1e4: 11050593     	addi	a1, a0, 0x110
     1e8: 21050513     	addi	a0, a0, 0x210
     1ec: 00000637     	lui	a2, 0x0
     1f0: 00060613     	mv	a2, a2
     1f4: 00064683     	lbu	a3, 0x0(a2)
     1f8: 0605         	addi	a2, a2, 0x1
     1fa: 00158713     	addi	a4, a1, 0x1
     1fe: 00d58023     	sb	a3, 0x0(a1)
     202: 85ba         	mv	a1, a4
     204: fea718e3     	bne	a4, a0, 0x1f4 <wasm2c_aes_instantiate+0xac>
     208: 40b2         	lw	ra, 0xc(sp)
     20a: 4422         	lw	s0, 0x8(sp)
     20c: 4492         	lw	s1, 0x4(sp)
     20e: 0141         	addi	sp, sp, 0x10
     210: 8082         	ret

00000212 <wasm2c_aes_free>:
     212: 8082         	ret

00000214 <wasm2c_aes_get_func_type>:
     214: 1101         	addi	sp, sp, -0x20
     216: cc42         	sw	a6, 0x18(sp)
     218: ce46         	sw	a7, 0x1c(sp)
     21a: 4809         	li	a6, 0x2
     21c: c432         	sw	a2, 0x8(sp)
     21e: c636         	sw	a3, 0xc(sp)
     220: c83a         	sw	a4, 0x10(sp)
     222: ca3e         	sw	a5, 0x14(sp)
     224: 01051063     	bne	a0, a6, 0x224 <wasm2c_aes_get_func_type+0x10>
     228: e181         	bnez	a1, 0x228 <wasm2c_aes_get_func_type+0x14>
     22a: 0068         	addi	a0, sp, 0xc
     22c: c22a         	sw	a0, 0x4(sp)
     22e: 4522         	lw	a0, 0x8(sp)
     230: e101         	bnez	a0, 0x230 <wasm2c_aes_get_func_type+0x1c>
     232: 0028         	addi	a0, sp, 0x8
     234: 414c         	lw	a1, 0x4(a0)
     236: 0521         	addi	a0, a0, 0x8
     238: c22a         	sw	a0, 0x4(sp)
     23a: e181         	bnez	a1, 0x23a <wasm2c_aes_get_func_type+0x26>
     23c: 00000637     	lui	a2, 0x0
     240: 00060613     	mv	a2, a2
     244: a02d         	j	0x26e <wasm2c_aes_get_func_type+0x5a>
     246: 468d         	li	a3, 0x3
     248: 4601         	li	a2, 0x0
     24a: 02d51263     	bne	a0, a3, 0x26e <wasm2c_aes_get_func_type+0x5a>
     24e: e185         	bnez	a1, 0x26e <wasm2c_aes_get_func_type+0x5a>
     250: 0068         	addi	a0, sp, 0xc
     252: c22a         	sw	a0, 0x4(sp)
     254: 4522         	lw	a0, 0x8(sp)
     256: e919         	bnez	a0, 0x26c <wasm2c_aes_get_func_type+0x58>
     258: 0028         	addi	a0, sp, 0x8
     25a: 414c         	lw	a1, 0x4(a0)
     25c: 00850613     	addi	a2, a0, 0x8
     260: c232         	sw	a2, 0x4(sp)
     262: e589         	bnez	a1, 0x26c <wasm2c_aes_get_func_type+0x58>
     264: 450c         	lw	a1, 0x8(a0)
     266: 0531         	addi	a0, a0, 0xc
     268: c22a         	sw	a0, 0x4(sp)
     26a: c589         	beqz	a1, 0x274 <wasm2c_aes_get_func_type+0x60>
     26c: 4601         	li	a2, 0x0
     26e: 8532         	mv	a0, a2
     270: 6105         	addi	sp, sp, 0x20
     272: 8082         	ret
     274: 00000637     	lui	a2, 0x0
     278: 00060613     	mv	a2, a2
     27c: a001         	j	0x27c <wasm2c_aes_get_func_type+0x68>

0000027e <w2c_aes_AES_init_ctx>:
     27e: 00000317     	auipc	t1, 0x0
     282: 00030067     	jr	t1 <w2c_aes_AES_init_ctx>

00000286 <w2c_aes_KeyExpansion>:
     286: 7139         	addi	sp, sp, -0x40
     288: de06         	sw	ra, 0x3c(sp)
     28a: dc22         	sw	s0, 0x38(sp)
     28c: da26         	sw	s1, 0x34(sp)
     28e: d84a         	sw	s2, 0x30(sp)
     290: d64e         	sw	s3, 0x2c(sp)
     292: d452         	sw	s4, 0x28(sp)
     294: d256         	sw	s5, 0x24(sp)
     296: d05a         	sw	s6, 0x20(sp)
     298: ce5e         	sw	s7, 0x1c(sp)
     29a: cc62         	sw	s8, 0x18(sp)
     29c: ca66         	sw	s9, 0x14(sp)
     29e: c86a         	sw	s10, 0x10(sp)
     2a0: c66e         	sw	s11, 0xc(sp)
     2a2: 8932         	mv	s2, a2
     2a4: 89aa         	mv	s3, a0
     2a6: 4100         	lw	s0, 0x0(a0)
     2a8: 4408         	lw	a0, 0x8(s0)
     2aa: 4450         	lw	a2, 0xc(s0)
     2ac: 00a93533     	sltu	a0, s2, a0
     2b0: 00c03633     	snez	a2, a2
     2b4: 8d51         	or	a0, a0, a2
     2b6: c42e         	sw	a1, 0x8(sp)
     2b8: e101         	bnez	a0, 0x2b8 <w2c_aes_KeyExpansion+0x32>
     2ba: 00000097     	auipc	ra, 0x0
     2be: 000080e7     	jalr	ra <w2c_aes_KeyExpansion+0x34>
     2c2: 4008         	lw	a0, 0x0(s0)
     2c4: 954a         	add	a0, a0, s2
     2c6: 00054403     	lbu	s0, 0x0(a0)
     2ca: 0009a483     	lw	s1, 0x0(s3)
     2ce: 4488         	lw	a0, 0x8(s1)
     2d0: 44cc         	lw	a1, 0xc(s1)
     2d2: 4622         	lw	a2, 0x8(sp)
     2d4: 00a63533     	sltu	a0, a2, a0
     2d8: 00b035b3     	snez	a1, a1
     2dc: 8d4d         	or	a0, a0, a1
     2de: e101         	bnez	a0, 0x2de <w2c_aes_KeyExpansion+0x58>
     2e0: 00000097     	auipc	ra, 0x0
     2e4: 000080e7     	jalr	ra <w2c_aes_KeyExpansion+0x5a>
     2e8: 4088         	lw	a0, 0x0(s1)
     2ea: 45a2         	lw	a1, 0x8(sp)
     2ec: 952e         	add	a0, a0, a1
     2ee: 00850023     	sb	s0, 0x0(a0)
     2f2: 0009a403     	lw	s0, 0x0(s3)
     2f6: 444c         	lw	a1, 0xc(s0)
     2f8: 00290513     	addi	a0, s2, 0x2
     2fc: 01253633     	sltu	a2, a0, s2
     300: 00b60663     	beq	a2, a1, 0x30c <w2c_aes_KeyExpansion+0x86>
     304: 00c5b533     	sltu	a0, a1, a2
     308: e511         	bnez	a0, 0x314 <w2c_aes_KeyExpansion+0x8e>
     30a: a001         	j	0x30a <w2c_aes_KeyExpansion+0x84>
     30c: 440c         	lw	a1, 0x8(s0)
     30e: 00a5b533     	sltu	a0, a1, a0
     312: c101         	beqz	a0, 0x312 <w2c_aes_KeyExpansion+0x8c>
     314: 00000097     	auipc	ra, 0x0
     318: 000080e7     	jalr	ra <w2c_aes_KeyExpansion+0x8e>
     31c: 4008         	lw	a0, 0x0(s0)
     31e: 954a         	add	a0, a0, s2
     320: 00154403     	lbu	s0, 0x1(a0)
     324: 0009a483     	lw	s1, 0x0(s3)
     328: 44cc         	lw	a1, 0xc(s1)
     32a: 4622         	lw	a2, 0x8(sp)
     32c: 00260513     	addi	a0, a2, 0x2
     330: 00c53633     	sltu	a2, a0, a2
     334: 00b60663     	beq	a2, a1, 0x340 <w2c_aes_KeyExpansion+0xba>
     338: 00c5b533     	sltu	a0, a1, a2
     33c: e511         	bnez	a0, 0x348 <w2c_aes_KeyExpansion+0xc2>
     33e: a001         	j	0x33e <w2c_aes_KeyExpansion+0xb8>
     340: 448c         	lw	a1, 0x8(s1)
     342: 00a5b533     	sltu	a0, a1, a0
     346: c101         	beqz	a0, 0x346 <w2c_aes_KeyExpansion+0xc0>
     348: 00000097     	auipc	ra, 0x0
     34c: 000080e7     	jalr	ra <w2c_aes_KeyExpansion+0xc2>
     350: 4088         	lw	a0, 0x0(s1)
     352: 45a2         	lw	a1, 0x8(sp)
     354: 952e         	add	a0, a0, a1
     356: 008500a3     	sb	s0, 0x1(a0)
     35a: 0009a403     	lw	s0, 0x0(s3)
     35e: 444c         	lw	a1, 0xc(s0)
     360: 00390513     	addi	a0, s2, 0x3
     364: 01253633     	sltu	a2, a0, s2
     368: 00b60663     	beq	a2, a1, 0x374 <w2c_aes_KeyExpansion+0xee>
     36c: 00c5b533     	sltu	a0, a1, a2
     370: e511         	bnez	a0, 0x37c <w2c_aes_KeyExpansion+0xf6>
     372: a001         	j	0x372 <w2c_aes_KeyExpansion+0xec>
     374: 440c         	lw	a1, 0x8(s0)
     376: 00a5b533     	sltu	a0, a1, a0
     37a: c101         	beqz	a0, 0x37a <w2c_aes_KeyExpansion+0xf4>
     37c: 00000097     	auipc	ra, 0x0
     380: 000080e7     	jalr	ra <w2c_aes_KeyExpansion+0xf6>
     384: 4008         	lw	a0, 0x0(s0)
     386: 954a         	add	a0, a0, s2
     388: 00254403     	lbu	s0, 0x2(a0)
     38c: 0009a483     	lw	s1, 0x0(s3)
     390: 44cc         	lw	a1, 0xc(s1)
     392: 4622         	lw	a2, 0x8(sp)
     394: 00360513     	addi	a0, a2, 0x3
     398: 00c53633     	sltu	a2, a0, a2
     39c: 00b60663     	beq	a2, a1, 0x3a8 <w2c_aes_KeyExpansion+0x122>
     3a0: 00c5b533     	sltu	a0, a1, a2
     3a4: e511         	bnez	a0, 0x3b0 <w2c_aes_KeyExpansion+0x12a>
     3a6: a001         	j	0x3a6 <w2c_aes_KeyExpansion+0x120>
     3a8: 448c         	lw	a1, 0x8(s1)
     3aa: 00a5b533     	sltu	a0, a1, a0
     3ae: c101         	beqz	a0, 0x3ae <w2c_aes_KeyExpansion+0x128>
     3b0: 00000097     	auipc	ra, 0x0
     3b4: 000080e7     	jalr	ra <w2c_aes_KeyExpansion+0x12a>
     3b8: 4088         	lw	a0, 0x0(s1)
     3ba: 45a2         	lw	a1, 0x8(sp)
     3bc: 952e         	add	a0, a0, a1
     3be: 00850123     	sb	s0, 0x2(a0)
     3c2: 0009a403     	lw	s0, 0x0(s3)
     3c6: 444c         	lw	a1, 0xc(s0)
     3c8: 00490513     	addi	a0, s2, 0x4
     3cc: 01253633     	sltu	a2, a0, s2
     3d0: 00b60663     	beq	a2, a1, 0x3dc <w2c_aes_KeyExpansion+0x156>
     3d4: 00c5b533     	sltu	a0, a1, a2
     3d8: e511         	bnez	a0, 0x3e4 <w2c_aes_KeyExpansion+0x15e>
     3da: a001         	j	0x3da <w2c_aes_KeyExpansion+0x154>
     3dc: 440c         	lw	a1, 0x8(s0)
     3de: 00a5b533     	sltu	a0, a1, a0
     3e2: c101         	beqz	a0, 0x3e2 <w2c_aes_KeyExpansion+0x15c>
     3e4: 00000097     	auipc	ra, 0x0
     3e8: 000080e7     	jalr	ra <w2c_aes_KeyExpansion+0x15e>
     3ec: 4008         	lw	a0, 0x0(s0)
     3ee: 954a         	add	a0, a0, s2
     3f0: 00354403     	lbu	s0, 0x3(a0)
     3f4: 0009a483     	lw	s1, 0x0(s3)
     3f8: 44cc         	lw	a1, 0xc(s1)
     3fa: 4622         	lw	a2, 0x8(sp)
     3fc: 00460513     	addi	a0, a2, 0x4
     400: 00c53633     	sltu	a2, a0, a2
     404: 00b60663     	beq	a2, a1, 0x410 <w2c_aes_KeyExpansion+0x18a>
     408: 00c5b533     	sltu	a0, a1, a2
     40c: e511         	bnez	a0, 0x418 <w2c_aes_KeyExpansion+0x192>
     40e: a001         	j	0x40e <w2c_aes_KeyExpansion+0x188>
     410: 448c         	lw	a1, 0x8(s1)
     412: 00a5b533     	sltu	a0, a1, a0
     416: c101         	beqz	a0, 0x416 <w2c_aes_KeyExpansion+0x190>
     418: 00000097     	auipc	ra, 0x0
     41c: 000080e7     	jalr	ra <w2c_aes_KeyExpansion+0x192>
     420: 4088         	lw	a0, 0x0(s1)
     422: 45a2         	lw	a1, 0x8(sp)
     424: 952e         	add	a0, a0, a1
     426: 008501a3     	sb	s0, 0x3(a0)
     42a: 0009a403     	lw	s0, 0x0(s3)
     42e: 444c         	lw	a1, 0xc(s0)
     430: 00590513     	addi	a0, s2, 0x5
     434: 01253633     	sltu	a2, a0, s2
     438: 00b60663     	beq	a2, a1, 0x444 <w2c_aes_KeyExpansion+0x1be>
     43c: 00c5b533     	sltu	a0, a1, a2
     440: e511         	bnez	a0, 0x44c <w2c_aes_KeyExpansion+0x1c6>
     442: a001         	j	0x442 <w2c_aes_KeyExpansion+0x1bc>
     444: 440c         	lw	a1, 0x8(s0)
     446: 00a5b533     	sltu	a0, a1, a0
     44a: c101         	beqz	a0, 0x44a <w2c_aes_KeyExpansion+0x1c4>
     44c: 00000097     	auipc	ra, 0x0
     450: 000080e7     	jalr	ra <w2c_aes_KeyExpansion+0x1c6>
     454: 4008         	lw	a0, 0x0(s0)
     456: 954a         	add	a0, a0, s2
     458: 00454403     	lbu	s0, 0x4(a0)
     45c: 0009a483     	lw	s1, 0x0(s3)
     460: 44cc         	lw	a1, 0xc(s1)
     462: 4622         	lw	a2, 0x8(sp)
     464: 00560513     	addi	a0, a2, 0x5
     468: 00c53633     	sltu	a2, a0, a2
     46c: 00b60663     	beq	a2, a1, 0x478 <w2c_aes_KeyExpansion+0x1f2>
     470: 00c5b533     	sltu	a0, a1, a2
     474: e511         	bnez	a0, 0x480 <w2c_aes_KeyExpansion+0x1fa>
     476: a001         	j	0x476 <w2c_aes_KeyExpansion+0x1f0>
     478: 448c         	lw	a1, 0x8(s1)
     47a: 00a5b533     	sltu	a0, a1, a0
     47e: c101         	beqz	a0, 0x47e <w2c_aes_KeyExpansion+0x1f8>
     480: 00000097     	auipc	ra, 0x0
     484: 000080e7     	jalr	ra <w2c_aes_KeyExpansion+0x1fa>
     488: 4088         	lw	a0, 0x0(s1)
     48a: 45a2         	lw	a1, 0x8(sp)
     48c: 952e         	add	a0, a0, a1
     48e: 00850223     	sb	s0, 0x4(a0)
     492: 0009a403     	lw	s0, 0x0(s3)
     496: 444c         	lw	a1, 0xc(s0)
     498: 00690513     	addi	a0, s2, 0x6
     49c: 01253633     	sltu	a2, a0, s2
     4a0: 00b60663     	beq	a2, a1, 0x4ac <w2c_aes_KeyExpansion+0x226>
     4a4: 00c5b533     	sltu	a0, a1, a2
     4a8: e511         	bnez	a0, 0x4b4 <w2c_aes_KeyExpansion+0x22e>
     4aa: a001         	j	0x4aa <w2c_aes_KeyExpansion+0x224>
     4ac: 440c         	lw	a1, 0x8(s0)
     4ae: 00a5b533     	sltu	a0, a1, a0
     4b2: c101         	beqz	a0, 0x4b2 <w2c_aes_KeyExpansion+0x22c>
     4b4: 00000097     	auipc	ra, 0x0
     4b8: 000080e7     	jalr	ra <w2c_aes_KeyExpansion+0x22e>
     4bc: 4008         	lw	a0, 0x0(s0)
     4be: 954a         	add	a0, a0, s2
     4c0: 00554403     	lbu	s0, 0x5(a0)
     4c4: 0009a483     	lw	s1, 0x0(s3)
     4c8: 44cc         	lw	a1, 0xc(s1)
     4ca: 4622         	lw	a2, 0x8(sp)
     4cc: 00660513     	addi	a0, a2, 0x6
     4d0: 00c53633     	sltu	a2, a0, a2
     4d4: 00b60663     	beq	a2, a1, 0x4e0 <w2c_aes_KeyExpansion+0x25a>
     4d8: 00c5b533     	sltu	a0, a1, a2
     4dc: e511         	bnez	a0, 0x4e8 <w2c_aes_KeyExpansion+0x262>
     4de: a001         	j	0x4de <w2c_aes_KeyExpansion+0x258>
     4e0: 448c         	lw	a1, 0x8(s1)
     4e2: 00a5b533     	sltu	a0, a1, a0
     4e6: c101         	beqz	a0, 0x4e6 <w2c_aes_KeyExpansion+0x260>
     4e8: 00000097     	auipc	ra, 0x0
     4ec: 000080e7     	jalr	ra <w2c_aes_KeyExpansion+0x262>
     4f0: 4088         	lw	a0, 0x0(s1)
     4f2: 45a2         	lw	a1, 0x8(sp)
     4f4: 952e         	add	a0, a0, a1
     4f6: 008502a3     	sb	s0, 0x5(a0)
     4fa: 0009a403     	lw	s0, 0x0(s3)
     4fe: 444c         	lw	a1, 0xc(s0)
     500: 00790513     	addi	a0, s2, 0x7
     504: 01253633     	sltu	a2, a0, s2
     508: 00b60663     	beq	a2, a1, 0x514 <w2c_aes_KeyExpansion+0x28e>
     50c: 00c5b533     	sltu	a0, a1, a2
     510: e511         	bnez	a0, 0x51c <w2c_aes_KeyExpansion+0x296>
     512: a001         	j	0x512 <w2c_aes_KeyExpansion+0x28c>
     514: 440c         	lw	a1, 0x8(s0)
     516: 00a5b533     	sltu	a0, a1, a0
     51a: c101         	beqz	a0, 0x51a <w2c_aes_KeyExpansion+0x294>
     51c: 00000097     	auipc	ra, 0x0
     520: 000080e7     	jalr	ra <w2c_aes_KeyExpansion+0x296>
     524: 4008         	lw	a0, 0x0(s0)
     526: 954a         	add	a0, a0, s2
     528: 00654403     	lbu	s0, 0x6(a0)
     52c: 0009a483     	lw	s1, 0x0(s3)
     530: 44cc         	lw	a1, 0xc(s1)
     532: 4622         	lw	a2, 0x8(sp)
     534: 00760513     	addi	a0, a2, 0x7
     538: 00c53633     	sltu	a2, a0, a2
     53c: 00b60663     	beq	a2, a1, 0x548 <w2c_aes_KeyExpansion+0x2c2>
     540: 00c5b533     	sltu	a0, a1, a2
     544: e511         	bnez	a0, 0x550 <w2c_aes_KeyExpansion+0x2ca>
     546: a001         	j	0x546 <w2c_aes_KeyExpansion+0x2c0>
     548: 448c         	lw	a1, 0x8(s1)
     54a: 00a5b533     	sltu	a0, a1, a0
     54e: c101         	beqz	a0, 0x54e <w2c_aes_KeyExpansion+0x2c8>
     550: 00000097     	auipc	ra, 0x0
     554: 000080e7     	jalr	ra <w2c_aes_KeyExpansion+0x2ca>
     558: 4088         	lw	a0, 0x0(s1)
     55a: 45a2         	lw	a1, 0x8(sp)
     55c: 952e         	add	a0, a0, a1
     55e: 00850323     	sb	s0, 0x6(a0)
     562: 0009a403     	lw	s0, 0x0(s3)
     566: 444c         	lw	a1, 0xc(s0)
     568: 00890513     	addi	a0, s2, 0x8
     56c: 01253633     	sltu	a2, a0, s2
     570: 00b60663     	beq	a2, a1, 0x57c <w2c_aes_KeyExpansion+0x2f6>
     574: 00c5b533     	sltu	a0, a1, a2
     578: e511         	bnez	a0, 0x584 <w2c_aes_KeyExpansion+0x2fe>
     57a: a001         	j	0x57a <w2c_aes_KeyExpansion+0x2f4>
     57c: 440c         	lw	a1, 0x8(s0)
     57e: 00a5b533     	sltu	a0, a1, a0
     582: c101         	beqz	a0, 0x582 <w2c_aes_KeyExpansion+0x2fc>
     584: 00000097     	auipc	ra, 0x0
     588: 000080e7     	jalr	ra <w2c_aes_KeyExpansion+0x2fe>
     58c: 4008         	lw	a0, 0x0(s0)
     58e: 954a         	add	a0, a0, s2
     590: 00754403     	lbu	s0, 0x7(a0)
     594: 0009a483     	lw	s1, 0x0(s3)
     598: 44cc         	lw	a1, 0xc(s1)
     59a: 4622         	lw	a2, 0x8(sp)
     59c: 00860513     	addi	a0, a2, 0x8
     5a0: 00c53633     	sltu	a2, a0, a2
     5a4: 00b60663     	beq	a2, a1, 0x5b0 <w2c_aes_KeyExpansion+0x32a>
     5a8: 00c5b533     	sltu	a0, a1, a2
     5ac: e511         	bnez	a0, 0x5b8 <w2c_aes_KeyExpansion+0x332>
     5ae: a001         	j	0x5ae <w2c_aes_KeyExpansion+0x328>
     5b0: 448c         	lw	a1, 0x8(s1)
     5b2: 00a5b533     	sltu	a0, a1, a0
     5b6: c101         	beqz	a0, 0x5b6 <w2c_aes_KeyExpansion+0x330>
     5b8: 00000097     	auipc	ra, 0x0
     5bc: 000080e7     	jalr	ra <w2c_aes_KeyExpansion+0x332>
     5c0: 4088         	lw	a0, 0x0(s1)
     5c2: 45a2         	lw	a1, 0x8(sp)
     5c4: 952e         	add	a0, a0, a1
     5c6: 008503a3     	sb	s0, 0x7(a0)
     5ca: 0009a403     	lw	s0, 0x0(s3)
     5ce: 444c         	lw	a1, 0xc(s0)
     5d0: 00990513     	addi	a0, s2, 0x9
     5d4: 01253633     	sltu	a2, a0, s2
     5d8: 00b60663     	beq	a2, a1, 0x5e4 <w2c_aes_KeyExpansion+0x35e>
     5dc: 00c5b533     	sltu	a0, a1, a2
     5e0: e511         	bnez	a0, 0x5ec <w2c_aes_KeyExpansion+0x366>
     5e2: a001         	j	0x5e2 <w2c_aes_KeyExpansion+0x35c>
     5e4: 440c         	lw	a1, 0x8(s0)
     5e6: 00a5b533     	sltu	a0, a1, a0
     5ea: c101         	beqz	a0, 0x5ea <w2c_aes_KeyExpansion+0x364>
     5ec: 00000097     	auipc	ra, 0x0
     5f0: 000080e7     	jalr	ra <w2c_aes_KeyExpansion+0x366>
     5f4: 4008         	lw	a0, 0x0(s0)
     5f6: 954a         	add	a0, a0, s2
     5f8: 00854403     	lbu	s0, 0x8(a0)
     5fc: 0009a483     	lw	s1, 0x0(s3)
     600: 44cc         	lw	a1, 0xc(s1)
     602: 4622         	lw	a2, 0x8(sp)
     604: 00960513     	addi	a0, a2, 0x9
     608: 00c53633     	sltu	a2, a0, a2
     60c: 00b60663     	beq	a2, a1, 0x618 <w2c_aes_KeyExpansion+0x392>
     610: 00c5b533     	sltu	a0, a1, a2
     614: e511         	bnez	a0, 0x620 <w2c_aes_KeyExpansion+0x39a>
     616: a001         	j	0x616 <w2c_aes_KeyExpansion+0x390>
     618: 448c         	lw	a1, 0x8(s1)
     61a: 00a5b533     	sltu	a0, a1, a0
     61e: c101         	beqz	a0, 0x61e <w2c_aes_KeyExpansion+0x398>
     620: 00000097     	auipc	ra, 0x0
     624: 000080e7     	jalr	ra <w2c_aes_KeyExpansion+0x39a>
     628: 4088         	lw	a0, 0x0(s1)
     62a: 45a2         	lw	a1, 0x8(sp)
     62c: 952e         	add	a0, a0, a1
     62e: 00850423     	sb	s0, 0x8(a0)
     632: 0009a403     	lw	s0, 0x0(s3)
     636: 444c         	lw	a1, 0xc(s0)
     638: 00a90513     	addi	a0, s2, 0xa
     63c: 01253633     	sltu	a2, a0, s2
     640: 00b60663     	beq	a2, a1, 0x64c <w2c_aes_KeyExpansion+0x3c6>
     644: 00c5b533     	sltu	a0, a1, a2
     648: e511         	bnez	a0, 0x654 <w2c_aes_KeyExpansion+0x3ce>
     64a: a001         	j	0x64a <w2c_aes_KeyExpansion+0x3c4>
     64c: 440c         	lw	a1, 0x8(s0)
     64e: 00a5b533     	sltu	a0, a1, a0
     652: c101         	beqz	a0, 0x652 <w2c_aes_KeyExpansion+0x3cc>
     654: 00000097     	auipc	ra, 0x0
     658: 000080e7     	jalr	ra <w2c_aes_KeyExpansion+0x3ce>
     65c: 4008         	lw	a0, 0x0(s0)
     65e: 954a         	add	a0, a0, s2
     660: 00954403     	lbu	s0, 0x9(a0)
     664: 0009a483     	lw	s1, 0x0(s3)
     668: 44cc         	lw	a1, 0xc(s1)
     66a: 4622         	lw	a2, 0x8(sp)
     66c: 00a60513     	addi	a0, a2, 0xa
     670: 00c53633     	sltu	a2, a0, a2
     674: 00b60663     	beq	a2, a1, 0x680 <w2c_aes_KeyExpansion+0x3fa>
     678: 00c5b533     	sltu	a0, a1, a2
     67c: e511         	bnez	a0, 0x688 <w2c_aes_KeyExpansion+0x402>
     67e: a001         	j	0x67e <w2c_aes_KeyExpansion+0x3f8>
     680: 448c         	lw	a1, 0x8(s1)
     682: 00a5b533     	sltu	a0, a1, a0
     686: c101         	beqz	a0, 0x686 <w2c_aes_KeyExpansion+0x400>
     688: 00000097     	auipc	ra, 0x0
     68c: 000080e7     	jalr	ra <w2c_aes_KeyExpansion+0x402>
     690: 4088         	lw	a0, 0x0(s1)
     692: 45a2         	lw	a1, 0x8(sp)
     694: 952e         	add	a0, a0, a1
     696: 008504a3     	sb	s0, 0x9(a0)
     69a: 0009a403     	lw	s0, 0x0(s3)
     69e: 444c         	lw	a1, 0xc(s0)
     6a0: 00b90513     	addi	a0, s2, 0xb
     6a4: 01253633     	sltu	a2, a0, s2
     6a8: 00b60663     	beq	a2, a1, 0x6b4 <w2c_aes_KeyExpansion+0x42e>
     6ac: 00c5b533     	sltu	a0, a1, a2
     6b0: e511         	bnez	a0, 0x6bc <w2c_aes_KeyExpansion+0x436>
     6b2: a001         	j	0x6b2 <w2c_aes_KeyExpansion+0x42c>
     6b4: 440c         	lw	a1, 0x8(s0)
     6b6: 00a5b533     	sltu	a0, a1, a0
     6ba: c101         	beqz	a0, 0x6ba <w2c_aes_KeyExpansion+0x434>
     6bc: 00000097     	auipc	ra, 0x0
     6c0: 000080e7     	jalr	ra <w2c_aes_KeyExpansion+0x436>
     6c4: 4008         	lw	a0, 0x0(s0)
     6c6: 954a         	add	a0, a0, s2
     6c8: 00a54403     	lbu	s0, 0xa(a0)
     6cc: 0009a483     	lw	s1, 0x0(s3)
     6d0: 44cc         	lw	a1, 0xc(s1)
     6d2: 4622         	lw	a2, 0x8(sp)
     6d4: 00b60513     	addi	a0, a2, 0xb
     6d8: 00c53633     	sltu	a2, a0, a2
     6dc: 00b60663     	beq	a2, a1, 0x6e8 <w2c_aes_KeyExpansion+0x462>
     6e0: 00c5b533     	sltu	a0, a1, a2
     6e4: e511         	bnez	a0, 0x6f0 <w2c_aes_KeyExpansion+0x46a>
     6e6: a001         	j	0x6e6 <w2c_aes_KeyExpansion+0x460>
     6e8: 448c         	lw	a1, 0x8(s1)
     6ea: 00a5b533     	sltu	a0, a1, a0
     6ee: c101         	beqz	a0, 0x6ee <w2c_aes_KeyExpansion+0x468>
     6f0: 00000097     	auipc	ra, 0x0
     6f4: 000080e7     	jalr	ra <w2c_aes_KeyExpansion+0x46a>
     6f8: 4088         	lw	a0, 0x0(s1)
     6fa: 45a2         	lw	a1, 0x8(sp)
     6fc: 952e         	add	a0, a0, a1
     6fe: 00850523     	sb	s0, 0xa(a0)
     702: 0009a403     	lw	s0, 0x0(s3)
     706: 444c         	lw	a1, 0xc(s0)
     708: 00c90513     	addi	a0, s2, 0xc
     70c: 01253633     	sltu	a2, a0, s2
     710: 00b60663     	beq	a2, a1, 0x71c <w2c_aes_KeyExpansion+0x496>
     714: 00c5b533     	sltu	a0, a1, a2
     718: e511         	bnez	a0, 0x724 <w2c_aes_KeyExpansion+0x49e>
     71a: a001         	j	0x71a <w2c_aes_KeyExpansion+0x494>
     71c: 440c         	lw	a1, 0x8(s0)
     71e: 00a5b533     	sltu	a0, a1, a0
     722: c101         	beqz	a0, 0x722 <w2c_aes_KeyExpansion+0x49c>
     724: 00000097     	auipc	ra, 0x0
     728: 000080e7     	jalr	ra <w2c_aes_KeyExpansion+0x49e>
     72c: 4008         	lw	a0, 0x0(s0)
     72e: 954a         	add	a0, a0, s2
     730: 00b54403     	lbu	s0, 0xb(a0)
     734: 0009a483     	lw	s1, 0x0(s3)
     738: 44cc         	lw	a1, 0xc(s1)
     73a: 4622         	lw	a2, 0x8(sp)
     73c: 00c60513     	addi	a0, a2, 0xc
     740: 00c53633     	sltu	a2, a0, a2
     744: 00b60663     	beq	a2, a1, 0x750 <w2c_aes_KeyExpansion+0x4ca>
     748: 00c5b533     	sltu	a0, a1, a2
     74c: e511         	bnez	a0, 0x758 <w2c_aes_KeyExpansion+0x4d2>
     74e: a001         	j	0x74e <w2c_aes_KeyExpansion+0x4c8>
     750: 448c         	lw	a1, 0x8(s1)
     752: 00a5b533     	sltu	a0, a1, a0
     756: c101         	beqz	a0, 0x756 <w2c_aes_KeyExpansion+0x4d0>
     758: 00000097     	auipc	ra, 0x0
     75c: 000080e7     	jalr	ra <w2c_aes_KeyExpansion+0x4d2>
     760: 4088         	lw	a0, 0x0(s1)
     762: 45a2         	lw	a1, 0x8(sp)
     764: 952e         	add	a0, a0, a1
     766: 008505a3     	sb	s0, 0xb(a0)
     76a: 0009a403     	lw	s0, 0x0(s3)
     76e: 444c         	lw	a1, 0xc(s0)
     770: 00d90513     	addi	a0, s2, 0xd
     774: 01253633     	sltu	a2, a0, s2
     778: 00b60663     	beq	a2, a1, 0x784 <w2c_aes_KeyExpansion+0x4fe>
     77c: 00c5b533     	sltu	a0, a1, a2
     780: e511         	bnez	a0, 0x78c <w2c_aes_KeyExpansion+0x506>
     782: a001         	j	0x782 <w2c_aes_KeyExpansion+0x4fc>
     784: 440c         	lw	a1, 0x8(s0)
     786: 00a5b533     	sltu	a0, a1, a0
     78a: c101         	beqz	a0, 0x78a <w2c_aes_KeyExpansion+0x504>
     78c: 00000097     	auipc	ra, 0x0
     790: 000080e7     	jalr	ra <w2c_aes_KeyExpansion+0x506>
     794: 4008         	lw	a0, 0x0(s0)
     796: 954a         	add	a0, a0, s2
     798: 00c54403     	lbu	s0, 0xc(a0)
     79c: 0009a483     	lw	s1, 0x0(s3)
     7a0: 44cc         	lw	a1, 0xc(s1)
     7a2: 4622         	lw	a2, 0x8(sp)
     7a4: 00d60513     	addi	a0, a2, 0xd
     7a8: 00c53633     	sltu	a2, a0, a2
     7ac: 00b60663     	beq	a2, a1, 0x7b8 <w2c_aes_KeyExpansion+0x532>
     7b0: 00c5b533     	sltu	a0, a1, a2
     7b4: e511         	bnez	a0, 0x7c0 <w2c_aes_KeyExpansion+0x53a>
     7b6: a001         	j	0x7b6 <w2c_aes_KeyExpansion+0x530>
     7b8: 448c         	lw	a1, 0x8(s1)
     7ba: 00a5b533     	sltu	a0, a1, a0
     7be: c101         	beqz	a0, 0x7be <w2c_aes_KeyExpansion+0x538>
     7c0: 00000097     	auipc	ra, 0x0
     7c4: 000080e7     	jalr	ra <w2c_aes_KeyExpansion+0x53a>
     7c8: 4088         	lw	a0, 0x0(s1)
     7ca: 45a2         	lw	a1, 0x8(sp)
     7cc: 952e         	add	a0, a0, a1
     7ce: 00850623     	sb	s0, 0xc(a0)
     7d2: 0009a403     	lw	s0, 0x0(s3)
     7d6: 444c         	lw	a1, 0xc(s0)
     7d8: 00e90513     	addi	a0, s2, 0xe
     7dc: 01253633     	sltu	a2, a0, s2
     7e0: 00b60663     	beq	a2, a1, 0x7ec <w2c_aes_KeyExpansion+0x566>
     7e4: 00c5b533     	sltu	a0, a1, a2
     7e8: e511         	bnez	a0, 0x7f4 <w2c_aes_KeyExpansion+0x56e>
     7ea: a001         	j	0x7ea <w2c_aes_KeyExpansion+0x564>
     7ec: 440c         	lw	a1, 0x8(s0)
     7ee: 00a5b533     	sltu	a0, a1, a0
     7f2: c101         	beqz	a0, 0x7f2 <w2c_aes_KeyExpansion+0x56c>
     7f4: 00000097     	auipc	ra, 0x0
     7f8: 000080e7     	jalr	ra <w2c_aes_KeyExpansion+0x56e>
     7fc: 4008         	lw	a0, 0x0(s0)
     7fe: 954a         	add	a0, a0, s2
     800: 00d54403     	lbu	s0, 0xd(a0)
     804: 0009a483     	lw	s1, 0x0(s3)
     808: 44cc         	lw	a1, 0xc(s1)
     80a: 4622         	lw	a2, 0x8(sp)
     80c: 00e60513     	addi	a0, a2, 0xe
     810: 00c53633     	sltu	a2, a0, a2
     814: 00b60663     	beq	a2, a1, 0x820 <w2c_aes_KeyExpansion+0x59a>
     818: 00c5b533     	sltu	a0, a1, a2
     81c: e511         	bnez	a0, 0x828 <w2c_aes_KeyExpansion+0x5a2>
     81e: a001         	j	0x81e <w2c_aes_KeyExpansion+0x598>
     820: 448c         	lw	a1, 0x8(s1)
     822: 00a5b533     	sltu	a0, a1, a0
     826: c101         	beqz	a0, 0x826 <w2c_aes_KeyExpansion+0x5a0>
     828: 00000097     	auipc	ra, 0x0
     82c: 000080e7     	jalr	ra <w2c_aes_KeyExpansion+0x5a2>
     830: 4088         	lw	a0, 0x0(s1)
     832: 45a2         	lw	a1, 0x8(sp)
     834: 952e         	add	a0, a0, a1
     836: 008506a3     	sb	s0, 0xd(a0)
     83a: 0009a403     	lw	s0, 0x0(s3)
     83e: 444c         	lw	a1, 0xc(s0)
     840: 00f90513     	addi	a0, s2, 0xf
     844: 01253633     	sltu	a2, a0, s2
     848: 00b60663     	beq	a2, a1, 0x854 <w2c_aes_KeyExpansion+0x5ce>
     84c: 00c5b533     	sltu	a0, a1, a2
     850: e511         	bnez	a0, 0x85c <w2c_aes_KeyExpansion+0x5d6>
     852: a001         	j	0x852 <w2c_aes_KeyExpansion+0x5cc>
     854: 440c         	lw	a1, 0x8(s0)
     856: 00a5b533     	sltu	a0, a1, a0
     85a: c101         	beqz	a0, 0x85a <w2c_aes_KeyExpansion+0x5d4>
     85c: 00000097     	auipc	ra, 0x0
     860: 000080e7     	jalr	ra <w2c_aes_KeyExpansion+0x5d6>
     864: 4008         	lw	a0, 0x0(s0)
     866: 954a         	add	a0, a0, s2
     868: 00e54403     	lbu	s0, 0xe(a0)
     86c: 0009a483     	lw	s1, 0x0(s3)
     870: 44cc         	lw	a1, 0xc(s1)
     872: 4622         	lw	a2, 0x8(sp)
     874: 00f60513     	addi	a0, a2, 0xf
     878: 00c53633     	sltu	a2, a0, a2
     87c: 00b60663     	beq	a2, a1, 0x888 <w2c_aes_KeyExpansion+0x602>
     880: 00c5b533     	sltu	a0, a1, a2
     884: e511         	bnez	a0, 0x890 <w2c_aes_KeyExpansion+0x60a>
     886: a001         	j	0x886 <w2c_aes_KeyExpansion+0x600>
     888: 448c         	lw	a1, 0x8(s1)
     88a: 00a5b533     	sltu	a0, a1, a0
     88e: c101         	beqz	a0, 0x88e <w2c_aes_KeyExpansion+0x608>
     890: 00000097     	auipc	ra, 0x0
     894: 000080e7     	jalr	ra <w2c_aes_KeyExpansion+0x60a>
     898: 4088         	lw	a0, 0x0(s1)
     89a: 45a2         	lw	a1, 0x8(sp)
     89c: 952e         	add	a0, a0, a1
     89e: 00850723     	sb	s0, 0xe(a0)
     8a2: 0009a403     	lw	s0, 0x0(s3)
     8a6: 444c         	lw	a1, 0xc(s0)
     8a8: 01090513     	addi	a0, s2, 0x10
     8ac: 01253633     	sltu	a2, a0, s2
     8b0: 00b60663     	beq	a2, a1, 0x8bc <w2c_aes_KeyExpansion+0x636>
     8b4: 00c5b533     	sltu	a0, a1, a2
     8b8: e511         	bnez	a0, 0x8c4 <w2c_aes_KeyExpansion+0x63e>
     8ba: a001         	j	0x8ba <w2c_aes_KeyExpansion+0x634>
     8bc: 440c         	lw	a1, 0x8(s0)
     8be: 00a5b533     	sltu	a0, a1, a0
     8c2: c101         	beqz	a0, 0x8c2 <w2c_aes_KeyExpansion+0x63c>
     8c4: 00000097     	auipc	ra, 0x0
     8c8: 000080e7     	jalr	ra <w2c_aes_KeyExpansion+0x63e>
     8cc: 4008         	lw	a0, 0x0(s0)
     8ce: 954a         	add	a0, a0, s2
     8d0: 00f54903     	lbu	s2, 0xf(a0)
     8d4: 0009a483     	lw	s1, 0x0(s3)
     8d8: 44cc         	lw	a1, 0xc(s1)
     8da: 4622         	lw	a2, 0x8(sp)
     8dc: 01060513     	addi	a0, a2, 0x10
     8e0: 00c53633     	sltu	a2, a0, a2
     8e4: 00b60663     	beq	a2, a1, 0x8f0 <w2c_aes_KeyExpansion+0x66a>
     8e8: 00c5b533     	sltu	a0, a1, a2
     8ec: e511         	bnez	a0, 0x8f8 <w2c_aes_KeyExpansion+0x672>
     8ee: a001         	j	0x8ee <w2c_aes_KeyExpansion+0x668>
     8f0: 448c         	lw	a1, 0x8(s1)
     8f2: 00a5b533     	sltu	a0, a1, a0
     8f6: c101         	beqz	a0, 0x8f6 <w2c_aes_KeyExpansion+0x670>
     8f8: 00000097     	auipc	ra, 0x0
     8fc: 000080e7     	jalr	ra <w2c_aes_KeyExpansion+0x672>
     900: 4a01         	li	s4, 0x0
     902: 4088         	lw	a0, 0x0(s1)
     904: 45a2         	lw	a1, 0x8(sp)
     906: 952e         	add	a0, a0, a1
     908: 012507a3     	sb	s2, 0xf(a0)
     90c: 892e         	mv	s2, a1
     90e: 4a91         	li	s5, 0x4
     910: a839         	j	0x92e <w2c_aes_KeyExpansion+0x6a8>
     912: 4088         	lw	a0, 0x0(s1)
     914: 019445b3     	xor	a1, s0, s9
     918: 01490633     	add	a2, s2, s4
     91c: 0a11         	addi	s4, s4, 0x4
     91e: 9532         	add	a0, a0, a2
     920: 00b509a3     	sb	a1, 0x13(a0)
     924: 0a85         	addi	s5, s5, 0x1
     926: 0a000513     	li	a0, 0xa0
     92a: 00aa0063     	beq	s4, a0, 0x92a <w2c_aes_KeyExpansion+0x6a4>
     92e: 0009a403     	lw	s0, 0x0(s3)
     932: 4408         	lw	a0, 0x8(s0)
     934: 444c         	lw	a1, 0xc(s0)
     936: 01490b33     	add	s6, s2, s4
     93a: 00fb0613     	addi	a2, s6, 0xf
     93e: 00a63533     	sltu	a0, a2, a0
     942: 00b035b3     	snez	a1, a1
     946: 8d4d         	or	a0, a0, a1
     948: e101         	bnez	a0, 0x948 <w2c_aes_KeyExpansion+0x6c2>
     94a: 00000097     	auipc	ra, 0x0
     94e: 000080e7     	jalr	ra <w2c_aes_KeyExpansion+0x6c4>
     952: 4008         	lw	a0, 0x0(s0)
     954: 955a         	add	a0, a0, s6
     956: 00f54c83     	lbu	s9, 0xf(a0)
     95a: 0009a403     	lw	s0, 0x0(s3)
     95e: 4408         	lw	a0, 0x8(s0)
     960: 444c         	lw	a1, 0xc(s0)
     962: 00eb0613     	addi	a2, s6, 0xe
     966: 00a63533     	sltu	a0, a2, a0
     96a: 00b035b3     	snez	a1, a1
     96e: 8d4d         	or	a0, a0, a1
     970: e101         	bnez	a0, 0x970 <w2c_aes_KeyExpansion+0x6ea>
     972: 00000097     	auipc	ra, 0x0
     976: 000080e7     	jalr	ra <w2c_aes_KeyExpansion+0x6ec>
     97a: 4008         	lw	a0, 0x0(s0)
     97c: 955a         	add	a0, a0, s6
     97e: 00e54d03     	lbu	s10, 0xe(a0)
     982: 0009a403     	lw	s0, 0x0(s3)
     986: 4408         	lw	a0, 0x8(s0)
     988: 444c         	lw	a1, 0xc(s0)
     98a: 00db0613     	addi	a2, s6, 0xd
     98e: 00a63533     	sltu	a0, a2, a0
     992: 00b035b3     	snez	a1, a1
     996: 8d4d         	or	a0, a0, a1
     998: e101         	bnez	a0, 0x998 <w2c_aes_KeyExpansion+0x712>
     99a: 00000097     	auipc	ra, 0x0
     99e: 000080e7     	jalr	ra <w2c_aes_KeyExpansion+0x714>
     9a2: 4008         	lw	a0, 0x0(s0)
     9a4: 955a         	add	a0, a0, s6
     9a6: 00d54b83     	lbu	s7, 0xd(a0)
     9aa: 0009a403     	lw	s0, 0x0(s3)
     9ae: 4408         	lw	a0, 0x8(s0)
     9b0: 444c         	lw	a1, 0xc(s0)
     9b2: 00cb0613     	addi	a2, s6, 0xc
     9b6: 00a63533     	sltu	a0, a2, a0
     9ba: 00b035b3     	snez	a1, a1
     9be: 8d4d         	or	a0, a0, a1
     9c0: e101         	bnez	a0, 0x9c0 <w2c_aes_KeyExpansion+0x73a>
     9c2: 00000097     	auipc	ra, 0x0
     9c6: 000080e7     	jalr	ra <w2c_aes_KeyExpansion+0x73c>
     9ca: 4008         	lw	a0, 0x0(s0)
     9cc: 014905b3     	add	a1, s2, s4
     9d0: 952e         	add	a0, a0, a1
     9d2: 00c54d83     	lbu	s11, 0xc(a0)
     9d6: 003af513     	andi	a0, s5, 0x3
     9da: c119         	beqz	a0, 0x9e0 <w2c_aes_KeyExpansion+0x75a>
     9dc: 8c6a         	mv	s8, s10
     9de: a001         	j	0x9de <w2c_aes_KeyExpansion+0x758>
     9e0: 84ce         	mv	s1, s3
     9e2: 0009a903     	lw	s2, 0x0(s3)
     9e6: 00c92503     	lw	a0, 0xc(s2)
     9ea: 002ad993     	srli	s3, s5, 0x2
     9ee: c501         	beqz	a0, 0x9f6 <w2c_aes_KeyExpansion+0x770>
     9f0: 4505         	li	a0, 0x1
     9f2: c919         	beqz	a0, 0xa08 <w2c_aes_KeyExpansion+0x782>
     9f4: a001         	j	0x9f4 <w2c_aes_KeyExpansion+0x76e>
     9f6: 00892503     	lw	a0, 0x8(s2)
     9fa: 10198593     	addi	a1, s3, 0x101
     9fe: 00b53533     	sltu	a0, a0, a1
     a02: 00154513     	xori	a0, a0, 0x1
     a06: e101         	bnez	a0, 0xa06 <w2c_aes_KeyExpansion+0x780>
     a08: 00000097     	auipc	ra, 0x0
     a0c: 000080e7     	jalr	ra <w2c_aes_KeyExpansion+0x782>
     a10: 00092503     	lw	a0, 0x0(s2)
     a14: 954e         	add	a0, a0, s3
     a16: 10054903     	lbu	s2, 0x100(a0)
     a1a: 4080         	lw	s0, 0x0(s1)
     a1c: 4408         	lw	a0, 0x8(s0)
     a1e: 444c         	lw	a1, 0xc(s0)
     a20: 00abb533     	sltu	a0, s7, a0
     a24: 00b035b3     	snez	a1, a1
     a28: 8d4d         	or	a0, a0, a1
     a2a: e101         	bnez	a0, 0xa2a <w2c_aes_KeyExpansion+0x7a4>
     a2c: 00000097     	auipc	ra, 0x0
     a30: 000080e7     	jalr	ra <w2c_aes_KeyExpansion+0x7a6>
     a34: 4008         	lw	a0, 0x0(s0)
     a36: 955e         	add	a0, a0, s7
     a38: 00054983     	lbu	s3, 0x0(a0)
     a3c: 4080         	lw	s0, 0x0(s1)
     a3e: 4408         	lw	a0, 0x8(s0)
     a40: 444c         	lw	a1, 0xc(s0)
     a42: 00adb533     	sltu	a0, s11, a0
     a46: 00b035b3     	snez	a1, a1
     a4a: 8d4d         	or	a0, a0, a1
     a4c: e101         	bnez	a0, 0xa4c <w2c_aes_KeyExpansion+0x7c6>
     a4e: 00000097     	auipc	ra, 0x0
     a52: 000080e7     	jalr	ra <w2c_aes_KeyExpansion+0x7c8>
     a56: 4008         	lw	a0, 0x0(s0)
     a58: 956e         	add	a0, a0, s11
     a5a: 00054503     	lbu	a0, 0x0(a0)
     a5e: c22a         	sw	a0, 0x4(sp)
     a60: 4080         	lw	s0, 0x0(s1)
     a62: 4408         	lw	a0, 0x8(s0)
     a64: 444c         	lw	a1, 0xc(s0)
     a66: 00acb533     	sltu	a0, s9, a0
     a6a: 00b035b3     	snez	a1, a1
     a6e: 8d4d         	or	a0, a0, a1
     a70: e101         	bnez	a0, 0xa70 <w2c_aes_KeyExpansion+0x7ea>
     a72: 00000097     	auipc	ra, 0x0
     a76: 000080e7     	jalr	ra <w2c_aes_KeyExpansion+0x7ec>
     a7a: 4008         	lw	a0, 0x0(s0)
     a7c: 9566         	add	a0, a0, s9
     a7e: 00054c03     	lbu	s8, 0x0(a0)
     a82: 4080         	lw	s0, 0x0(s1)
     a84: 4408         	lw	a0, 0x8(s0)
     a86: 444c         	lw	a1, 0xc(s0)
     a88: 00ad3533     	sltu	a0, s10, a0
     a8c: 00b035b3     	snez	a1, a1
     a90: 8d4d         	or	a0, a0, a1
     a92: e101         	bnez	a0, 0xa92 <w2c_aes_KeyExpansion+0x80c>
     a94: 00000097     	auipc	ra, 0x0
     a98: 000080e7     	jalr	ra <w2c_aes_KeyExpansion+0x80e>
     a9c: 4008         	lw	a0, 0x0(s0)
     a9e: 956a         	add	a0, a0, s10
     aa0: 00054b83     	lbu	s7, 0x0(a0)
     aa4: 0129cdb3     	xor	s11, s3, s2
     aa8: 89a6         	mv	s3, s1
     aaa: 4922         	lw	s2, 0x8(sp)
     aac: 4c92         	lw	s9, 0x4(sp)
     aae: 0009a403     	lw	s0, 0x0(s3)
     ab2: 4408         	lw	a0, 0x8(s0)
     ab4: 444c         	lw	a1, 0xc(s0)
     ab6: 00ab3533     	sltu	a0, s6, a0
     aba: 00b035b3     	snez	a1, a1
     abe: 8d4d         	or	a0, a0, a1
     ac0: e101         	bnez	a0, 0xac0 <w2c_aes_KeyExpansion+0x83a>
     ac2: 00000097     	auipc	ra, 0x0
     ac6: 000080e7     	jalr	ra <w2c_aes_KeyExpansion+0x83c>
     aca: 4008         	lw	a0, 0x0(s0)
     acc: 014905b3     	add	a1, s2, s4
     ad0: 952e         	add	a0, a0, a1
     ad2: 00054403     	lbu	s0, 0x0(a0)
     ad6: 0009a483     	lw	s1, 0x0(s3)
     ada: 4488         	lw	a0, 0x8(s1)
     adc: 44cc         	lw	a1, 0xc(s1)
     ade: 010b0613     	addi	a2, s6, 0x10
     ae2: 00a63533     	sltu	a0, a2, a0
     ae6: 00b035b3     	snez	a1, a1
     aea: 8d4d         	or	a0, a0, a1
     aec: e101         	bnez	a0, 0xaec <w2c_aes_KeyExpansion+0x866>
     aee: 00000097     	auipc	ra, 0x0
     af2: 000080e7     	jalr	ra <w2c_aes_KeyExpansion+0x868>
     af6: 4088         	lw	a0, 0x0(s1)
     af8: 01b445b3     	xor	a1, s0, s11
     afc: 955a         	add	a0, a0, s6
     afe: 00b50823     	sb	a1, 0x10(a0)
     b02: 0009a403     	lw	s0, 0x0(s3)
     b06: 4408         	lw	a0, 0x8(s0)
     b08: 444c         	lw	a1, 0xc(s0)
     b0a: 001b0613     	addi	a2, s6, 0x1
     b0e: 00a63533     	sltu	a0, a2, a0
     b12: 00b035b3     	snez	a1, a1
     b16: 8d4d         	or	a0, a0, a1
     b18: e101         	bnez	a0, 0xb18 <w2c_aes_KeyExpansion+0x892>
     b1a: 00000097     	auipc	ra, 0x0
     b1e: 000080e7     	jalr	ra <w2c_aes_KeyExpansion+0x894>
     b22: 4008         	lw	a0, 0x0(s0)
     b24: 014905b3     	add	a1, s2, s4
     b28: 952e         	add	a0, a0, a1
     b2a: 00154403     	lbu	s0, 0x1(a0)
     b2e: 0009a483     	lw	s1, 0x0(s3)
     b32: 4488         	lw	a0, 0x8(s1)
     b34: 44cc         	lw	a1, 0xc(s1)
     b36: 011b0613     	addi	a2, s6, 0x11
     b3a: 00a63533     	sltu	a0, a2, a0
     b3e: 00b035b3     	snez	a1, a1
     b42: 8d4d         	or	a0, a0, a1
     b44: e101         	bnez	a0, 0xb44 <w2c_aes_KeyExpansion+0x8be>
     b46: 00000097     	auipc	ra, 0x0
     b4a: 000080e7     	jalr	ra <w2c_aes_KeyExpansion+0x8c0>
     b4e: 4088         	lw	a0, 0x0(s1)
     b50: 017445b3     	xor	a1, s0, s7
     b54: 955a         	add	a0, a0, s6
     b56: 00b508a3     	sb	a1, 0x11(a0)
     b5a: 0009a403     	lw	s0, 0x0(s3)
     b5e: 4408         	lw	a0, 0x8(s0)
     b60: 444c         	lw	a1, 0xc(s0)
     b62: 002b0613     	addi	a2, s6, 0x2
     b66: 00a63533     	sltu	a0, a2, a0
     b6a: 00b035b3     	snez	a1, a1
     b6e: 8d4d         	or	a0, a0, a1
     b70: e101         	bnez	a0, 0xb70 <w2c_aes_KeyExpansion+0x8ea>
     b72: 00000097     	auipc	ra, 0x0
     b76: 000080e7     	jalr	ra <w2c_aes_KeyExpansion+0x8ec>
     b7a: 4008         	lw	a0, 0x0(s0)
     b7c: 014905b3     	add	a1, s2, s4
     b80: 952e         	add	a0, a0, a1
     b82: 00254403     	lbu	s0, 0x2(a0)
     b86: 0009a483     	lw	s1, 0x0(s3)
     b8a: 4488         	lw	a0, 0x8(s1)
     b8c: 44cc         	lw	a1, 0xc(s1)
     b8e: 012b0613     	addi	a2, s6, 0x12
     b92: 00a63533     	sltu	a0, a2, a0
     b96: 00b035b3     	snez	a1, a1
     b9a: 8d4d         	or	a0, a0, a1
     b9c: e101         	bnez	a0, 0xb9c <w2c_aes_KeyExpansion+0x916>
     b9e: 00000097     	auipc	ra, 0x0
     ba2: 000080e7     	jalr	ra <w2c_aes_KeyExpansion+0x918>
     ba6: 4088         	lw	a0, 0x0(s1)
     ba8: 018445b3     	xor	a1, s0, s8
     bac: 955a         	add	a0, a0, s6
     bae: 00b50923     	sb	a1, 0x12(a0)
     bb2: 0009a403     	lw	s0, 0x0(s3)
     bb6: 4408         	lw	a0, 0x8(s0)
     bb8: 444c         	lw	a1, 0xc(s0)
     bba: 003b0613     	addi	a2, s6, 0x3
     bbe: 00a63533     	sltu	a0, a2, a0
     bc2: 00b035b3     	snez	a1, a1
     bc6: 8d4d         	or	a0, a0, a1
     bc8: e101         	bnez	a0, 0xbc8 <w2c_aes_KeyExpansion+0x942>
     bca: 00000097     	auipc	ra, 0x0
     bce: 000080e7     	jalr	ra <w2c_aes_KeyExpansion+0x944>
     bd2: 4008         	lw	a0, 0x0(s0)
     bd4: 014905b3     	add	a1, s2, s4
     bd8: 952e         	add	a0, a0, a1
     bda: 00354403     	lbu	s0, 0x3(a0)
     bde: 0009a483     	lw	s1, 0x0(s3)
     be2: 4488         	lw	a0, 0x8(s1)
     be4: 44cc         	lw	a1, 0xc(s1)
     be6: 0b4d         	addi	s6, s6, 0x13
     be8: 00ab3533     	sltu	a0, s6, a0
     bec: 00b035b3     	snez	a1, a1
     bf0: 8d4d         	or	a0, a0, a1
     bf2: 00051063     	bnez	a0, 0xbf2 <w2c_aes_KeyExpansion+0x96c>
     bf6: 00000097     	auipc	ra, 0x0
     bfa: 000080e7     	jalr	ra <w2c_aes_KeyExpansion+0x970>
     bfe: a001         	j	0xbfe <w2c_aes_KeyExpansion+0x978>
     c00: 50f2         	lw	ra, 0x3c(sp)
     c02: 5462         	lw	s0, 0x38(sp)
     c04: 54d2         	lw	s1, 0x34(sp)
     c06: 5942         	lw	s2, 0x30(sp)
     c08: 59b2         	lw	s3, 0x2c(sp)
     c0a: 5a22         	lw	s4, 0x28(sp)
     c0c: 5a92         	lw	s5, 0x24(sp)
     c0e: 5b02         	lw	s6, 0x20(sp)
     c10: 4bf2         	lw	s7, 0x1c(sp)
     c12: 4c62         	lw	s8, 0x18(sp)
     c14: 4cd2         	lw	s9, 0x14(sp)
     c16: 4d42         	lw	s10, 0x10(sp)
     c18: 4db2         	lw	s11, 0xc(sp)
     c1a: 6121         	addi	sp, sp, 0x40
     c1c: 8082         	ret

00000c1e <w2c_aes_AES_init_ctx_iv>:
     c1e: 7179         	addi	sp, sp, -0x30
     c20: d606         	sw	ra, 0x2c(sp)
     c22: d422         	sw	s0, 0x28(sp)
     c24: d226         	sw	s1, 0x24(sp)
     c26: d04a         	sw	s2, 0x20(sp)
     c28: ce4e         	sw	s3, 0x1c(sp)
     c2a: cc52         	sw	s4, 0x18(sp)
     c2c: ca56         	sw	s5, 0x14(sp)
     c2e: c85a         	sw	s6, 0x10(sp)
     c30: c65e         	sw	s7, 0xc(sp)
     c32: 89b6         	mv	s3, a3
     c34: 892e         	mv	s2, a1
     c36: 8a2a         	mv	s4, a0
     c38: 00000097     	auipc	ra, 0x0
     c3c: 000080e7     	jalr	ra <w2c_aes_AES_init_ctx_iv+0x1a>
     c40: 000a2403     	lw	s0, 0x0(s4)
     c44: 4448         	lw	a0, 0xc(s0)
     c46: 00898b13     	addi	s6, s3, 0x8
     c4a: 01098593     	addi	a1, s3, 0x10
     c4e: 0165b633     	sltu	a2, a1, s6
     c52: 00a60863     	beq	a2, a0, 0xc62 <w2c_aes_AES_init_ctx_iv+0x44>
     c56: 00c53533     	sltu	a0, a0, a2
     c5a: 0b890a93     	addi	s5, s2, 0xb8
     c5e: e901         	bnez	a0, 0xc6e <w2c_aes_AES_init_ctx_iv+0x50>
     c60: a001         	j	0xc60 <w2c_aes_AES_init_ctx_iv+0x42>
     c62: 4408         	lw	a0, 0x8(s0)
     c64: 00b53533     	sltu	a0, a0, a1
     c68: 0b890a93     	addi	s5, s2, 0xb8
     c6c: c101         	beqz	a0, 0xc6c <w2c_aes_AES_init_ctx_iv+0x4e>
     c6e: 00000097     	auipc	ra, 0x0
     c72: 000080e7     	jalr	ra <w2c_aes_AES_init_ctx_iv+0x50>
     c76: 4008         	lw	a0, 0x0(s0)
     c78: 955a         	add	a0, a0, s6
     c7a: 00554583     	lbu	a1, 0x5(a0)
     c7e: 00454603     	lbu	a2, 0x4(a0)
     c82: 00654683     	lbu	a3, 0x6(a0)
     c86: 00754703     	lbu	a4, 0x7(a0)
     c8a: 05a2         	slli	a1, a1, 0x8
     c8c: 8dd1         	or	a1, a1, a2
     c8e: 00054603     	lbu	a2, 0x0(a0)
     c92: 00154783     	lbu	a5, 0x1(a0)
     c96: 00254483     	lbu	s1, 0x2(a0)
     c9a: 00354503     	lbu	a0, 0x3(a0)
     c9e: 06c2         	slli	a3, a3, 0x10
     ca0: 0762         	slli	a4, a4, 0x18
     ca2: 8ed9         	or	a3, a3, a4
     ca4: 07a2         	slli	a5, a5, 0x8
     ca6: 04c2         	slli	s1, s1, 0x10
     ca8: 0562         	slli	a0, a0, 0x18
     caa: 8e5d         	or	a2, a2, a5
     cac: 8d45         	or	a0, a0, s1
     cae: 00b6e4b3     	or	s1, a3, a1
     cb2: 00c56433     	or	s0, a0, a2
     cb6: 000a2b83     	lw	s7, 0x0(s4)
     cba: 00cba583     	lw	a1, 0xc(s7)
     cbe: 008a8513     	addi	a0, s5, 0x8
     cc2: 01553633     	sltu	a2, a0, s5
     cc6: 00b60663     	beq	a2, a1, 0xcd2 <w2c_aes_AES_init_ctx_iv+0xb4>
     cca: 00c5b533     	sltu	a0, a1, a2
     cce: e519         	bnez	a0, 0xcdc <w2c_aes_AES_init_ctx_iv+0xbe>
     cd0: a001         	j	0xcd0 <w2c_aes_AES_init_ctx_iv+0xb2>
     cd2: 008ba583     	lw	a1, 0x8(s7)
     cd6: 00a5b533     	sltu	a0, a1, a0
     cda: c101         	beqz	a0, 0xcda <w2c_aes_AES_init_ctx_iv+0xbc>
     cdc: 00000097     	auipc	ra, 0x0
     ce0: 000080e7     	jalr	ra <w2c_aes_AES_init_ctx_iv+0xbe>
     ce4: 000ba503     	lw	a0, 0x0(s7)
     ce8: 0184d593     	srli	a1, s1, 0x18
     cec: 0104d613     	srli	a2, s1, 0x10
     cf0: 0084d693     	srli	a3, s1, 0x8
     cf4: 01845713     	srli	a4, s0, 0x18
     cf8: 01045793     	srli	a5, s0, 0x10
     cfc: 9556         	add	a0, a0, s5
     cfe: 00950223     	sb	s1, 0x4(a0)
     d02: 00d502a3     	sb	a3, 0x5(a0)
     d06: 00c50323     	sb	a2, 0x6(a0)
     d0a: 00b503a3     	sb	a1, 0x7(a0)
     d0e: 00845593     	srli	a1, s0, 0x8
     d12: 00850023     	sb	s0, 0x0(a0)
     d16: 00b500a3     	sb	a1, 0x1(a0)
     d1a: 00f50123     	sb	a5, 0x2(a0)
     d1e: 00e501a3     	sb	a4, 0x3(a0)
     d22: 000a2403     	lw	s0, 0x0(s4)
     d26: 4448         	lw	a0, 0xc(s0)
     d28: 013b35b3     	sltu	a1, s6, s3
     d2c: 00a58663     	beq	a1, a0, 0xd38 <w2c_aes_AES_init_ctx_iv+0x11a>
     d30: 00b53533     	sltu	a0, a0, a1
     d34: e511         	bnez	a0, 0xd40 <w2c_aes_AES_init_ctx_iv+0x122>
     d36: a001         	j	0xd36 <w2c_aes_AES_init_ctx_iv+0x118>
     d38: 4408         	lw	a0, 0x8(s0)
     d3a: 01653533     	sltu	a0, a0, s6
     d3e: c101         	beqz	a0, 0xd3e <w2c_aes_AES_init_ctx_iv+0x120>
     d40: 00000097     	auipc	ra, 0x0
     d44: 000080e7     	jalr	ra <w2c_aes_AES_init_ctx_iv+0x122>
     d48: 4008         	lw	a0, 0x0(s0)
     d4a: 954e         	add	a0, a0, s3
     d4c: 00554583     	lbu	a1, 0x5(a0)
     d50: 00654603     	lbu	a2, 0x6(a0)
     d54: 00754683     	lbu	a3, 0x7(a0)
     d58: 00454703     	lbu	a4, 0x4(a0)
     d5c: 05a2         	slli	a1, a1, 0x8
     d5e: 0642         	slli	a2, a2, 0x10
     d60: 06e2         	slli	a3, a3, 0x18
     d62: 8dd9         	or	a1, a1, a4
     d64: 8e55         	or	a2, a2, a3
     d66: 00154683     	lbu	a3, 0x1(a0)
     d6a: 00054703     	lbu	a4, 0x0(a0)
     d6e: 00254783     	lbu	a5, 0x2(a0)
     d72: 00354503     	lbu	a0, 0x3(a0)
     d76: 06a2         	slli	a3, a3, 0x8
     d78: 8ed9         	or	a3, a3, a4
     d7a: 07c2         	slli	a5, a5, 0x10
     d7c: 0562         	slli	a0, a0, 0x18
     d7e: 8d5d         	or	a0, a0, a5
     d80: 00b664b3     	or	s1, a2, a1
     d84: 00d56433     	or	s0, a0, a3
     d88: 000a2983     	lw	s3, 0x0(s4)
     d8c: 00c9a503     	lw	a0, 0xc(s3)
     d90: 012ab5b3     	sltu	a1, s5, s2
     d94: 00a58663     	beq	a1, a0, 0xda0 <w2c_aes_AES_init_ctx_iv+0x182>
     d98: 00b53533     	sltu	a0, a0, a1
     d9c: e519         	bnez	a0, 0xdaa <w2c_aes_AES_init_ctx_iv+0x18c>
     d9e: a001         	j	0xd9e <w2c_aes_AES_init_ctx_iv+0x180>
     da0: 0089a503     	lw	a0, 0x8(s3)
     da4: 01553533     	sltu	a0, a0, s5
     da8: c101         	beqz	a0, 0xda8 <w2c_aes_AES_init_ctx_iv+0x18a>
     daa: 00000097     	auipc	ra, 0x0
     dae: 000080e7     	jalr	ra <w2c_aes_AES_init_ctx_iv+0x18c>
     db2: 0009a503     	lw	a0, 0x0(s3)
     db6: 0184d593     	srli	a1, s1, 0x18
     dba: 0104d613     	srli	a2, s1, 0x10
     dbe: 0084d693     	srli	a3, s1, 0x8
     dc2: 01845713     	srli	a4, s0, 0x18
     dc6: 954a         	add	a0, a0, s2
     dc8: 01045793     	srli	a5, s0, 0x10
     dcc: 0a950a23     	sb	s1, 0xb4(a0)
     dd0: 0ad50aa3     	sb	a3, 0xb5(a0)
     dd4: 0ac50b23     	sb	a2, 0xb6(a0)
     dd8: 0ab50ba3     	sb	a1, 0xb7(a0)
     ddc: 00845593     	srli	a1, s0, 0x8
     de0: 0a850823     	sb	s0, 0xb0(a0)
     de4: 0ab508a3     	sb	a1, 0xb1(a0)
     de8: 0af50923     	sb	a5, 0xb2(a0)
     dec: 0ae509a3     	sb	a4, 0xb3(a0)
     df0: 50b2         	lw	ra, 0x2c(sp)
     df2: 5422         	lw	s0, 0x28(sp)
     df4: 5492         	lw	s1, 0x24(sp)
     df6: 5902         	lw	s2, 0x20(sp)
     df8: 49f2         	lw	s3, 0x1c(sp)
     dfa: 4a62         	lw	s4, 0x18(sp)
     dfc: 4ad2         	lw	s5, 0x14(sp)
     dfe: 4b42         	lw	s6, 0x10(sp)
     e00: 4bb2         	lw	s7, 0xc(sp)
     e02: 6145         	addi	sp, sp, 0x30
     e04: 8082         	ret

00000e06 <w2c_aes_AES_ctx_set_iv>:
     e06: 7179         	addi	sp, sp, -0x30
     e08: d606         	sw	ra, 0x2c(sp)
     e0a: d422         	sw	s0, 0x28(sp)
     e0c: d226         	sw	s1, 0x24(sp)
     e0e: d04a         	sw	s2, 0x20(sp)
     e10: ce4e         	sw	s3, 0x1c(sp)
     e12: cc52         	sw	s4, 0x18(sp)
     e14: ca56         	sw	s5, 0x14(sp)
     e16: c85a         	sw	s6, 0x10(sp)
     e18: c65e         	sw	s7, 0xc(sp)
     e1a: 892a         	mv	s2, a0
     e1c: 4100         	lw	s0, 0x0(a0)
     e1e: 4448         	lw	a0, 0xc(s0)
     e20: 8b32         	mv	s6, a2
     e22: 00860a13     	addi	s4, a2, 0x8
     e26: 00ca3633     	sltu	a2, s4, a2
     e2a: 8aae         	mv	s5, a1
     e2c: 00a60663     	beq	a2, a0, 0xe38 <w2c_aes_AES_ctx_set_iv+0x32>
     e30: 00c53533     	sltu	a0, a0, a2
     e34: e511         	bnez	a0, 0xe40 <w2c_aes_AES_ctx_set_iv+0x3a>
     e36: a001         	j	0xe36 <w2c_aes_AES_ctx_set_iv+0x30>
     e38: 4408         	lw	a0, 0x8(s0)
     e3a: 01453533     	sltu	a0, a0, s4
     e3e: c101         	beqz	a0, 0xe3e <w2c_aes_AES_ctx_set_iv+0x38>
     e40: 00000097     	auipc	ra, 0x0
     e44: 000080e7     	jalr	ra <w2c_aes_AES_ctx_set_iv+0x3a>
     e48: 4008         	lw	a0, 0x0(s0)
     e4a: 955a         	add	a0, a0, s6
     e4c: 00554583     	lbu	a1, 0x5(a0)
     e50: 00454603     	lbu	a2, 0x4(a0)
     e54: 00654683     	lbu	a3, 0x6(a0)
     e58: 00754703     	lbu	a4, 0x7(a0)
     e5c: 05a2         	slli	a1, a1, 0x8
     e5e: 8dd1         	or	a1, a1, a2
     e60: 00054603     	lbu	a2, 0x0(a0)
     e64: 00154783     	lbu	a5, 0x1(a0)
     e68: 00254483     	lbu	s1, 0x2(a0)
     e6c: 00354503     	lbu	a0, 0x3(a0)
     e70: 06c2         	slli	a3, a3, 0x10
     e72: 0762         	slli	a4, a4, 0x18
     e74: 8ed9         	or	a3, a3, a4
     e76: 07a2         	slli	a5, a5, 0x8
     e78: 04c2         	slli	s1, s1, 0x10
     e7a: 0562         	slli	a0, a0, 0x18
     e7c: 8e5d         	or	a2, a2, a5
     e7e: 8d45         	or	a0, a0, s1
     e80: 00b6e4b3     	or	s1, a3, a1
     e84: 00c56433     	or	s0, a0, a2
     e88: 00092b83     	lw	s7, 0x0(s2)
     e8c: 00cba503     	lw	a0, 0xc(s7)
     e90: 0b8a8993     	addi	s3, s5, 0xb8
     e94: 0159b5b3     	sltu	a1, s3, s5
     e98: 00a58663     	beq	a1, a0, 0xea4 <w2c_aes_AES_ctx_set_iv+0x9e>
     e9c: 00b53533     	sltu	a0, a0, a1
     ea0: e519         	bnez	a0, 0xeae <w2c_aes_AES_ctx_set_iv+0xa8>
     ea2: a001         	j	0xea2 <w2c_aes_AES_ctx_set_iv+0x9c>
     ea4: 008ba503     	lw	a0, 0x8(s7)
     ea8: 01353533     	sltu	a0, a0, s3
     eac: c101         	beqz	a0, 0xeac <w2c_aes_AES_ctx_set_iv+0xa6>
     eae: 00000097     	auipc	ra, 0x0
     eb2: 000080e7     	jalr	ra <w2c_aes_AES_ctx_set_iv+0xa8>
     eb6: 000ba503     	lw	a0, 0x0(s7)
     eba: 0184d593     	srli	a1, s1, 0x18
     ebe: 0104d613     	srli	a2, s1, 0x10
     ec2: 0084d693     	srli	a3, s1, 0x8
     ec6: 01845713     	srli	a4, s0, 0x18
     eca: 9556         	add	a0, a0, s5
     ecc: 01045793     	srli	a5, s0, 0x10
     ed0: 0a950a23     	sb	s1, 0xb4(a0)
     ed4: 0ad50aa3     	sb	a3, 0xb5(a0)
     ed8: 0ac50b23     	sb	a2, 0xb6(a0)
     edc: 0ab50ba3     	sb	a1, 0xb7(a0)
     ee0: 00845593     	srli	a1, s0, 0x8
     ee4: 0a850823     	sb	s0, 0xb0(a0)
     ee8: 0ab508a3     	sb	a1, 0xb1(a0)
     eec: 0af50923     	sb	a5, 0xb2(a0)
     ef0: 0ae509a3     	sb	a4, 0xb3(a0)
     ef4: 00092403     	lw	s0, 0x0(s2)
     ef8: 4448         	lw	a0, 0xc(s0)
     efa: 0b41         	addi	s6, s6, 0x10
     efc: 014b35b3     	sltu	a1, s6, s4
     f00: 00a58663     	beq	a1, a0, 0xf0c <w2c_aes_AES_ctx_set_iv+0x106>
     f04: 00b53533     	sltu	a0, a0, a1
     f08: e511         	bnez	a0, 0xf14 <w2c_aes_AES_ctx_set_iv+0x10e>
     f0a: a001         	j	0xf0a <w2c_aes_AES_ctx_set_iv+0x104>
     f0c: 4408         	lw	a0, 0x8(s0)
     f0e: 01653533     	sltu	a0, a0, s6
     f12: c101         	beqz	a0, 0xf12 <w2c_aes_AES_ctx_set_iv+0x10c>
     f14: 00000097     	auipc	ra, 0x0
     f18: 000080e7     	jalr	ra <w2c_aes_AES_ctx_set_iv+0x10e>
     f1c: 4008         	lw	a0, 0x0(s0)
     f1e: 9552         	add	a0, a0, s4
     f20: 00554583     	lbu	a1, 0x5(a0)
     f24: 00654603     	lbu	a2, 0x6(a0)
     f28: 00754683     	lbu	a3, 0x7(a0)
     f2c: 00454703     	lbu	a4, 0x4(a0)
     f30: 05a2         	slli	a1, a1, 0x8
     f32: 0642         	slli	a2, a2, 0x10
     f34: 06e2         	slli	a3, a3, 0x18
     f36: 8dd9         	or	a1, a1, a4
     f38: 8e55         	or	a2, a2, a3
     f3a: 00154683     	lbu	a3, 0x1(a0)
     f3e: 00054703     	lbu	a4, 0x0(a0)
     f42: 00254783     	lbu	a5, 0x2(a0)
     f46: 00354503     	lbu	a0, 0x3(a0)
     f4a: 06a2         	slli	a3, a3, 0x8
     f4c: 8ed9         	or	a3, a3, a4
     f4e: 07c2         	slli	a5, a5, 0x10
     f50: 0562         	slli	a0, a0, 0x18
     f52: 8d5d         	or	a0, a0, a5
     f54: 00b664b3     	or	s1, a2, a1
     f58: 00d56433     	or	s0, a0, a3
     f5c: 00092903     	lw	s2, 0x0(s2)
     f60: 00c92583     	lw	a1, 0xc(s2)
     f64: 00898513     	addi	a0, s3, 0x8
     f68: 01353633     	sltu	a2, a0, s3
     f6c: 00b60663     	beq	a2, a1, 0xf78 <w2c_aes_AES_ctx_set_iv+0x172>
     f70: 00c5b533     	sltu	a0, a1, a2
     f74: e519         	bnez	a0, 0xf82 <w2c_aes_AES_ctx_set_iv+0x17c>
     f76: a001         	j	0xf76 <w2c_aes_AES_ctx_set_iv+0x170>
     f78: 00892583     	lw	a1, 0x8(s2)
     f7c: 00a5b533     	sltu	a0, a1, a0
     f80: c101         	beqz	a0, 0xf80 <w2c_aes_AES_ctx_set_iv+0x17a>
     f82: 00000097     	auipc	ra, 0x0
     f86: 000080e7     	jalr	ra <w2c_aes_AES_ctx_set_iv+0x17c>
     f8a: 00092503     	lw	a0, 0x0(s2)
     f8e: 0184d593     	srli	a1, s1, 0x18
     f92: 0104d613     	srli	a2, s1, 0x10
     f96: 0084d693     	srli	a3, s1, 0x8
     f9a: 01845713     	srli	a4, s0, 0x18
     f9e: 954e         	add	a0, a0, s3
     fa0: 01045793     	srli	a5, s0, 0x10
     fa4: 00950223     	sb	s1, 0x4(a0)
     fa8: 00d502a3     	sb	a3, 0x5(a0)
     fac: 00c50323     	sb	a2, 0x6(a0)
     fb0: 00b503a3     	sb	a1, 0x7(a0)
     fb4: 00845593     	srli	a1, s0, 0x8
     fb8: 00850023     	sb	s0, 0x0(a0)
     fbc: 00b500a3     	sb	a1, 0x1(a0)
     fc0: 00f50123     	sb	a5, 0x2(a0)
     fc4: 00e501a3     	sb	a4, 0x3(a0)
     fc8: 50b2         	lw	ra, 0x2c(sp)
     fca: 5422         	lw	s0, 0x28(sp)
     fcc: 5492         	lw	s1, 0x24(sp)
     fce: 5902         	lw	s2, 0x20(sp)
     fd0: 49f2         	lw	s3, 0x1c(sp)
     fd2: 4a62         	lw	s4, 0x18(sp)
     fd4: 4ad2         	lw	s5, 0x14(sp)
     fd6: 4b42         	lw	s6, 0x10(sp)
     fd8: 4bb2         	lw	s7, 0xc(sp)
     fda: 6145         	addi	sp, sp, 0x30
     fdc: 8082         	ret

00000fde <w2c_aes_AES_ECB_encrypt>:
     fde: 86ae         	mv	a3, a1
     fe0: 85b2         	mv	a1, a2
     fe2: 8636         	mv	a2, a3
     fe4: 00000317     	auipc	t1, 0x0
     fe8: 00030067     	jr	t1 <w2c_aes_AES_ECB_encrypt+0x6>

00000fec <w2c_aes_Cipher>:
     fec: 7111         	addi	sp, sp, -0x100
     fee: df86         	sw	ra, 0xfc(sp)
     ff0: dda2         	sw	s0, 0xf8(sp)
     ff2: dba6         	sw	s1, 0xf4(sp)
     ff4: d9ca         	sw	s2, 0xf0(sp)
     ff6: d7ce         	sw	s3, 0xec(sp)
     ff8: d5d2         	sw	s4, 0xe8(sp)
     ffa: d3d6         	sw	s5, 0xe4(sp)
     ffc: d1da         	sw	s6, 0xe0(sp)
     ffe: cfde         	sw	s7, 0xdc(sp)
    1000: cde2         	sw	s8, 0xd8(sp)
    1002: cbe6         	sw	s9, 0xd4(sp)
    1004: c9ea         	sw	s10, 0xd0(sp)
    1006: c7ee         	sw	s11, 0xcc(sp)
    1008: 8dae         	mv	s11, a1
    100a: 8aaa         	mv	s5, a0
    100c: 4100         	lw	s0, 0x0(a0)
    100e: 4408         	lw	a0, 0x8(s0)
    1010: 444c         	lw	a1, 0xc(s0)
    1012: 00adb533     	sltu	a0, s11, a0
    1016: 00b035b3     	snez	a1, a1
    101a: 8d4d         	or	a0, a0, a1
    101c: d2b2         	sw	a2, 0x64(sp)
    101e: e101         	bnez	a0, 0x101e <w2c_aes_Cipher+0x32>
    1020: 00000097     	auipc	ra, 0x0
    1024: 000080e7     	jalr	ra <w2c_aes_Cipher+0x34>
    1028: 4008         	lw	a0, 0x0(s0)
    102a: 956e         	add	a0, a0, s11
    102c: 00054403     	lbu	s0, 0x0(a0)
    1030: 000aa483     	lw	s1, 0x0(s5)
    1034: 4488         	lw	a0, 0x8(s1)
    1036: 44cc         	lw	a1, 0xc(s1)
    1038: 5616         	lw	a2, 0x64(sp)
    103a: 00a63533     	sltu	a0, a2, a0
    103e: 00b035b3     	snez	a1, a1
    1042: 8d4d         	or	a0, a0, a1
    1044: e101         	bnez	a0, 0x1044 <w2c_aes_Cipher+0x58>
    1046: 00000097     	auipc	ra, 0x0
    104a: 000080e7     	jalr	ra <w2c_aes_Cipher+0x5a>
    104e: 4088         	lw	a0, 0x0(s1)
    1050: 5596         	lw	a1, 0x64(sp)
    1052: 952e         	add	a0, a0, a1
    1054: 00054503     	lbu	a0, 0x0(a0)
    1058: 000aa483     	lw	s1, 0x0(s5)
    105c: 448c         	lw	a1, 0x8(s1)
    105e: 44d0         	lw	a2, 0xc(s1)
    1060: 00bdb5b3     	sltu	a1, s11, a1
    1064: 00c03633     	snez	a2, a2
    1068: 8dd1         	or	a1, a1, a2
    106a: 00854d33     	xor	s10, a0, s0
    106e: e181         	bnez	a1, 0x106e <w2c_aes_Cipher+0x82>
    1070: 00000097     	auipc	ra, 0x0
    1074: 000080e7     	jalr	ra <w2c_aes_Cipher+0x84>
    1078: 4088         	lw	a0, 0x0(s1)
    107a: 956e         	add	a0, a0, s11
    107c: 01a50023     	sb	s10, 0x0(a0)
    1080: 000aa403     	lw	s0, 0x0(s5)
    1084: 4448         	lw	a0, 0xc(s0)
    1086: 002d8a13     	addi	s4, s11, 0x2
    108a: 01ba3b33     	sltu	s6, s4, s11
    108e: 00ab0663     	beq	s6, a0, 0x109a <w2c_aes_Cipher+0xae>
    1092: 01653533     	sltu	a0, a0, s6
    1096: e511         	bnez	a0, 0x10a2 <w2c_aes_Cipher+0xb6>
    1098: a001         	j	0x1098 <w2c_aes_Cipher+0xac>
    109a: 4408         	lw	a0, 0x8(s0)
    109c: 01453533     	sltu	a0, a0, s4
    10a0: c101         	beqz	a0, 0x10a0 <w2c_aes_Cipher+0xb4>
    10a2: 00000097     	auipc	ra, 0x0
    10a6: 000080e7     	jalr	ra <w2c_aes_Cipher+0xb6>
    10aa: 4008         	lw	a0, 0x0(s0)
    10ac: 956e         	add	a0, a0, s11
    10ae: 00154903     	lbu	s2, 0x1(a0)
    10b2: 000aa483     	lw	s1, 0x0(s5)
    10b6: 4488         	lw	a0, 0x8(s1)
    10b8: 44cc         	lw	a1, 0xc(s1)
    10ba: 5416         	lw	s0, 0x64(sp)
    10bc: 0405         	addi	s0, s0, 0x1
    10be: 00a43533     	sltu	a0, s0, a0
    10c2: 00b035b3     	snez	a1, a1
    10c6: 8d4d         	or	a0, a0, a1
    10c8: e101         	bnez	a0, 0x10c8 <w2c_aes_Cipher+0xdc>
    10ca: 00000097     	auipc	ra, 0x0
    10ce: 000080e7     	jalr	ra <w2c_aes_Cipher+0xde>
    10d2: 4088         	lw	a0, 0x0(s1)
    10d4: 9522         	add	a0, a0, s0
    10d6: 00054503     	lbu	a0, 0x0(a0)
    10da: 000aa483     	lw	s1, 0x0(s5)
    10de: 44cc         	lw	a1, 0xc(s1)
    10e0: 00bb0863     	beq	s6, a1, 0x10f0 <w2c_aes_Cipher+0x104>
    10e4: 0165b5b3     	sltu	a1, a1, s6
    10e8: 01254433     	xor	s0, a0, s2
    10ec: e981         	bnez	a1, 0x10fc <w2c_aes_Cipher+0x110>
    10ee: a001         	j	0x10ee <w2c_aes_Cipher+0x102>
    10f0: 448c         	lw	a1, 0x8(s1)
    10f2: 0145b5b3     	sltu	a1, a1, s4
    10f6: 01254433     	xor	s0, a0, s2
    10fa: c181         	beqz	a1, 0x10fa <w2c_aes_Cipher+0x10e>
    10fc: 00000097     	auipc	ra, 0x0
    1100: 000080e7     	jalr	ra <w2c_aes_Cipher+0x110>
    1104: 4088         	lw	a0, 0x0(s1)
    1106: 956e         	add	a0, a0, s11
    1108: c8a2         	sw	s0, 0x50(sp)
    110a: 008500a3     	sb	s0, 0x1(a0)
    110e: 000aa403     	lw	s0, 0x0(s5)
    1112: 4448         	lw	a0, 0xc(s0)
    1114: 003d8593     	addi	a1, s11, 0x3
    1118: 01b5b9b3     	sltu	s3, a1, s11
    111c: 00a98763     	beq	s3, a0, 0x112a <w2c_aes_Cipher+0x13e>
    1120: 01353533     	sltu	a0, a0, s3
    1124: da2e         	sw	a1, 0x34(sp)
    1126: e519         	bnez	a0, 0x1134 <w2c_aes_Cipher+0x148>
    1128: a001         	j	0x1128 <w2c_aes_Cipher+0x13c>
    112a: 4408         	lw	a0, 0x8(s0)
    112c: 00b53533     	sltu	a0, a0, a1
    1130: da2e         	sw	a1, 0x34(sp)
    1132: c101         	beqz	a0, 0x1132 <w2c_aes_Cipher+0x146>
    1134: 00000097     	auipc	ra, 0x0
    1138: 000080e7     	jalr	ra <w2c_aes_Cipher+0x148>
    113c: 4008         	lw	a0, 0x0(s0)
    113e: 956e         	add	a0, a0, s11
    1140: 00254903     	lbu	s2, 0x2(a0)
    1144: 000aa483     	lw	s1, 0x0(s5)
    1148: 4488         	lw	a0, 0x8(s1)
    114a: 44cc         	lw	a1, 0xc(s1)
    114c: 5416         	lw	s0, 0x64(sp)
    114e: 0409         	addi	s0, s0, 0x2
    1150: 00a43533     	sltu	a0, s0, a0
    1154: 00b035b3     	snez	a1, a1
    1158: 8d4d         	or	a0, a0, a1
    115a: e101         	bnez	a0, 0x115a <w2c_aes_Cipher+0x16e>
    115c: 00000097     	auipc	ra, 0x0
    1160: 000080e7     	jalr	ra <w2c_aes_Cipher+0x170>
    1164: 4088         	lw	a0, 0x0(s1)
    1166: 9522         	add	a0, a0, s0
    1168: 00054503     	lbu	a0, 0x0(a0)
    116c: 000aa483     	lw	s1, 0x0(s5)
    1170: 44cc         	lw	a1, 0xc(s1)
    1172: 00b98863     	beq	s3, a1, 0x1182 <w2c_aes_Cipher+0x196>
    1176: 0135b5b3     	sltu	a1, a1, s3
    117a: 01254433     	xor	s0, a0, s2
    117e: e989         	bnez	a1, 0x1190 <w2c_aes_Cipher+0x1a4>
    1180: a001         	j	0x1180 <w2c_aes_Cipher+0x194>
    1182: 448c         	lw	a1, 0x8(s1)
    1184: 5652         	lw	a2, 0x34(sp)
    1186: 00c5b5b3     	sltu	a1, a1, a2
    118a: 01254433     	xor	s0, a0, s2
    118e: c181         	beqz	a1, 0x118e <w2c_aes_Cipher+0x1a2>
    1190: 00000097     	auipc	ra, 0x0
    1194: 000080e7     	jalr	ra <w2c_aes_Cipher+0x1a4>
    1198: 4088         	lw	a0, 0x0(s1)
    119a: 956e         	add	a0, a0, s11
    119c: caa2         	sw	s0, 0x54(sp)
    119e: 00850123     	sb	s0, 0x2(a0)
    11a2: 000aa403     	lw	s0, 0x0(s5)
    11a6: 4448         	lw	a0, 0xc(s0)
    11a8: 004d8593     	addi	a1, s11, 0x4
    11ac: 01b5b633     	sltu	a2, a1, s11
    11b0: cd32         	sw	a2, 0x98(sp)
    11b2: 00a60763     	beq	a2, a0, 0x11c0 <w2c_aes_Cipher+0x1d4>
    11b6: 00c53533     	sltu	a0, a0, a2
    11ba: d82e         	sw	a1, 0x30(sp)
    11bc: e519         	bnez	a0, 0x11ca <w2c_aes_Cipher+0x1de>
    11be: a001         	j	0x11be <w2c_aes_Cipher+0x1d2>
    11c0: 4408         	lw	a0, 0x8(s0)
    11c2: 00b53533     	sltu	a0, a0, a1
    11c6: d82e         	sw	a1, 0x30(sp)
    11c8: c101         	beqz	a0, 0x11c8 <w2c_aes_Cipher+0x1dc>
    11ca: 00000097     	auipc	ra, 0x0
    11ce: 000080e7     	jalr	ra <w2c_aes_Cipher+0x1de>
    11d2: 4008         	lw	a0, 0x0(s0)
    11d4: 956e         	add	a0, a0, s11
    11d6: 00354903     	lbu	s2, 0x3(a0)
    11da: 000aa483     	lw	s1, 0x0(s5)
    11de: 4488         	lw	a0, 0x8(s1)
    11e0: 44cc         	lw	a1, 0xc(s1)
    11e2: 5416         	lw	s0, 0x64(sp)
    11e4: 040d         	addi	s0, s0, 0x3
    11e6: 00a43533     	sltu	a0, s0, a0
    11ea: 00b035b3     	snez	a1, a1
    11ee: 8d4d         	or	a0, a0, a1
    11f0: e101         	bnez	a0, 0x11f0 <w2c_aes_Cipher+0x204>
    11f2: 00000097     	auipc	ra, 0x0
    11f6: 000080e7     	jalr	ra <w2c_aes_Cipher+0x206>
    11fa: 4088         	lw	a0, 0x0(s1)
    11fc: 9522         	add	a0, a0, s0
    11fe: 00054503     	lbu	a0, 0x0(a0)
    1202: 000aa483     	lw	s1, 0x0(s5)
    1206: 44cc         	lw	a1, 0xc(s1)
    1208: 466a         	lw	a2, 0x98(sp)
    120a: 00b61463     	bne	a2, a1, 0x1212 <w2c_aes_Cipher+0x226>
    120e: 448c         	lw	a1, 0x8(s1)
    1210: 5642         	lw	a2, 0x30(sp)
    1212: 00c5b5b3     	sltu	a1, a1, a2
    1216: 01254433     	xor	s0, a0, s2
    121a: c181         	beqz	a1, 0x121a <w2c_aes_Cipher+0x22e>
    121c: 00000097     	auipc	ra, 0x0
    1220: 000080e7     	jalr	ra <w2c_aes_Cipher+0x230>
    1224: 4088         	lw	a0, 0x0(s1)
    1226: 956e         	add	a0, a0, s11
    1228: cca2         	sw	s0, 0x58(sp)
    122a: 008501a3     	sb	s0, 0x3(a0)
    122e: 000aa403     	lw	s0, 0x0(s5)
    1232: 4448         	lw	a0, 0xc(s0)
    1234: 005d8593     	addi	a1, s11, 0x5
    1238: 01b5b933     	sltu	s2, a1, s11
    123c: d8ae         	sw	a1, 0x70(sp)
    123e: 00a90663     	beq	s2, a0, 0x124a <w2c_aes_Cipher+0x25e>
    1242: 01253533     	sltu	a0, a0, s2
    1246: e511         	bnez	a0, 0x1252 <w2c_aes_Cipher+0x266>
    1248: a001         	j	0x1248 <w2c_aes_Cipher+0x25c>
    124a: 4408         	lw	a0, 0x8(s0)
    124c: 00b53533     	sltu	a0, a0, a1
    1250: c101         	beqz	a0, 0x1250 <w2c_aes_Cipher+0x264>
    1252: 00000097     	auipc	ra, 0x0
    1256: 000080e7     	jalr	ra <w2c_aes_Cipher+0x266>
    125a: 4008         	lw	a0, 0x0(s0)
    125c: 956e         	add	a0, a0, s11
    125e: 00454403     	lbu	s0, 0x4(a0)
    1262: 000aa483     	lw	s1, 0x0(s5)
    1266: 4488         	lw	a0, 0x8(s1)
    1268: 44cc         	lw	a1, 0xc(s1)
    126a: 5616         	lw	a2, 0x64(sp)
    126c: 0611         	addi	a2, a2, 0x4
    126e: ce32         	sw	a2, 0x1c(sp)
    1270: 00a63533     	sltu	a0, a2, a0
    1274: 00b035b3     	snez	a1, a1
    1278: 8d4d         	or	a0, a0, a1
    127a: e101         	bnez	a0, 0x127a <w2c_aes_Cipher+0x28e>
    127c: 00000097     	auipc	ra, 0x0
    1280: 000080e7     	jalr	ra <w2c_aes_Cipher+0x290>
    1284: 4088         	lw	a0, 0x0(s1)
    1286: 45f2         	lw	a1, 0x1c(sp)
    1288: 952e         	add	a0, a0, a1
    128a: 00054503     	lbu	a0, 0x0(a0)
    128e: 000aa483     	lw	s1, 0x0(s5)
    1292: 44cc         	lw	a1, 0xc(s1)
    1294: 00b90763     	beq	s2, a1, 0x12a2 <w2c_aes_Cipher+0x2b6>
    1298: 0125b5b3     	sltu	a1, a1, s2
    129c: 8c29         	xor	s0, s0, a0
    129e: e981         	bnez	a1, 0x12ae <w2c_aes_Cipher+0x2c2>
    12a0: a001         	j	0x12a0 <w2c_aes_Cipher+0x2b4>
    12a2: 448c         	lw	a1, 0x8(s1)
    12a4: 5646         	lw	a2, 0x70(sp)
    12a6: 00c5b5b3     	sltu	a1, a1, a2
    12aa: 8c29         	xor	s0, s0, a0
    12ac: c181         	beqz	a1, 0x12ac <w2c_aes_Cipher+0x2c0>
    12ae: 00000097     	auipc	ra, 0x0
    12b2: 000080e7     	jalr	ra <w2c_aes_Cipher+0x2c2>
    12b6: c54a         	sw	s2, 0x88(sp)
    12b8: 4088         	lw	a0, 0x0(s1)
    12ba: 956e         	add	a0, a0, s11
    12bc: c0a2         	sw	s0, 0x40(sp)
    12be: 00850223     	sb	s0, 0x4(a0)
    12c2: 000aa403     	lw	s0, 0x0(s5)
    12c6: 4408         	lw	a0, 0x8(s0)
    12c8: 444c         	lw	a1, 0xc(s0)
    12ca: 5646         	lw	a2, 0x70(sp)
    12cc: 00a63533     	sltu	a0, a2, a0
    12d0: 00b035b3     	snez	a1, a1
    12d4: 8d4d         	or	a0, a0, a1
    12d6: e101         	bnez	a0, 0x12d6 <w2c_aes_Cipher+0x2ea>
    12d8: 00000097     	auipc	ra, 0x0
    12dc: 000080e7     	jalr	ra <w2c_aes_Cipher+0x2ec>
    12e0: 4008         	lw	a0, 0x0(s0)
    12e2: 55c6         	lw	a1, 0x70(sp)
    12e4: 952e         	add	a0, a0, a1
    12e6: 00054903     	lbu	s2, 0x0(a0)
    12ea: 000aa483     	lw	s1, 0x0(s5)
    12ee: 4488         	lw	a0, 0x8(s1)
    12f0: 44cc         	lw	a1, 0xc(s1)
    12f2: 5416         	lw	s0, 0x64(sp)
    12f4: 0415         	addi	s0, s0, 0x5
    12f6: 00a43533     	sltu	a0, s0, a0
    12fa: 00b035b3     	snez	a1, a1
    12fe: 8d4d         	or	a0, a0, a1
    1300: e101         	bnez	a0, 0x1300 <w2c_aes_Cipher+0x314>
    1302: 00000097     	auipc	ra, 0x0
    1306: 000080e7     	jalr	ra <w2c_aes_Cipher+0x316>
    130a: 4088         	lw	a0, 0x0(s1)
    130c: 9522         	add	a0, a0, s0
    130e: 00054503     	lbu	a0, 0x0(a0)
    1312: 000aa483     	lw	s1, 0x0(s5)
    1316: 448c         	lw	a1, 0x8(s1)
    1318: 44d0         	lw	a2, 0xc(s1)
    131a: 56c6         	lw	a3, 0x70(sp)
    131c: 00b6b5b3     	sltu	a1, a3, a1
    1320: 00c03633     	snez	a2, a2
    1324: 8dd1         	or	a1, a1, a2
    1326: 01254433     	xor	s0, a0, s2
    132a: e181         	bnez	a1, 0x132a <w2c_aes_Cipher+0x33e>
    132c: 00000097     	auipc	ra, 0x0
    1330: 000080e7     	jalr	ra <w2c_aes_Cipher+0x340>
    1334: 4088         	lw	a0, 0x0(s1)
    1336: 55c6         	lw	a1, 0x70(sp)
    1338: 952e         	add	a0, a0, a1
    133a: c4a2         	sw	s0, 0x48(sp)
    133c: 00850023     	sb	s0, 0x0(a0)
    1340: 000aa403     	lw	s0, 0x0(s5)
    1344: 4408         	lw	a0, 0x8(s0)
    1346: 444c         	lw	a1, 0xc(s0)
    1348: 006d8613     	addi	a2, s11, 0x6
    134c: c1b2         	sw	a2, 0xc0(sp)
    134e: 00a63533     	sltu	a0, a2, a0
    1352: 00b035b3     	snez	a1, a1
    1356: 8d4d         	or	a0, a0, a1
    1358: e101         	bnez	a0, 0x1358 <w2c_aes_Cipher+0x36c>
    135a: 00000097     	auipc	ra, 0x0
    135e: 000080e7     	jalr	ra <w2c_aes_Cipher+0x36e>
    1362: 4008         	lw	a0, 0x0(s0)
    1364: 458e         	lw	a1, 0xc0(sp)
    1366: 952e         	add	a0, a0, a1
    1368: 00054903     	lbu	s2, 0x0(a0)
    136c: 000aa483     	lw	s1, 0x0(s5)
    1370: 4488         	lw	a0, 0x8(s1)
    1372: 44cc         	lw	a1, 0xc(s1)
    1374: 5416         	lw	s0, 0x64(sp)
    1376: 0419         	addi	s0, s0, 0x6
    1378: 00a43533     	sltu	a0, s0, a0
    137c: 00b035b3     	snez	a1, a1
    1380: 8d4d         	or	a0, a0, a1
    1382: e101         	bnez	a0, 0x1382 <w2c_aes_Cipher+0x396>
    1384: 00000097     	auipc	ra, 0x0
    1388: 000080e7     	jalr	ra <w2c_aes_Cipher+0x398>
    138c: 4088         	lw	a0, 0x0(s1)
    138e: 9522         	add	a0, a0, s0
    1390: 00054503     	lbu	a0, 0x0(a0)
    1394: 000aa483     	lw	s1, 0x0(s5)
    1398: 448c         	lw	a1, 0x8(s1)
    139a: 44d0         	lw	a2, 0xc(s1)
    139c: 468e         	lw	a3, 0xc0(sp)
    139e: 00b6b5b3     	sltu	a1, a3, a1
    13a2: 00c03633     	snez	a2, a2
    13a6: 8dd1         	or	a1, a1, a2
    13a8: 01254433     	xor	s0, a0, s2
    13ac: e181         	bnez	a1, 0x13ac <w2c_aes_Cipher+0x3c0>
    13ae: 00000097     	auipc	ra, 0x0
    13b2: 000080e7     	jalr	ra <w2c_aes_Cipher+0x3c2>
    13b6: 4088         	lw	a0, 0x0(s1)
    13b8: 458e         	lw	a1, 0xc0(sp)
    13ba: 952e         	add	a0, a0, a1
    13bc: c2a2         	sw	s0, 0x44(sp)
    13be: 00850023     	sb	s0, 0x0(a0)
    13c2: 000aa403     	lw	s0, 0x0(s5)
    13c6: 4408         	lw	a0, 0x8(s0)
    13c8: 444c         	lw	a1, 0xc(s0)
    13ca: 007d8613     	addi	a2, s11, 0x7
    13ce: df32         	sw	a2, 0xbc(sp)
    13d0: 00a63533     	sltu	a0, a2, a0
    13d4: 00b035b3     	snez	a1, a1
    13d8: 8d4d         	or	a0, a0, a1
    13da: e101         	bnez	a0, 0x13da <w2c_aes_Cipher+0x3ee>
    13dc: 00000097     	auipc	ra, 0x0
    13e0: 000080e7     	jalr	ra <w2c_aes_Cipher+0x3f0>
    13e4: 4008         	lw	a0, 0x0(s0)
    13e6: 55fa         	lw	a1, 0xbc(sp)
    13e8: 952e         	add	a0, a0, a1
    13ea: 00054903     	lbu	s2, 0x0(a0)
    13ee: 000aa483     	lw	s1, 0x0(s5)
    13f2: 4488         	lw	a0, 0x8(s1)
    13f4: 44cc         	lw	a1, 0xc(s1)
    13f6: 5416         	lw	s0, 0x64(sp)
    13f8: 041d         	addi	s0, s0, 0x7
    13fa: 00a43533     	sltu	a0, s0, a0
    13fe: 00b035b3     	snez	a1, a1
    1402: 8d4d         	or	a0, a0, a1
    1404: e101         	bnez	a0, 0x1404 <w2c_aes_Cipher+0x418>
    1406: 00000097     	auipc	ra, 0x0
    140a: 000080e7     	jalr	ra <w2c_aes_Cipher+0x41a>
    140e: 4088         	lw	a0, 0x0(s1)
    1410: 9522         	add	a0, a0, s0
    1412: 00054503     	lbu	a0, 0x0(a0)
    1416: 000aa483     	lw	s1, 0x0(s5)
    141a: 448c         	lw	a1, 0x8(s1)
    141c: 44d0         	lw	a2, 0xc(s1)
    141e: 56fa         	lw	a3, 0xbc(sp)
    1420: 00b6b5b3     	sltu	a1, a3, a1
    1424: 00c03633     	snez	a2, a2
    1428: 8dd1         	or	a1, a1, a2
    142a: 01254433     	xor	s0, a0, s2
    142e: e181         	bnez	a1, 0x142e <w2c_aes_Cipher+0x442>
    1430: 00000097     	auipc	ra, 0x0
    1434: 000080e7     	jalr	ra <w2c_aes_Cipher+0x444>
    1438: 4088         	lw	a0, 0x0(s1)
    143a: 55fa         	lw	a1, 0xbc(sp)
    143c: 952e         	add	a0, a0, a1
    143e: c6a2         	sw	s0, 0x4c(sp)
    1440: 00850023     	sb	s0, 0x0(a0)
    1444: 000aa403     	lw	s0, 0x0(s5)
    1448: 4448         	lw	a0, 0xc(s0)
    144a: 009d8593     	addi	a1, s11, 0x9
    144e: 01b5b633     	sltu	a2, a1, s11
    1452: d6ae         	sw	a1, 0x6c(sp)
    1454: 00a60763     	beq	a2, a0, 0x1462 <w2c_aes_Cipher+0x476>
    1458: 00c53533     	sltu	a0, a0, a2
    145c: cb32         	sw	a2, 0x94(sp)
    145e: e519         	bnez	a0, 0x146c <w2c_aes_Cipher+0x480>
    1460: a001         	j	0x1460 <w2c_aes_Cipher+0x474>
    1462: 4408         	lw	a0, 0x8(s0)
    1464: 00b53533     	sltu	a0, a0, a1
    1468: cb32         	sw	a2, 0x94(sp)
    146a: c101         	beqz	a0, 0x146a <w2c_aes_Cipher+0x47e>
    146c: 00000097     	auipc	ra, 0x0
    1470: 000080e7     	jalr	ra <w2c_aes_Cipher+0x480>
    1474: 4008         	lw	a0, 0x0(s0)
    1476: 956e         	add	a0, a0, s11
    1478: 00854403     	lbu	s0, 0x8(a0)
    147c: 000aa483     	lw	s1, 0x0(s5)
    1480: 4488         	lw	a0, 0x8(s1)
    1482: 44cc         	lw	a1, 0xc(s1)
    1484: 5616         	lw	a2, 0x64(sp)
    1486: 0621         	addi	a2, a2, 0x8
    1488: cc32         	sw	a2, 0x18(sp)
    148a: 00a63533     	sltu	a0, a2, a0
    148e: 00b035b3     	snez	a1, a1
    1492: 8d4d         	or	a0, a0, a1
    1494: e101         	bnez	a0, 0x1494 <w2c_aes_Cipher+0x4a8>
    1496: 00000097     	auipc	ra, 0x0
    149a: 000080e7     	jalr	ra <w2c_aes_Cipher+0x4aa>
    149e: 4088         	lw	a0, 0x0(s1)
    14a0: 45e2         	lw	a1, 0x18(sp)
    14a2: 952e         	add	a0, a0, a1
    14a4: 00054503     	lbu	a0, 0x0(a0)
    14a8: 000aa483     	lw	s1, 0x0(s5)
    14ac: 44cc         	lw	a1, 0xc(s1)
    14ae: c74e         	sw	s3, 0x8c(sp)
    14b0: 465a         	lw	a2, 0x94(sp)
    14b2: 00b61463     	bne	a2, a1, 0x14ba <w2c_aes_Cipher+0x4ce>
    14b6: 448c         	lw	a1, 0x8(s1)
    14b8: 5636         	lw	a2, 0x6c(sp)
    14ba: 00c5b5b3     	sltu	a1, a1, a2
    14be: 008549b3     	xor	s3, a0, s0
    14c2: c181         	beqz	a1, 0x14c2 <w2c_aes_Cipher+0x4d6>
    14c4: 00000097     	auipc	ra, 0x0
    14c8: 000080e7     	jalr	ra <w2c_aes_Cipher+0x4d8>
    14cc: 4088         	lw	a0, 0x0(s1)
    14ce: 956e         	add	a0, a0, s11
    14d0: 01350423     	sb	s3, 0x8(a0)
    14d4: 000aa403     	lw	s0, 0x0(s5)
    14d8: 4408         	lw	a0, 0x8(s0)
    14da: 444c         	lw	a1, 0xc(s0)
    14dc: 5636         	lw	a2, 0x6c(sp)
    14de: 00a63533     	sltu	a0, a2, a0
    14e2: 00b035b3     	snez	a1, a1
    14e6: 8d4d         	or	a0, a0, a1
    14e8: e101         	bnez	a0, 0x14e8 <w2c_aes_Cipher+0x4fc>
    14ea: 00000097     	auipc	ra, 0x0
    14ee: 000080e7     	jalr	ra <w2c_aes_Cipher+0x4fe>
    14f2: 4008         	lw	a0, 0x0(s0)
    14f4: 55b6         	lw	a1, 0x6c(sp)
    14f6: 952e         	add	a0, a0, a1
    14f8: 00054903     	lbu	s2, 0x0(a0)
    14fc: 000aa483     	lw	s1, 0x0(s5)
    1500: 4488         	lw	a0, 0x8(s1)
    1502: 44cc         	lw	a1, 0xc(s1)
    1504: 5416         	lw	s0, 0x64(sp)
    1506: 0425         	addi	s0, s0, 0x9
    1508: 00a43533     	sltu	a0, s0, a0
    150c: 00b035b3     	snez	a1, a1
    1510: 8d4d         	or	a0, a0, a1
    1512: e101         	bnez	a0, 0x1512 <w2c_aes_Cipher+0x526>
    1514: 00000097     	auipc	ra, 0x0
    1518: 000080e7     	jalr	ra <w2c_aes_Cipher+0x528>
    151c: 4088         	lw	a0, 0x0(s1)
    151e: 9522         	add	a0, a0, s0
    1520: 00054503     	lbu	a0, 0x0(a0)
    1524: 000aa483     	lw	s1, 0x0(s5)
    1528: 448c         	lw	a1, 0x8(s1)
    152a: 44d0         	lw	a2, 0xc(s1)
    152c: 56b6         	lw	a3, 0x6c(sp)
    152e: 00b6b5b3     	sltu	a1, a3, a1
    1532: 00c03633     	snez	a2, a2
    1536: 8dd1         	or	a1, a1, a2
    1538: 01254c33     	xor	s8, a0, s2
    153c: e181         	bnez	a1, 0x153c <w2c_aes_Cipher+0x550>
    153e: 00000097     	auipc	ra, 0x0
    1542: 000080e7     	jalr	ra <w2c_aes_Cipher+0x552>
    1546: 4088         	lw	a0, 0x0(s1)
    1548: 55b6         	lw	a1, 0x6c(sp)
    154a: 952e         	add	a0, a0, a1
    154c: 01850023     	sb	s8, 0x0(a0)
    1550: 000aa403     	lw	s0, 0x0(s5)
    1554: 4408         	lw	a0, 0x8(s0)
    1556: 444c         	lw	a1, 0xc(s0)
    1558: 00ad8613     	addi	a2, s11, 0xa
    155c: dd32         	sw	a2, 0xb8(sp)
    155e: 00a63533     	sltu	a0, a2, a0
    1562: 00b035b3     	snez	a1, a1
    1566: 8d4d         	or	a0, a0, a1
    1568: e101         	bnez	a0, 0x1568 <w2c_aes_Cipher+0x57c>
    156a: 00000097     	auipc	ra, 0x0
    156e: 000080e7     	jalr	ra <w2c_aes_Cipher+0x57e>
    1572: 4008         	lw	a0, 0x0(s0)
    1574: 55ea         	lw	a1, 0xb8(sp)
    1576: 952e         	add	a0, a0, a1
    1578: 00054903     	lbu	s2, 0x0(a0)
    157c: 000aa483     	lw	s1, 0x0(s5)
    1580: 4488         	lw	a0, 0x8(s1)
    1582: 44cc         	lw	a1, 0xc(s1)
    1584: 5416         	lw	s0, 0x64(sp)
    1586: 0429         	addi	s0, s0, 0xa
    1588: 00a43533     	sltu	a0, s0, a0
    158c: 00b035b3     	snez	a1, a1
    1590: 8d4d         	or	a0, a0, a1
    1592: e101         	bnez	a0, 0x1592 <w2c_aes_Cipher+0x5a6>
    1594: 00000097     	auipc	ra, 0x0
    1598: 000080e7     	jalr	ra <w2c_aes_Cipher+0x5a8>
    159c: 4088         	lw	a0, 0x0(s1)
    159e: 9522         	add	a0, a0, s0
    15a0: 00054503     	lbu	a0, 0x0(a0)
    15a4: 000aa483     	lw	s1, 0x0(s5)
    15a8: 448c         	lw	a1, 0x8(s1)
    15aa: 44d0         	lw	a2, 0xc(s1)
    15ac: 56ea         	lw	a3, 0xb8(sp)
    15ae: 00b6b5b3     	sltu	a1, a3, a1
    15b2: 00c03633     	snez	a2, a2
    15b6: 8dd1         	or	a1, a1, a2
    15b8: 01254433     	xor	s0, a0, s2
    15bc: e181         	bnez	a1, 0x15bc <w2c_aes_Cipher+0x5d0>
    15be: 00000097     	auipc	ra, 0x0
    15c2: 000080e7     	jalr	ra <w2c_aes_Cipher+0x5d2>
    15c6: 4088         	lw	a0, 0x0(s1)
    15c8: 55ea         	lw	a1, 0xb8(sp)
    15ca: 952e         	add	a0, a0, a1
    15cc: de22         	sw	s0, 0x3c(sp)
    15ce: 00850023     	sb	s0, 0x0(a0)
    15d2: 000aa403     	lw	s0, 0x0(s5)
    15d6: 4408         	lw	a0, 0x8(s0)
    15d8: 444c         	lw	a1, 0xc(s0)
    15da: 00bd8613     	addi	a2, s11, 0xb
    15de: db32         	sw	a2, 0xb4(sp)
    15e0: 00a63533     	sltu	a0, a2, a0
    15e4: 00b035b3     	snez	a1, a1
    15e8: 8d4d         	or	a0, a0, a1
    15ea: e101         	bnez	a0, 0x15ea <w2c_aes_Cipher+0x5fe>
    15ec: 00000097     	auipc	ra, 0x0
    15f0: 000080e7     	jalr	ra <w2c_aes_Cipher+0x600>
    15f4: 4008         	lw	a0, 0x0(s0)
    15f6: 55da         	lw	a1, 0xb4(sp)
    15f8: 952e         	add	a0, a0, a1
    15fa: 00054903     	lbu	s2, 0x0(a0)
    15fe: 000aa483     	lw	s1, 0x0(s5)
    1602: 4488         	lw	a0, 0x8(s1)
    1604: 44cc         	lw	a1, 0xc(s1)
    1606: 5416         	lw	s0, 0x64(sp)
    1608: 042d         	addi	s0, s0, 0xb
    160a: 00a43533     	sltu	a0, s0, a0
    160e: 00b035b3     	snez	a1, a1
    1612: 8d4d         	or	a0, a0, a1
    1614: e101         	bnez	a0, 0x1614 <w2c_aes_Cipher+0x628>
    1616: 00000097     	auipc	ra, 0x0
    161a: 000080e7     	jalr	ra <w2c_aes_Cipher+0x62a>
    161e: 4088         	lw	a0, 0x0(s1)
    1620: 9522         	add	a0, a0, s0
    1622: 00054503     	lbu	a0, 0x0(a0)
    1626: 000aa483     	lw	s1, 0x0(s5)
    162a: 448c         	lw	a1, 0x8(s1)
    162c: 44d0         	lw	a2, 0xc(s1)
    162e: 56da         	lw	a3, 0xb4(sp)
    1630: 00b6b5b3     	sltu	a1, a3, a1
    1634: 00c03633     	snez	a2, a2
    1638: 8dd1         	or	a1, a1, a2
    163a: 01254433     	xor	s0, a0, s2
    163e: e181         	bnez	a1, 0x163e <w2c_aes_Cipher+0x652>
    1640: 00000097     	auipc	ra, 0x0
    1644: 000080e7     	jalr	ra <w2c_aes_Cipher+0x654>
    1648: 4088         	lw	a0, 0x0(s1)
    164a: 55da         	lw	a1, 0xb4(sp)
    164c: 952e         	add	a0, a0, a1
    164e: dc22         	sw	s0, 0x38(sp)
    1650: 00850023     	sb	s0, 0x0(a0)
    1654: 000aa403     	lw	s0, 0x0(s5)
    1658: 4448         	lw	a0, 0xc(s0)
    165a: 00dd8593     	addi	a1, s11, 0xd
    165e: 01b5b633     	sltu	a2, a1, s11
    1662: d4ae         	sw	a1, 0x68(sp)
    1664: 00a60763     	beq	a2, a0, 0x1672 <w2c_aes_Cipher+0x686>
    1668: 00c53533     	sltu	a0, a0, a2
    166c: c932         	sw	a2, 0x90(sp)
    166e: e519         	bnez	a0, 0x167c <w2c_aes_Cipher+0x690>
    1670: a001         	j	0x1670 <w2c_aes_Cipher+0x684>
    1672: 4408         	lw	a0, 0x8(s0)
    1674: 00b53533     	sltu	a0, a0, a1
    1678: c932         	sw	a2, 0x90(sp)
    167a: c101         	beqz	a0, 0x167a <w2c_aes_Cipher+0x68e>
    167c: 00000097     	auipc	ra, 0x0
    1680: 000080e7     	jalr	ra <w2c_aes_Cipher+0x690>
    1684: 4008         	lw	a0, 0x0(s0)
    1686: 956e         	add	a0, a0, s11
    1688: 00c54403     	lbu	s0, 0xc(a0)
    168c: 000aa483     	lw	s1, 0x0(s5)
    1690: 4488         	lw	a0, 0x8(s1)
    1692: 44cc         	lw	a1, 0xc(s1)
    1694: 5616         	lw	a2, 0x64(sp)
    1696: 0631         	addi	a2, a2, 0xc
    1698: ca32         	sw	a2, 0x14(sp)
    169a: 00a63533     	sltu	a0, a2, a0
    169e: 00b035b3     	snez	a1, a1
    16a2: 8d4d         	or	a0, a0, a1
    16a4: e101         	bnez	a0, 0x16a4 <w2c_aes_Cipher+0x6b8>
    16a6: 00000097     	auipc	ra, 0x0
    16aa: 000080e7     	jalr	ra <w2c_aes_Cipher+0x6ba>
    16ae: 4088         	lw	a0, 0x0(s1)
    16b0: 45d2         	lw	a1, 0x14(sp)
    16b2: 952e         	add	a0, a0, a1
    16b4: 00054503     	lbu	a0, 0x0(a0)
    16b8: 000aa483     	lw	s1, 0x0(s5)
    16bc: 44cc         	lw	a1, 0xc(s1)
    16be: 464a         	lw	a2, 0x90(sp)
    16c0: 00b61463     	bne	a2, a1, 0x16c8 <w2c_aes_Cipher+0x6dc>
    16c4: 448c         	lw	a1, 0x8(s1)
    16c6: 5626         	lw	a2, 0x68(sp)
    16c8: 00c5b5b3     	sltu	a1, a1, a2
    16cc: 00854cb3     	xor	s9, a0, s0
    16d0: c181         	beqz	a1, 0x16d0 <w2c_aes_Cipher+0x6e4>
    16d2: 00000097     	auipc	ra, 0x0
    16d6: 000080e7     	jalr	ra <w2c_aes_Cipher+0x6e6>
    16da: 4088         	lw	a0, 0x0(s1)
    16dc: 956e         	add	a0, a0, s11
    16de: 01950623     	sb	s9, 0xc(a0)
    16e2: 000aa403     	lw	s0, 0x0(s5)
    16e6: 4408         	lw	a0, 0x8(s0)
    16e8: 444c         	lw	a1, 0xc(s0)
    16ea: 5626         	lw	a2, 0x68(sp)
    16ec: 00a63533     	sltu	a0, a2, a0
    16f0: 00b035b3     	snez	a1, a1
    16f4: 8d4d         	or	a0, a0, a1
    16f6: e101         	bnez	a0, 0x16f6 <w2c_aes_Cipher+0x70a>
    16f8: 00000097     	auipc	ra, 0x0
    16fc: 000080e7     	jalr	ra <w2c_aes_Cipher+0x70c>
    1700: 4008         	lw	a0, 0x0(s0)
    1702: 55a6         	lw	a1, 0x68(sp)
    1704: 952e         	add	a0, a0, a1
    1706: 00054903     	lbu	s2, 0x0(a0)
    170a: 000aa483     	lw	s1, 0x0(s5)
    170e: 4488         	lw	a0, 0x8(s1)
    1710: 44cc         	lw	a1, 0xc(s1)
    1712: 5416         	lw	s0, 0x64(sp)
    1714: 0435         	addi	s0, s0, 0xd
    1716: 00a43533     	sltu	a0, s0, a0
    171a: 00b035b3     	snez	a1, a1
    171e: 8d4d         	or	a0, a0, a1
    1720: e101         	bnez	a0, 0x1720 <w2c_aes_Cipher+0x734>
    1722: 00000097     	auipc	ra, 0x0
    1726: 000080e7     	jalr	ra <w2c_aes_Cipher+0x736>
    172a: 4088         	lw	a0, 0x0(s1)
    172c: 9522         	add	a0, a0, s0
    172e: 00054503     	lbu	a0, 0x0(a0)
    1732: 000aa483     	lw	s1, 0x0(s5)
    1736: 448c         	lw	a1, 0x8(s1)
    1738: 44d0         	lw	a2, 0xc(s1)
    173a: 56a6         	lw	a3, 0x68(sp)
    173c: 00b6b5b3     	sltu	a1, a3, a1
    1740: 00c03633     	snez	a2, a2
    1744: 8dd1         	or	a1, a1, a2
    1746: 01254bb3     	xor	s7, a0, s2
    174a: e181         	bnez	a1, 0x174a <w2c_aes_Cipher+0x75e>
    174c: 00000097     	auipc	ra, 0x0
    1750: 000080e7     	jalr	ra <w2c_aes_Cipher+0x760>
    1754: 4088         	lw	a0, 0x0(s1)
    1756: 55a6         	lw	a1, 0x68(sp)
    1758: 952e         	add	a0, a0, a1
    175a: 01750023     	sb	s7, 0x0(a0)
    175e: 000aa403     	lw	s0, 0x0(s5)
    1762: 4408         	lw	a0, 0x8(s0)
    1764: 444c         	lw	a1, 0xc(s0)
    1766: 00ed8613     	addi	a2, s11, 0xe
    176a: d932         	sw	a2, 0xb0(sp)
    176c: 00a63533     	sltu	a0, a2, a0
    1770: 00b035b3     	snez	a1, a1
    1774: 8d4d         	or	a0, a0, a1
    1776: e101         	bnez	a0, 0x1776 <w2c_aes_Cipher+0x78a>
    1778: 00000097     	auipc	ra, 0x0
    177c: 000080e7     	jalr	ra <w2c_aes_Cipher+0x78c>
    1780: d652         	sw	s4, 0x2c(sp)
    1782: 4008         	lw	a0, 0x0(s0)
    1784: 55ca         	lw	a1, 0xb0(sp)
    1786: 952e         	add	a0, a0, a1
    1788: 00054903     	lbu	s2, 0x0(a0)
    178c: 000aa483     	lw	s1, 0x0(s5)
    1790: 4488         	lw	a0, 0x8(s1)
    1792: 44cc         	lw	a1, 0xc(s1)
    1794: 5416         	lw	s0, 0x64(sp)
    1796: 0439         	addi	s0, s0, 0xe
    1798: 00a43533     	sltu	a0, s0, a0
    179c: 00b035b3     	snez	a1, a1
    17a0: 8d4d         	or	a0, a0, a1
    17a2: e101         	bnez	a0, 0x17a2 <w2c_aes_Cipher+0x7b6>
    17a4: 00000097     	auipc	ra, 0x0
    17a8: 000080e7     	jalr	ra <w2c_aes_Cipher+0x7b8>
    17ac: 4088         	lw	a0, 0x0(s1)
    17ae: 9522         	add	a0, a0, s0
    17b0: 00054503     	lbu	a0, 0x0(a0)
    17b4: 000aa483     	lw	s1, 0x0(s5)
    17b8: 448c         	lw	a1, 0x8(s1)
    17ba: 44d0         	lw	a2, 0xc(s1)
    17bc: 56ca         	lw	a3, 0xb0(sp)
    17be: 00b6b5b3     	sltu	a1, a3, a1
    17c2: 00c03633     	snez	a2, a2
    17c6: 8dd1         	or	a1, a1, a2
    17c8: 01254a33     	xor	s4, a0, s2
    17cc: e181         	bnez	a1, 0x17cc <w2c_aes_Cipher+0x7e0>
    17ce: 00000097     	auipc	ra, 0x0
    17d2: 000080e7     	jalr	ra <w2c_aes_Cipher+0x7e2>
    17d6: 4088         	lw	a0, 0x0(s1)
    17d8: 55ca         	lw	a1, 0xb0(sp)
    17da: 952e         	add	a0, a0, a1
    17dc: 01450023     	sb	s4, 0x0(a0)
    17e0: 000aa403     	lw	s0, 0x0(s5)
    17e4: 4408         	lw	a0, 0x8(s0)
    17e6: 444c         	lw	a1, 0xc(s0)
    17e8: 00fd8613     	addi	a2, s11, 0xf
    17ec: d732         	sw	a2, 0xac(sp)
    17ee: 00a63533     	sltu	a0, a2, a0
    17f2: 00b035b3     	snez	a1, a1
    17f6: 8d4d         	or	a0, a0, a1
    17f8: e101         	bnez	a0, 0x17f8 <w2c_aes_Cipher+0x80c>
    17fa: 00000097     	auipc	ra, 0x0
    17fe: 000080e7     	jalr	ra <w2c_aes_Cipher+0x80e>
    1802: d0da         	sw	s6, 0x60(sp)
    1804: 4008         	lw	a0, 0x0(s0)
    1806: 55ba         	lw	a1, 0xac(sp)
    1808: 952e         	add	a0, a0, a1
    180a: 00054903     	lbu	s2, 0x0(a0)
    180e: 000aa403     	lw	s0, 0x0(s5)
    1812: 4408         	lw	a0, 0x8(s0)
    1814: 444c         	lw	a1, 0xc(s0)
    1816: 5496         	lw	s1, 0x64(sp)
    1818: 04bd         	addi	s1, s1, 0xf
    181a: 00a4b533     	sltu	a0, s1, a0
    181e: 00b035b3     	snez	a1, a1
    1822: 8d4d         	or	a0, a0, a1
    1824: e101         	bnez	a0, 0x1824 <w2c_aes_Cipher+0x838>
    1826: 00000097     	auipc	ra, 0x0
    182a: 000080e7     	jalr	ra <w2c_aes_Cipher+0x83a>
    182e: 4008         	lw	a0, 0x0(s0)
    1830: 55ca         	lw	a1, 0xb0(sp)
    1832: 01b5b5b3     	sltu	a1, a1, s11
    1836: c32e         	sw	a1, 0x84(sp)
    1838: 55ea         	lw	a1, 0xb8(sp)
    183a: 01b5b5b3     	sltu	a1, a1, s11
    183e: deae         	sw	a1, 0x7c(sp)
    1840: 458e         	lw	a1, 0xc0(sp)
    1842: 01b5b5b3     	sltu	a1, a1, s11
    1846: cf2e         	sw	a1, 0x9c(sp)
    1848: 55da         	lw	a1, 0xb4(sp)
    184a: 01b5b5b3     	sltu	a1, a1, s11
    184e: d12e         	sw	a1, 0xa0(sp)
    1850: 55ba         	lw	a1, 0xac(sp)
    1852: 01b5b5b3     	sltu	a1, a1, s11
    1856: d32e         	sw	a1, 0xa4(sp)
    1858: 55fa         	lw	a1, 0xbc(sp)
    185a: 01b5b5b3     	sltu	a1, a1, s11
    185e: daae         	sw	a1, 0x74(sp)
    1860: 010d8593     	addi	a1, s11, 0x10
    1864: 00cd8613     	addi	a2, s11, 0xc
    1868: 008d8693     	addi	a3, s11, 0x8
    186c: 4705         	li	a4, 0x1
    186e: d53a         	sw	a4, 0xa8(sp)
    1870: 9526         	add	a0, a0, s1
    1872: 00054503     	lbu	a0, 0x0(a0)
    1876: d42e         	sw	a1, 0x28(sp)
    1878: 01b5b5b3     	sltu	a1, a1, s11
    187c: ceae         	sw	a1, 0x5c(sp)
    187e: d232         	sw	a2, 0x24(sp)
    1880: 01b635b3     	sltu	a1, a2, s11
    1884: c12e         	sw	a1, 0x80(sp)
    1886: d036         	sw	a3, 0x20(sp)
    1888: 01b6b5b3     	sltu	a1, a3, s11
    188c: dcae         	sw	a1, 0x78(sp)
    188e: 01254b33     	xor	s6, a0, s2
    1892: 492a         	lw	s2, 0x88(sp)
    1894: c5d6         	sw	s5, 0xc8(sp)
    1896: c3ee         	sw	s11, 0xc4(sp)
    1898: a821         	j	0x18b0 <w2c_aes_Cipher+0x8c4>
    189a: 4008         	lw	a0, 0x0(s0)
    189c: 0154cb33     	xor	s6, s1, s5
    18a0: 55ba         	lw	a1, 0xac(sp)
    18a2: 952e         	add	a0, a0, a1
    18a4: 01650023     	sb	s6, 0x0(a0)
    18a8: 552a         	lw	a0, 0xa8(sp)
    18aa: 0505         	addi	a0, a0, 0x1
    18ac: d52a         	sw	a0, 0xa8(sp)
    18ae: 4aae         	lw	s5, 0xc8(sp)
    18b0: 000aa403     	lw	s0, 0x0(s5)
    18b4: 4408         	lw	a0, 0x8(s0)
    18b6: 444c         	lw	a1, 0xc(s0)
    18b8: 0ffcf493     	zext.b	s1, s9
    18bc: 00a4b533     	sltu	a0, s1, a0
    18c0: 00b035b3     	snez	a1, a1
    18c4: 8d4d         	or	a0, a0, a1
    18c6: e101         	bnez	a0, 0x18c6 <w2c_aes_Cipher+0x8da>
    18c8: 00000097     	auipc	ra, 0x0
    18cc: 000080e7     	jalr	ra <w2c_aes_Cipher+0x8dc>
    18d0: 4008         	lw	a0, 0x0(s0)
    18d2: 9526         	add	a0, a0, s1
    18d4: 00054483     	lbu	s1, 0x0(a0)
    18d8: 000aa403     	lw	s0, 0x0(s5)
    18dc: 4448         	lw	a0, 0xc(s0)
    18de: 45ca         	lw	a1, 0x90(sp)
    18e0: 00a59463     	bne	a1, a0, 0x18e8 <w2c_aes_Cipher+0x8fc>
    18e4: 4408         	lw	a0, 0x8(s0)
    18e6: 55a6         	lw	a1, 0x68(sp)
    18e8: 00b53533     	sltu	a0, a0, a1
    18ec: c101         	beqz	a0, 0x18ec <w2c_aes_Cipher+0x900>
    18ee: 00000097     	auipc	ra, 0x0
    18f2: 000080e7     	jalr	ra <w2c_aes_Cipher+0x902>
    18f6: 4008         	lw	a0, 0x0(s0)
    18f8: 956e         	add	a0, a0, s11
    18fa: c826         	sw	s1, 0x10(sp)
    18fc: 00950623     	sb	s1, 0xc(a0)
    1900: 000aa403     	lw	s0, 0x0(s5)
    1904: 4408         	lw	a0, 0x8(s0)
    1906: 444c         	lw	a1, 0xc(s0)
    1908: 0ff9f493     	zext.b	s1, s3
    190c: 00a4b533     	sltu	a0, s1, a0
    1910: 00b035b3     	snez	a1, a1
    1914: 8d4d         	or	a0, a0, a1
    1916: e101         	bnez	a0, 0x1916 <w2c_aes_Cipher+0x92a>
    1918: 00000097     	auipc	ra, 0x0
    191c: 000080e7     	jalr	ra <w2c_aes_Cipher+0x92c>
    1920: 4008         	lw	a0, 0x0(s0)
    1922: 9526         	add	a0, a0, s1
    1924: 00054483     	lbu	s1, 0x0(a0)
    1928: 000aa403     	lw	s0, 0x0(s5)
    192c: 4448         	lw	a0, 0xc(s0)
    192e: 49ba         	lw	s3, 0x8c(sp)
    1930: 45da         	lw	a1, 0x94(sp)
    1932: 00a59463     	bne	a1, a0, 0x193a <w2c_aes_Cipher+0x94e>
    1936: 4408         	lw	a0, 0x8(s0)
    1938: 55b6         	lw	a1, 0x6c(sp)
    193a: 00b53533     	sltu	a0, a0, a1
    193e: c101         	beqz	a0, 0x193e <w2c_aes_Cipher+0x952>
    1940: 00000097     	auipc	ra, 0x0
    1944: 000080e7     	jalr	ra <w2c_aes_Cipher+0x954>
    1948: 4008         	lw	a0, 0x0(s0)
    194a: 956e         	add	a0, a0, s11
    194c: c626         	sw	s1, 0xc(sp)
    194e: 00950423     	sb	s1, 0x8(a0)
    1952: 000aa403     	lw	s0, 0x0(s5)
    1956: 4408         	lw	a0, 0x8(s0)
    1958: 444c         	lw	a1, 0xc(s0)
    195a: 04014483     	lbu	s1, 0x40(sp)
    195e: 00a4b533     	sltu	a0, s1, a0
    1962: 00b035b3     	snez	a1, a1
    1966: 8d4d         	or	a0, a0, a1
    1968: e101         	bnez	a0, 0x1968 <w2c_aes_Cipher+0x97c>
    196a: 00000097     	auipc	ra, 0x0
    196e: 000080e7     	jalr	ra <w2c_aes_Cipher+0x97e>
    1972: 4008         	lw	a0, 0x0(s0)
    1974: 9526         	add	a0, a0, s1
    1976: 00054a83     	lbu	s5, 0x0(a0)
    197a: 452e         	lw	a0, 0xc8(sp)
    197c: 4100         	lw	s0, 0x0(a0)
    197e: 4448         	lw	a0, 0xc(s0)
    1980: 00a90663     	beq	s2, a0, 0x198c <w2c_aes_Cipher+0x9a0>
    1984: 01253533     	sltu	a0, a0, s2
    1988: e519         	bnez	a0, 0x1996 <w2c_aes_Cipher+0x9aa>
    198a: a001         	j	0x198a <w2c_aes_Cipher+0x99e>
    198c: 4408         	lw	a0, 0x8(s0)
    198e: 55c6         	lw	a1, 0x70(sp)
    1990: 00b53533     	sltu	a0, a0, a1
    1994: c101         	beqz	a0, 0x1994 <w2c_aes_Cipher+0x9a8>
    1996: 00000097     	auipc	ra, 0x0
    199a: 000080e7     	jalr	ra <w2c_aes_Cipher+0x9aa>
    199e: 4008         	lw	a0, 0x0(s0)
    19a0: 956e         	add	a0, a0, s11
    19a2: 01550223     	sb	s5, 0x4(a0)
    19a6: 452e         	lw	a0, 0xc8(sp)
    19a8: 4100         	lw	s0, 0x0(a0)
    19aa: 4408         	lw	a0, 0x8(s0)
    19ac: 444c         	lw	a1, 0xc(s0)
    19ae: 0ffd7493     	zext.b	s1, s10
    19b2: 00a4b533     	sltu	a0, s1, a0
    19b6: 00b035b3     	snez	a1, a1
    19ba: 8d4d         	or	a0, a0, a1
    19bc: e101         	bnez	a0, 0x19bc <w2c_aes_Cipher+0x9d0>
    19be: 00000097     	auipc	ra, 0x0
    19c2: 000080e7     	jalr	ra <w2c_aes_Cipher+0x9d2>
    19c6: 4008         	lw	a0, 0x0(s0)
    19c8: 9526         	add	a0, a0, s1
    19ca: 00054c83     	lbu	s9, 0x0(a0)
    19ce: 452e         	lw	a0, 0xc8(sp)
    19d0: 4100         	lw	s0, 0x0(a0)
    19d2: 4408         	lw	a0, 0x8(s0)
    19d4: 444c         	lw	a1, 0xc(s0)
    19d6: 00adb533     	sltu	a0, s11, a0
    19da: 00b035b3     	snez	a1, a1
    19de: 8d4d         	or	a0, a0, a1
    19e0: e101         	bnez	a0, 0x19e0 <w2c_aes_Cipher+0x9f4>
    19e2: 00000097     	auipc	ra, 0x0
    19e6: 000080e7     	jalr	ra <w2c_aes_Cipher+0x9f6>
    19ea: 4008         	lw	a0, 0x0(s0)
    19ec: 956e         	add	a0, a0, s11
    19ee: 01950023     	sb	s9, 0x0(a0)
    19f2: 452e         	lw	a0, 0xc8(sp)
    19f4: 4100         	lw	s0, 0x0(a0)
    19f6: 4408         	lw	a0, 0x8(s0)
    19f8: 444c         	lw	a1, 0xc(s0)
    19fa: 05014483     	lbu	s1, 0x50(sp)
    19fe: 00a4b533     	sltu	a0, s1, a0
    1a02: 00b035b3     	snez	a1, a1
    1a06: 8d4d         	or	a0, a0, a1
    1a08: e101         	bnez	a0, 0x1a08 <w2c_aes_Cipher+0xa1c>
    1a0a: 00000097     	auipc	ra, 0x0
    1a0e: 000080e7     	jalr	ra <w2c_aes_Cipher+0xa1e>
    1a12: 4008         	lw	a0, 0x0(s0)
    1a14: 9526         	add	a0, a0, s1
    1a16: 00054483     	lbu	s1, 0x0(a0)
    1a1a: 452e         	lw	a0, 0xc8(sp)
    1a1c: 4100         	lw	s0, 0x0(a0)
    1a1e: 4448         	lw	a0, 0xc(s0)
    1a20: 459a         	lw	a1, 0x84(sp)
    1a22: 00a59463     	bne	a1, a0, 0x1a2a <w2c_aes_Cipher+0xa3e>
    1a26: 4408         	lw	a0, 0x8(s0)
    1a28: 55ca         	lw	a1, 0xb0(sp)
    1a2a: 00b53533     	sltu	a0, a0, a1
    1a2e: c101         	beqz	a0, 0x1a2e <w2c_aes_Cipher+0xa42>
    1a30: 00000097     	auipc	ra, 0x0
    1a34: 000080e7     	jalr	ra <w2c_aes_Cipher+0xa44>
    1a38: 4008         	lw	a0, 0x0(s0)
    1a3a: 55a6         	lw	a1, 0x68(sp)
    1a3c: 952e         	add	a0, a0, a1
    1a3e: c8a6         	sw	s1, 0x50(sp)
    1a40: 00950023     	sb	s1, 0x0(a0)
    1a44: 452e         	lw	a0, 0xc8(sp)
    1a46: 4100         	lw	s0, 0x0(a0)
    1a48: 4408         	lw	a0, 0x8(s0)
    1a4a: 444c         	lw	a1, 0xc(s0)
    1a4c: 0ffbf493     	zext.b	s1, s7
    1a50: 00a4b533     	sltu	a0, s1, a0
    1a54: 00b035b3     	snez	a1, a1
    1a58: 8d4d         	or	a0, a0, a1
    1a5a: e101         	bnez	a0, 0x1a5a <w2c_aes_Cipher+0xa6e>
    1a5c: 00000097     	auipc	ra, 0x0
    1a60: 000080e7     	jalr	ra <w2c_aes_Cipher+0xa70>
    1a64: 4008         	lw	a0, 0x0(s0)
    1a66: 9526         	add	a0, a0, s1
    1a68: 00054483     	lbu	s1, 0x0(a0)
    1a6c: 452e         	lw	a0, 0xc8(sp)
    1a6e: 4100         	lw	s0, 0x0(a0)
    1a70: 4448         	lw	a0, 0xc(s0)
    1a72: 55f6         	lw	a1, 0x7c(sp)
    1a74: 00a59463     	bne	a1, a0, 0x1a7c <w2c_aes_Cipher+0xa90>
    1a78: 4408         	lw	a0, 0x8(s0)
    1a7a: 55ea         	lw	a1, 0xb8(sp)
    1a7c: 00b53533     	sltu	a0, a0, a1
    1a80: c101         	beqz	a0, 0x1a80 <w2c_aes_Cipher+0xa94>
    1a82: 00000097     	auipc	ra, 0x0
    1a86: 000080e7     	jalr	ra <w2c_aes_Cipher+0xa96>
    1a8a: 4008         	lw	a0, 0x0(s0)
    1a8c: 55b6         	lw	a1, 0x6c(sp)
    1a8e: 952e         	add	a0, a0, a1
    1a90: c0a6         	sw	s1, 0x40(sp)
    1a92: 00950023     	sb	s1, 0x0(a0)
    1a96: 452e         	lw	a0, 0xc8(sp)
    1a98: 4100         	lw	s0, 0x0(a0)
    1a9a: 4408         	lw	a0, 0x8(s0)
    1a9c: 444c         	lw	a1, 0xc(s0)
    1a9e: 0ffc7493     	zext.b	s1, s8
    1aa2: 00a4b533     	sltu	a0, s1, a0
    1aa6: 00b035b3     	snez	a1, a1
    1aaa: 8d4d         	or	a0, a0, a1
    1aac: e101         	bnez	a0, 0x1aac <w2c_aes_Cipher+0xac0>
    1aae: 00000097     	auipc	ra, 0x0
    1ab2: 000080e7     	jalr	ra <w2c_aes_Cipher+0xac2>
    1ab6: 4008         	lw	a0, 0x0(s0)
    1ab8: 9526         	add	a0, a0, s1
    1aba: 00054d03     	lbu	s10, 0x0(a0)
    1abe: 452e         	lw	a0, 0xc8(sp)
    1ac0: 4104         	lw	s1, 0x0(a0)
    1ac2: 44c8         	lw	a0, 0xc(s1)
    1ac4: 45fa         	lw	a1, 0x9c(sp)
    1ac6: 00a59463     	bne	a1, a0, 0x1ace <w2c_aes_Cipher+0xae2>
    1aca: 4488         	lw	a0, 0x8(s1)
    1acc: 458e         	lw	a1, 0xc0(sp)
    1ace: 00b53533     	sltu	a0, a0, a1
    1ad2: 4426         	lw	s0, 0x48(sp)
    1ad4: c101         	beqz	a0, 0x1ad4 <w2c_aes_Cipher+0xae8>
    1ad6: 00000097     	auipc	ra, 0x0
    1ada: 000080e7     	jalr	ra <w2c_aes_Cipher+0xaea>
    1ade: 4088         	lw	a0, 0x0(s1)
    1ae0: 55c6         	lw	a1, 0x70(sp)
    1ae2: 952e         	add	a0, a0, a1
    1ae4: 01a50023     	sb	s10, 0x0(a0)
    1ae8: 452e         	lw	a0, 0xc8(sp)
    1aea: 4104         	lw	s1, 0x0(a0)
    1aec: 4488         	lw	a0, 0x8(s1)
    1aee: 44cc         	lw	a1, 0xc(s1)
    1af0: 0ff47413     	zext.b	s0, s0
    1af4: 00a43533     	sltu	a0, s0, a0
    1af8: 00b035b3     	snez	a1, a1
    1afc: 8d4d         	or	a0, a0, a1
    1afe: e101         	bnez	a0, 0x1afe <w2c_aes_Cipher+0xb12>
    1b00: 00000097     	auipc	ra, 0x0
    1b04: 000080e7     	jalr	ra <w2c_aes_Cipher+0xb14>
    1b08: 4088         	lw	a0, 0x0(s1)
    1b0a: 9522         	add	a0, a0, s0
    1b0c: 00054b83     	lbu	s7, 0x0(a0)
    1b10: 452e         	lw	a0, 0xc8(sp)
    1b12: 4104         	lw	s1, 0x0(a0)
    1b14: 44c8         	lw	a0, 0xc(s1)
    1b16: 5586         	lw	a1, 0x60(sp)
    1b18: 00a59463     	bne	a1, a0, 0x1b20 <w2c_aes_Cipher+0xb34>
    1b1c: 4488         	lw	a0, 0x8(s1)
    1b1e: 55b2         	lw	a1, 0x2c(sp)
    1b20: 00b53533     	sltu	a0, a0, a1
    1b24: 4456         	lw	s0, 0x54(sp)
    1b26: c101         	beqz	a0, 0x1b26 <w2c_aes_Cipher+0xb3a>
    1b28: 00000097     	auipc	ra, 0x0
    1b2c: 000080e7     	jalr	ra <w2c_aes_Cipher+0xb3c>
    1b30: 4088         	lw	a0, 0x0(s1)
    1b32: 956e         	add	a0, a0, s11
    1b34: 017500a3     	sb	s7, 0x1(a0)
    1b38: 452e         	lw	a0, 0xc8(sp)
    1b3a: 4104         	lw	s1, 0x0(a0)
    1b3c: 4488         	lw	a0, 0x8(s1)
    1b3e: 44cc         	lw	a1, 0xc(s1)
    1b40: 0ff47413     	zext.b	s0, s0
    1b44: 00a43533     	sltu	a0, s0, a0
    1b48: 00b035b3     	snez	a1, a1
    1b4c: 8d4d         	or	a0, a0, a1
    1b4e: e101         	bnez	a0, 0x1b4e <w2c_aes_Cipher+0xb62>
    1b50: 00000097     	auipc	ra, 0x0
    1b54: 000080e7     	jalr	ra <w2c_aes_Cipher+0xb64>
    1b58: 4088         	lw	a0, 0x0(s1)
    1b5a: 9522         	add	a0, a0, s0
    1b5c: 00054403     	lbu	s0, 0x0(a0)
    1b60: 452e         	lw	a0, 0xc8(sp)
    1b62: 4104         	lw	s1, 0x0(a0)
    1b64: 44c8         	lw	a0, 0xc(s1)
    1b66: 558a         	lw	a1, 0xa0(sp)
    1b68: 00a59463     	bne	a1, a0, 0x1b70 <w2c_aes_Cipher+0xb84>
    1b6c: 4488         	lw	a0, 0x8(s1)
    1b6e: 55da         	lw	a1, 0xb4(sp)
    1b70: 00b53533     	sltu	a0, a0, a1
    1b74: 5972         	lw	s2, 0x3c(sp)
    1b76: c101         	beqz	a0, 0x1b76 <w2c_aes_Cipher+0xb8a>
    1b78: 00000097     	auipc	ra, 0x0
    1b7c: 000080e7     	jalr	ra <w2c_aes_Cipher+0xb8c>
    1b80: 4088         	lw	a0, 0x0(s1)
    1b82: 55ea         	lw	a1, 0xb8(sp)
    1b84: 952e         	add	a0, a0, a1
    1b86: de22         	sw	s0, 0x3c(sp)
    1b88: 00850023     	sb	s0, 0x0(a0)
    1b8c: 452e         	lw	a0, 0xc8(sp)
    1b8e: 4104         	lw	s1, 0x0(a0)
    1b90: 4488         	lw	a0, 0x8(s1)
    1b92: 44cc         	lw	a1, 0xc(s1)
    1b94: 0ff97413     	zext.b	s0, s2
    1b98: 00a43533     	sltu	a0, s0, a0
    1b9c: 00b035b3     	snez	a1, a1
    1ba0: 8d4d         	or	a0, a0, a1
    1ba2: e101         	bnez	a0, 0x1ba2 <w2c_aes_Cipher+0xbb6>
    1ba4: 00000097     	auipc	ra, 0x0
    1ba8: 000080e7     	jalr	ra <w2c_aes_Cipher+0xbb8>
    1bac: 4088         	lw	a0, 0x0(s1)
    1bae: 9522         	add	a0, a0, s0
    1bb0: 00054903     	lbu	s2, 0x0(a0)
    1bb4: 452e         	lw	a0, 0xc8(sp)
    1bb6: 4104         	lw	s1, 0x0(a0)
    1bb8: 44c8         	lw	a0, 0xc(s1)
    1bba: 00a98563     	beq	s3, a0, 0x1bc4 <w2c_aes_Cipher+0xbd8>
    1bbe: 01353533     	sltu	a0, a0, s3
    1bc2: a029         	j	0x1bcc <w2c_aes_Cipher+0xbe0>
    1bc4: 4488         	lw	a0, 0x8(s1)
    1bc6: 55d2         	lw	a1, 0x34(sp)
    1bc8: 00b53533     	sltu	a0, a0, a1
    1bcc: 59d6         	lw	s3, 0x74(sp)
    1bce: 4416         	lw	s0, 0x44(sp)
    1bd0: c101         	beqz	a0, 0x1bd0 <w2c_aes_Cipher+0xbe4>
    1bd2: 00000097     	auipc	ra, 0x0
    1bd6: 000080e7     	jalr	ra <w2c_aes_Cipher+0xbe6>
    1bda: 4088         	lw	a0, 0x0(s1)
    1bdc: 956e         	add	a0, a0, s11
    1bde: 01250123     	sb	s2, 0x2(a0)
    1be2: 452e         	lw	a0, 0xc8(sp)
    1be4: 4104         	lw	s1, 0x0(a0)
    1be6: 4488         	lw	a0, 0x8(s1)
    1be8: 44cc         	lw	a1, 0xc(s1)
    1bea: 0ff47413     	zext.b	s0, s0
    1bee: 00a43533     	sltu	a0, s0, a0
    1bf2: 00b035b3     	snez	a1, a1
    1bf6: 8d4d         	or	a0, a0, a1
    1bf8: e101         	bnez	a0, 0x1bf8 <w2c_aes_Cipher+0xc0c>
    1bfa: 00000097     	auipc	ra, 0x0
    1bfe: 000080e7     	jalr	ra <w2c_aes_Cipher+0xc0e>
    1c02: 4088         	lw	a0, 0x0(s1)
    1c04: 9522         	add	a0, a0, s0
    1c06: 00054403     	lbu	s0, 0x0(a0)
    1c0a: 452e         	lw	a0, 0xc8(sp)
    1c0c: 4104         	lw	s1, 0x0(a0)
    1c0e: 44c8         	lw	a0, 0xc(s1)
    1c10: 559a         	lw	a1, 0xa4(sp)
    1c12: 00a59463     	bne	a1, a0, 0x1c1a <w2c_aes_Cipher+0xc2e>
    1c16: 4488         	lw	a0, 0x8(s1)
    1c18: 55ba         	lw	a1, 0xac(sp)
    1c1a: 00b53533     	sltu	a0, a0, a1
    1c1e: c101         	beqz	a0, 0x1c1e <w2c_aes_Cipher+0xc32>
    1c20: 00000097     	auipc	ra, 0x0
    1c24: 000080e7     	jalr	ra <w2c_aes_Cipher+0xc34>
    1c28: 4088         	lw	a0, 0x0(s1)
    1c2a: 55ca         	lw	a1, 0xb0(sp)
    1c2c: 952e         	add	a0, a0, a1
    1c2e: caa2         	sw	s0, 0x54(sp)
    1c30: 00850023     	sb	s0, 0x0(a0)
    1c34: 452e         	lw	a0, 0xc8(sp)
    1c36: 4104         	lw	s1, 0x0(a0)
    1c38: 4488         	lw	a0, 0x8(s1)
    1c3a: 44cc         	lw	a1, 0xc(s1)
    1c3c: 0ffa7413     	zext.b	s0, s4
    1c40: 00a43533     	sltu	a0, s0, a0
    1c44: 00b035b3     	snez	a1, a1
    1c48: 8d4d         	or	a0, a0, a1
    1c4a: e101         	bnez	a0, 0x1c4a <w2c_aes_Cipher+0xc5e>
    1c4c: 00000097     	auipc	ra, 0x0
    1c50: 000080e7     	jalr	ra <w2c_aes_Cipher+0xc60>
    1c54: 4088         	lw	a0, 0x0(s1)
    1c56: 9522         	add	a0, a0, s0
    1c58: 00054c03     	lbu	s8, 0x0(a0)
    1c5c: 452e         	lw	a0, 0xc8(sp)
    1c5e: 4104         	lw	s1, 0x0(a0)
    1c60: 44c8         	lw	a0, 0xc(s1)
    1c62: 00a98763     	beq	s3, a0, 0x1c70 <w2c_aes_Cipher+0xc84>
    1c66: 01353533     	sltu	a0, a0, s3
    1c6a: 5462         	lw	s0, 0x38(sp)
    1c6c: e901         	bnez	a0, 0x1c7c <w2c_aes_Cipher+0xc90>
    1c6e: a001         	j	0x1c6e <w2c_aes_Cipher+0xc82>
    1c70: 4488         	lw	a0, 0x8(s1)
    1c72: 55fa         	lw	a1, 0xbc(sp)
    1c74: 00b53533     	sltu	a0, a0, a1
    1c78: 5462         	lw	s0, 0x38(sp)
    1c7a: c101         	beqz	a0, 0x1c7a <w2c_aes_Cipher+0xc8e>
    1c7c: 00000097     	auipc	ra, 0x0
    1c80: 000080e7     	jalr	ra <w2c_aes_Cipher+0xc90>
    1c84: 4088         	lw	a0, 0x0(s1)
    1c86: 458e         	lw	a1, 0xc0(sp)
    1c88: 952e         	add	a0, a0, a1
    1c8a: 01850023     	sb	s8, 0x0(a0)
    1c8e: 452e         	lw	a0, 0xc8(sp)
    1c90: 4104         	lw	s1, 0x0(a0)
    1c92: 4488         	lw	a0, 0x8(s1)
    1c94: 44cc         	lw	a1, 0xc(s1)
    1c96: 0ff47413     	zext.b	s0, s0
    1c9a: 00a43533     	sltu	a0, s0, a0
    1c9e: 00b035b3     	snez	a1, a1
    1ca2: 8d4d         	or	a0, a0, a1
    1ca4: e101         	bnez	a0, 0x1ca4 <w2c_aes_Cipher+0xcb8>
    1ca6: 00000097     	auipc	ra, 0x0
    1caa: 000080e7     	jalr	ra <w2c_aes_Cipher+0xcba>
    1cae: 4088         	lw	a0, 0x0(s1)
    1cb0: 9522         	add	a0, a0, s0
    1cb2: 00054403     	lbu	s0, 0x0(a0)
    1cb6: 452e         	lw	a0, 0xc8(sp)
    1cb8: 4104         	lw	s1, 0x0(a0)
    1cba: 44c8         	lw	a0, 0xc(s1)
    1cbc: 45f6         	lw	a1, 0x5c(sp)
    1cbe: 00a59463     	bne	a1, a0, 0x1cc6 <w2c_aes_Cipher+0xcda>
    1cc2: 4488         	lw	a0, 0x8(s1)
    1cc4: 55a2         	lw	a1, 0x28(sp)
    1cc6: 00b53533     	sltu	a0, a0, a1
    1cca: c101         	beqz	a0, 0x1cca <w2c_aes_Cipher+0xcde>
    1ccc: 00000097     	auipc	ra, 0x0
    1cd0: 000080e7     	jalr	ra <w2c_aes_Cipher+0xce0>
    1cd4: 4088         	lw	a0, 0x0(s1)
    1cd6: 55ba         	lw	a1, 0xac(sp)
    1cd8: 952e         	add	a0, a0, a1
    1cda: c4a2         	sw	s0, 0x48(sp)
    1cdc: 00850023     	sb	s0, 0x0(a0)
    1ce0: 452e         	lw	a0, 0xc8(sp)
    1ce2: 4104         	lw	s1, 0x0(a0)
    1ce4: 4488         	lw	a0, 0x8(s1)
    1ce6: 44cc         	lw	a1, 0xc(s1)
    1ce8: 0ffb7413     	zext.b	s0, s6
    1cec: 00a43533     	sltu	a0, s0, a0
    1cf0: 00b035b3     	snez	a1, a1
    1cf4: 8d4d         	or	a0, a0, a1
    1cf6: e101         	bnez	a0, 0x1cf6 <w2c_aes_Cipher+0xd0a>
    1cf8: 00000097     	auipc	ra, 0x0
    1cfc: 000080e7     	jalr	ra <w2c_aes_Cipher+0xd0c>
    1d00: 4088         	lw	a0, 0x0(s1)
    1d02: 9522         	add	a0, a0, s0
    1d04: 00054983     	lbu	s3, 0x0(a0)
    1d08: 452e         	lw	a0, 0xc8(sp)
    1d0a: 4104         	lw	s1, 0x0(a0)
    1d0c: 44c8         	lw	a0, 0xc(s1)
    1d0e: 45ea         	lw	a1, 0x98(sp)
    1d10: 00a59463     	bne	a1, a0, 0x1d18 <w2c_aes_Cipher+0xd2c>
    1d14: 4488         	lw	a0, 0x8(s1)
    1d16: 55c2         	lw	a1, 0x30(sp)
    1d18: 00b53533     	sltu	a0, a0, a1
    1d1c: 4436         	lw	s0, 0x4c(sp)
    1d1e: c101         	beqz	a0, 0x1d1e <w2c_aes_Cipher+0xd32>
    1d20: 00000097     	auipc	ra, 0x0
    1d24: 000080e7     	jalr	ra <w2c_aes_Cipher+0xd34>
    1d28: 4088         	lw	a0, 0x0(s1)
    1d2a: 956e         	add	a0, a0, s11
    1d2c: 013501a3     	sb	s3, 0x3(a0)
    1d30: 452e         	lw	a0, 0xc8(sp)
    1d32: 4104         	lw	s1, 0x0(a0)
    1d34: 4488         	lw	a0, 0x8(s1)
    1d36: 44cc         	lw	a1, 0xc(s1)
    1d38: 0ff47413     	zext.b	s0, s0
    1d3c: 00a43533     	sltu	a0, s0, a0
    1d40: 00b035b3     	snez	a1, a1
    1d44: 8d4d         	or	a0, a0, a1
    1d46: e101         	bnez	a0, 0x1d46 <w2c_aes_Cipher+0xd5a>
    1d48: 00000097     	auipc	ra, 0x0
    1d4c: 000080e7     	jalr	ra <w2c_aes_Cipher+0xd5c>
    1d50: 4088         	lw	a0, 0x0(s1)
    1d52: 9522         	add	a0, a0, s0
    1d54: 00054a03     	lbu	s4, 0x0(a0)
    1d58: 452e         	lw	a0, 0xc8(sp)
    1d5a: 4104         	lw	s1, 0x0(a0)
    1d5c: 44c8         	lw	a0, 0xc(s1)
    1d5e: 458a         	lw	a1, 0x80(sp)
    1d60: 00a59463     	bne	a1, a0, 0x1d68 <w2c_aes_Cipher+0xd7c>
    1d64: 4488         	lw	a0, 0x8(s1)
    1d66: 5592         	lw	a1, 0x24(sp)
    1d68: 00b53533     	sltu	a0, a0, a1
    1d6c: 4466         	lw	s0, 0x58(sp)
    1d6e: c101         	beqz	a0, 0x1d6e <w2c_aes_Cipher+0xd82>
    1d70: 00000097     	auipc	ra, 0x0
    1d74: 000080e7     	jalr	ra <w2c_aes_Cipher+0xd84>
    1d78: 4088         	lw	a0, 0x0(s1)
    1d7a: 55da         	lw	a1, 0xb4(sp)
    1d7c: 952e         	add	a0, a0, a1
    1d7e: 01450023     	sb	s4, 0x0(a0)
    1d82: 452e         	lw	a0, 0xc8(sp)
    1d84: 4104         	lw	s1, 0x0(a0)
    1d86: 4488         	lw	a0, 0x8(s1)
    1d88: 44cc         	lw	a1, 0xc(s1)
    1d8a: 0ff47413     	zext.b	s0, s0
    1d8e: 00a43533     	sltu	a0, s0, a0
    1d92: 00b035b3     	snez	a1, a1
    1d96: 8d4d         	or	a0, a0, a1
    1d98: e101         	bnez	a0, 0x1d98 <w2c_aes_Cipher+0xdac>
    1d9a: 00000097     	auipc	ra, 0x0
    1d9e: 000080e7     	jalr	ra <w2c_aes_Cipher+0xdae>
    1da2: 4088         	lw	a0, 0x0(s1)
    1da4: 9522         	add	a0, a0, s0
    1da6: 00054b03     	lbu	s6, 0x0(a0)
    1daa: 452e         	lw	a0, 0xc8(sp)
    1dac: 4104         	lw	s1, 0x0(a0)
    1dae: 44c8         	lw	a0, 0xc(s1)
    1db0: 55e6         	lw	a1, 0x78(sp)
    1db2: 00a59463     	bne	a1, a0, 0x1dba <w2c_aes_Cipher+0xdce>
    1db6: 4488         	lw	a0, 0x8(s1)
    1db8: 5582         	lw	a1, 0x20(sp)
    1dba: 00b53533     	sltu	a0, a0, a1
    1dbe: c101         	beqz	a0, 0x1dbe <w2c_aes_Cipher+0xdd2>
    1dc0: 00000097     	auipc	ra, 0x0
    1dc4: 000080e7     	jalr	ra <w2c_aes_Cipher+0xdd4>
    1dc8: 4088         	lw	a0, 0x0(s1)
    1dca: 55fa         	lw	a1, 0xbc(sp)
    1dcc: 952e         	add	a0, a0, a1
    1dce: 01650023     	sb	s6, 0x0(a0)
    1dd2: 552a         	lw	a0, 0xa8(sp)
    1dd4: 45a9         	li	a1, 0xa
    1dd6: 00b50063     	beq	a0, a1, 0x1dd6 <w2c_aes_Cipher+0xdea>
    1dda: 4481         	li	s1, 0x0
    1ddc: 4aae         	lw	s5, 0xc8(sp)
    1dde: a035         	j	0x1e0a <w2c_aes_Cipher+0xe1e>
    1de0: 001b1513     	slli	a0, s6, 0x1
    1de4: 0b62         	slli	s6, s6, 0x18
    1de6: 400c         	lw	a1, 0x0(s0)
    1de8: 01254533     	xor	a0, a0, s2
    1dec: 009d8633     	add	a2, s11, s1
    1df0: 41fb5693     	srai	a3, s6, 0x1f
    1df4: 8aed         	andi	a3, a3, 0x1b
    1df6: 01a54533     	xor	a0, a0, s10
    1dfa: 8d35         	xor	a0, a0, a3
    1dfc: 95b2         	add	a1, a1, a2
    1dfe: 0491         	addi	s1, s1, 0x4
    1e00: 00a58023     	sb	a0, 0x0(a1)
    1e04: 4541         	li	a0, 0x10
    1e06: 00a48063     	beq	s1, a0, 0x1e06 <w2c_aes_Cipher+0xe1a>
    1e0a: 000aa403     	lw	s0, 0x0(s5)
    1e0e: 4408         	lw	a0, 0x8(s0)
    1e10: 444c         	lw	a1, 0xc(s0)
    1e12: 009d8a33     	add	s4, s11, s1
    1e16: 003a0b13     	addi	s6, s4, 0x3
    1e1a: 00ab3533     	sltu	a0, s6, a0
    1e1e: 00b035b3     	snez	a1, a1
    1e22: 8d4d         	or	a0, a0, a1
    1e24: e101         	bnez	a0, 0x1e24 <w2c_aes_Cipher+0xe38>
    1e26: 00000097     	auipc	ra, 0x0
    1e2a: 000080e7     	jalr	ra <w2c_aes_Cipher+0xe3a>
    1e2e: 4008         	lw	a0, 0x0(s0)
    1e30: 009d85b3     	add	a1, s11, s1
    1e34: 952e         	add	a0, a0, a1
    1e36: 00354d83     	lbu	s11, 0x3(a0)
    1e3a: 000aa403     	lw	s0, 0x0(s5)
    1e3e: 4408         	lw	a0, 0x8(s0)
    1e40: 444c         	lw	a1, 0xc(s0)
    1e42: 00aa3533     	sltu	a0, s4, a0
    1e46: 00b035b3     	snez	a1, a1
    1e4a: 8d4d         	or	a0, a0, a1
    1e4c: e101         	bnez	a0, 0x1e4c <w2c_aes_Cipher+0xe60>
    1e4e: 00000097     	auipc	ra, 0x0
    1e52: 000080e7     	jalr	ra <w2c_aes_Cipher+0xe62>
    1e56: 4008         	lw	a0, 0x0(s0)
    1e58: 9552         	add	a0, a0, s4
    1e5a: 00054903     	lbu	s2, 0x0(a0)
    1e5e: 000aa403     	lw	s0, 0x0(s5)
    1e62: 4408         	lw	a0, 0x8(s0)
    1e64: 444c         	lw	a1, 0xc(s0)
    1e66: 002a0c93     	addi	s9, s4, 0x2
    1e6a: 00acb533     	sltu	a0, s9, a0
    1e6e: 00b035b3     	snez	a1, a1
    1e72: 8d4d         	or	a0, a0, a1
    1e74: e101         	bnez	a0, 0x1e74 <w2c_aes_Cipher+0xe88>
    1e76: 00000097     	auipc	ra, 0x0
    1e7a: 000080e7     	jalr	ra <w2c_aes_Cipher+0xe8a>
    1e7e: 4008         	lw	a0, 0x0(s0)
    1e80: 9552         	add	a0, a0, s4
    1e82: 00254983     	lbu	s3, 0x2(a0)
    1e86: 000aa403     	lw	s0, 0x0(s5)
    1e8a: 4408         	lw	a0, 0x8(s0)
    1e8c: 444c         	lw	a1, 0xc(s0)
    1e8e: 001a0c13     	addi	s8, s4, 0x1
    1e92: 00ac3533     	sltu	a0, s8, a0
    1e96: 00b035b3     	snez	a1, a1
    1e9a: 8d4d         	or	a0, a0, a1
    1e9c: e101         	bnez	a0, 0x1e9c <w2c_aes_Cipher+0xeb0>
    1e9e: 00000097     	auipc	ra, 0x0
    1ea2: 000080e7     	jalr	ra <w2c_aes_Cipher+0xeb2>
    1ea6: 4008         	lw	a0, 0x0(s0)
    1ea8: 459e         	lw	a1, 0xc4(sp)
    1eaa: 95a6         	add	a1, a1, s1
    1eac: 952e         	add	a0, a0, a1
    1eae: 00154b83     	lbu	s7, 0x1(a0)
    1eb2: 000aad03     	lw	s10, 0x0(s5)
    1eb6: 008d2503     	lw	a0, 0x8(s10)
    1eba: 00cd2583     	lw	a1, 0xc(s10)
    1ebe: 00ab3533     	sltu	a0, s6, a0
    1ec2: 00b035b3     	snez	a1, a1
    1ec6: 8d4d         	or	a0, a0, a1
    1ec8: e101         	bnez	a0, 0x1ec8 <w2c_aes_Cipher+0xedc>
    1eca: 00000097     	auipc	ra, 0x0
    1ece: 000080e7     	jalr	ra <w2c_aes_Cipher+0xede>
    1ed2: 01b94533     	xor	a0, s2, s11
    1ed6: 01b9cab3     	xor	s5, s3, s11
    1eda: 012bcb33     	xor	s6, s7, s2
    1ede: 000d2583     	lw	a1, 0x0(s10)
    1ee2: 461e         	lw	a2, 0xc4(sp)
    1ee4: 9626         	add	a2, a2, s1
    1ee6: 00151693     	slli	a3, a0, 0x1
    1eea: 0562         	slli	a0, a0, 0x18
    1eec: 01b6c6b3     	xor	a3, a3, s11
    1ef0: 015b4d33     	xor	s10, s6, s5
    1ef4: 857d         	srai	a0, a0, 0x1f
    1ef6: 896d         	andi	a0, a0, 0x1b
    1ef8: 01a6c6b3     	xor	a3, a3, s10
    1efc: 8d35         	xor	a0, a0, a3
    1efe: 95b2         	add	a1, a1, a2
    1f00: 00a581a3     	sb	a0, 0x3(a1)
    1f04: 452e         	lw	a0, 0xc8(sp)
    1f06: 4100         	lw	s0, 0x0(a0)
    1f08: 4408         	lw	a0, 0x8(s0)
    1f0a: 444c         	lw	a1, 0xc(s0)
    1f0c: 00acb533     	sltu	a0, s9, a0
    1f10: 00b035b3     	snez	a1, a1
    1f14: 8d4d         	or	a0, a0, a1
    1f16: e101         	bnez	a0, 0x1f16 <w2c_aes_Cipher+0xf2a>
    1f18: 00000097     	auipc	ra, 0x0
    1f1c: 000080e7     	jalr	ra <w2c_aes_Cipher+0xf2c>
    1f20: 001a9513     	slli	a0, s5, 0x1
    1f24: 0ae2         	slli	s5, s5, 0x18
    1f26: 400c         	lw	a1, 0x0(s0)
    1f28: 41fad613     	srai	a2, s5, 0x1f
    1f2c: 01354533     	xor	a0, a0, s3
    1f30: 8a6d         	andi	a2, a2, 0x1b
    1f32: 01a54533     	xor	a0, a0, s10
    1f36: 8d31         	xor	a0, a0, a2
    1f38: 4d9e         	lw	s11, 0xc4(sp)
    1f3a: 009d8633     	add	a2, s11, s1
    1f3e: 95b2         	add	a1, a1, a2
    1f40: 00a58123     	sb	a0, 0x2(a1)
    1f44: 4aae         	lw	s5, 0xc8(sp)
    1f46: 000aa403     	lw	s0, 0x0(s5)
    1f4a: 4408         	lw	a0, 0x8(s0)
    1f4c: 444c         	lw	a1, 0xc(s0)
    1f4e: 00ac3533     	sltu	a0, s8, a0
    1f52: 00b035b3     	snez	a1, a1
    1f56: 8d4d         	or	a0, a0, a1
    1f58: e101         	bnez	a0, 0x1f58 <w2c_aes_Cipher+0xf6c>
    1f5a: 00000097     	auipc	ra, 0x0
    1f5e: 000080e7     	jalr	ra <w2c_aes_Cipher+0xf6e>
    1f62: 013bc533     	xor	a0, s7, s3
    1f66: 400c         	lw	a1, 0x0(s0)
    1f68: 00151613     	slli	a2, a0, 0x1
    1f6c: 01764633     	xor	a2, a2, s7
    1f70: 009d86b3     	add	a3, s11, s1
    1f74: 0562         	slli	a0, a0, 0x18
    1f76: 857d         	srai	a0, a0, 0x1f
    1f78: 896d         	andi	a0, a0, 0x1b
    1f7a: 01a64633     	xor	a2, a2, s10
    1f7e: 8d31         	xor	a0, a0, a2
    1f80: 95b6         	add	a1, a1, a3
    1f82: 00a580a3     	sb	a0, 0x1(a1)
    1f86: 000aa403     	lw	s0, 0x0(s5)
    1f8a: 4408         	lw	a0, 0x8(s0)
    1f8c: 444c         	lw	a1, 0xc(s0)
    1f8e: 00aa3533     	sltu	a0, s4, a0
    1f92: 00b035b3     	snez	a1, a1
    1f96: 8d4d         	or	a0, a0, a1
    1f98: 00051063     	bnez	a0, 0x1f98 <w2c_aes_Cipher+0xfac>
    1f9c: 00000097     	auipc	ra, 0x0
    1fa0: 000080e7     	jalr	ra <w2c_aes_Cipher+0xfb0>
    1fa4: a001         	j	0x1fa4 <w2c_aes_Cipher+0xfb8>
    1fa6: 000aa403     	lw	s0, 0x0(s5)
    1faa: 4408         	lw	a0, 0x8(s0)
    1fac: 444c         	lw	a1, 0xc(s0)
    1fae: 00adb533     	sltu	a0, s11, a0
    1fb2: 00b035b3     	snez	a1, a1
    1fb6: 8d4d         	or	a0, a0, a1
    1fb8: e101         	bnez	a0, 0x1fb8 <w2c_aes_Cipher+0xfcc>
    1fba: 00000097     	auipc	ra, 0x0
    1fbe: 000080e7     	jalr	ra <w2c_aes_Cipher+0xfce>
    1fc2: 4008         	lw	a0, 0x0(s0)
    1fc4: 956e         	add	a0, a0, s11
    1fc6: 00054983     	lbu	s3, 0x0(a0)
    1fca: 000aa483     	lw	s1, 0x0(s5)
    1fce: 4488         	lw	a0, 0x8(s1)
    1fd0: 44cc         	lw	a1, 0xc(s1)
    1fd2: 5a2a         	lw	s4, 0xa8(sp)
    1fd4: 0a12         	slli	s4, s4, 0x4
    1fd6: 5916         	lw	s2, 0x64(sp)
    1fd8: 9952         	add	s2, s2, s4
    1fda: 00a93533     	sltu	a0, s2, a0
    1fde: 00b035b3     	snez	a1, a1
    1fe2: 8d4d         	or	a0, a0, a1
    1fe4: 5b06         	lw	s6, 0x60(sp)
    1fe6: e101         	bnez	a0, 0x1fe6 <w2c_aes_Cipher+0xffa>
    1fe8: 00000097     	auipc	ra, 0x0
    1fec: 000080e7     	jalr	ra <w2c_aes_Cipher+0xffc>
    1ff0: 4088         	lw	a0, 0x0(s1)
    1ff2: 954a         	add	a0, a0, s2
    1ff4: 00054483     	lbu	s1, 0x0(a0)
    1ff8: 000aa403     	lw	s0, 0x0(s5)
    1ffc: 4408         	lw	a0, 0x8(s0)
    1ffe: 444c         	lw	a1, 0xc(s0)
    2000: 00adb533     	sltu	a0, s11, a0
    2004: 00b035b3     	snez	a1, a1
    2008: 8d4d         	or	a0, a0, a1
    200a: e101         	bnez	a0, 0x200a <w2c_aes_Cipher+0x101e>
    200c: 00000097     	auipc	ra, 0x0
    2010: 000080e7     	jalr	ra <w2c_aes_Cipher+0x1020>
    2014: 4008         	lw	a0, 0x0(s0)
    2016: 0134cd33     	xor	s10, s1, s3
    201a: 956e         	add	a0, a0, s11
    201c: 01a50023     	sb	s10, 0x0(a0)
    2020: 000aa403     	lw	s0, 0x0(s5)
    2024: 4448         	lw	a0, 0xc(s0)
    2026: 00ab0663     	beq	s6, a0, 0x2032 <w2c_aes_Cipher+0x1046>
    202a: 01653533     	sltu	a0, a0, s6
    202e: e519         	bnez	a0, 0x203c <w2c_aes_Cipher+0x1050>
    2030: a001         	j	0x2030 <w2c_aes_Cipher+0x1044>
    2032: 4408         	lw	a0, 0x8(s0)
    2034: 55b2         	lw	a1, 0x2c(sp)
    2036: 00b53533     	sltu	a0, a0, a1
    203a: c101         	beqz	a0, 0x203a <w2c_aes_Cipher+0x104e>
    203c: 00000097     	auipc	ra, 0x0
    2040: 000080e7     	jalr	ra <w2c_aes_Cipher+0x1050>
    2044: 4008         	lw	a0, 0x0(s0)
    2046: 956e         	add	a0, a0, s11
    2048: 00154983     	lbu	s3, 0x1(a0)
    204c: 000aa403     	lw	s0, 0x0(s5)
    2050: 4408         	lw	a0, 0x8(s0)
    2052: 444c         	lw	a1, 0xc(s0)
    2054: 00190493     	addi	s1, s2, 0x1
    2058: 00a4b533     	sltu	a0, s1, a0
    205c: 00b035b3     	snez	a1, a1
    2060: 8d4d         	or	a0, a0, a1
    2062: e101         	bnez	a0, 0x2062 <w2c_aes_Cipher+0x1076>
    2064: 00000097     	auipc	ra, 0x0
    2068: 000080e7     	jalr	ra <w2c_aes_Cipher+0x1078>
    206c: 4008         	lw	a0, 0x0(s0)
    206e: 9526         	add	a0, a0, s1
    2070: 00054483     	lbu	s1, 0x0(a0)
    2074: 000aa403     	lw	s0, 0x0(s5)
    2078: 4448         	lw	a0, 0xc(s0)
    207a: 00ab0763     	beq	s6, a0, 0x2088 <w2c_aes_Cipher+0x109c>
    207e: 01653533     	sltu	a0, a0, s6
    2082: 5b46         	lw	s6, 0x70(sp)
    2084: e901         	bnez	a0, 0x2094 <w2c_aes_Cipher+0x10a8>
    2086: a001         	j	0x2086 <w2c_aes_Cipher+0x109a>
    2088: 4408         	lw	a0, 0x8(s0)
    208a: 55b2         	lw	a1, 0x2c(sp)
    208c: 00b53533     	sltu	a0, a0, a1
    2090: 5b46         	lw	s6, 0x70(sp)
    2092: c101         	beqz	a0, 0x2092 <w2c_aes_Cipher+0x10a6>
    2094: 00000097     	auipc	ra, 0x0
    2098: 000080e7     	jalr	ra <w2c_aes_Cipher+0x10a8>
    209c: 4008         	lw	a0, 0x0(s0)
    209e: 0134c5b3     	xor	a1, s1, s3
    20a2: 956e         	add	a0, a0, s11
    20a4: c8ae         	sw	a1, 0x50(sp)
    20a6: 00b500a3     	sb	a1, 0x1(a0)
    20aa: 000aa403     	lw	s0, 0x0(s5)
    20ae: 4448         	lw	a0, 0xc(s0)
    20b0: 45ba         	lw	a1, 0x8c(sp)
    20b2: 00a59463     	bne	a1, a0, 0x20ba <w2c_aes_Cipher+0x10ce>
    20b6: 4408         	lw	a0, 0x8(s0)
    20b8: 55d2         	lw	a1, 0x34(sp)
    20ba: 00b53533     	sltu	a0, a0, a1
    20be: c101         	beqz	a0, 0x20be <w2c_aes_Cipher+0x10d2>
    20c0: 00000097     	auipc	ra, 0x0
    20c4: 000080e7     	jalr	ra <w2c_aes_Cipher+0x10d4>
    20c8: 4008         	lw	a0, 0x0(s0)
    20ca: 956e         	add	a0, a0, s11
    20cc: 00254983     	lbu	s3, 0x2(a0)
    20d0: 000aa403     	lw	s0, 0x0(s5)
    20d4: 4408         	lw	a0, 0x8(s0)
    20d6: 444c         	lw	a1, 0xc(s0)
    20d8: 00290493     	addi	s1, s2, 0x2
    20dc: 00a4b533     	sltu	a0, s1, a0
    20e0: 00b035b3     	snez	a1, a1
    20e4: 8d4d         	or	a0, a0, a1
    20e6: e101         	bnez	a0, 0x20e6 <w2c_aes_Cipher+0x10fa>
    20e8: 00000097     	auipc	ra, 0x0
    20ec: 000080e7     	jalr	ra <w2c_aes_Cipher+0x10fc>
    20f0: 4008         	lw	a0, 0x0(s0)
    20f2: 9526         	add	a0, a0, s1
    20f4: 00054483     	lbu	s1, 0x0(a0)
    20f8: 000aa403     	lw	s0, 0x0(s5)
    20fc: 4448         	lw	a0, 0xc(s0)
    20fe: 45ba         	lw	a1, 0x8c(sp)
    2100: 00a59463     	bne	a1, a0, 0x2108 <w2c_aes_Cipher+0x111c>
    2104: 4408         	lw	a0, 0x8(s0)
    2106: 55d2         	lw	a1, 0x34(sp)
    2108: 00b53533     	sltu	a0, a0, a1
    210c: c101         	beqz	a0, 0x210c <w2c_aes_Cipher+0x1120>
    210e: 00000097     	auipc	ra, 0x0
    2112: 000080e7     	jalr	ra <w2c_aes_Cipher+0x1122>
    2116: 4008         	lw	a0, 0x0(s0)
    2118: 0134c5b3     	xor	a1, s1, s3
    211c: 956e         	add	a0, a0, s11
    211e: caae         	sw	a1, 0x54(sp)
    2120: 00b50123     	sb	a1, 0x2(a0)
    2124: 000aa403     	lw	s0, 0x0(s5)
    2128: 4448         	lw	a0, 0xc(s0)
    212a: 45ea         	lw	a1, 0x98(sp)
    212c: 00a59463     	bne	a1, a0, 0x2134 <w2c_aes_Cipher+0x1148>
    2130: 4408         	lw	a0, 0x8(s0)
    2132: 55c2         	lw	a1, 0x30(sp)
    2134: 00b53533     	sltu	a0, a0, a1
    2138: c101         	beqz	a0, 0x2138 <w2c_aes_Cipher+0x114c>
    213a: 00000097     	auipc	ra, 0x0
    213e: 000080e7     	jalr	ra <w2c_aes_Cipher+0x114e>
    2142: 4008         	lw	a0, 0x0(s0)
    2144: 956e         	add	a0, a0, s11
    2146: 00354983     	lbu	s3, 0x3(a0)
    214a: 000aa403     	lw	s0, 0x0(s5)
    214e: 4408         	lw	a0, 0x8(s0)
    2150: 444c         	lw	a1, 0xc(s0)
    2152: 090d         	addi	s2, s2, 0x3
    2154: 00a93533     	sltu	a0, s2, a0
    2158: 00b035b3     	snez	a1, a1
    215c: 8d4d         	or	a0, a0, a1
    215e: e101         	bnez	a0, 0x215e <w2c_aes_Cipher+0x1172>
    2160: 00000097     	auipc	ra, 0x0
    2164: 000080e7     	jalr	ra <w2c_aes_Cipher+0x1174>
    2168: 4008         	lw	a0, 0x0(s0)
    216a: 954a         	add	a0, a0, s2
    216c: 00054483     	lbu	s1, 0x0(a0)
    2170: 000aa403     	lw	s0, 0x0(s5)
    2174: 4448         	lw	a0, 0xc(s0)
    2176: 45ea         	lw	a1, 0x98(sp)
    2178: 00a59463     	bne	a1, a0, 0x2180 <w2c_aes_Cipher+0x1194>
    217c: 4408         	lw	a0, 0x8(s0)
    217e: 55c2         	lw	a1, 0x30(sp)
    2180: 00b53533     	sltu	a0, a0, a1
    2184: 492a         	lw	s2, 0x88(sp)
    2186: c101         	beqz	a0, 0x2186 <w2c_aes_Cipher+0x119a>
    2188: 00000097     	auipc	ra, 0x0
    218c: 000080e7     	jalr	ra <w2c_aes_Cipher+0x119c>
    2190: 4008         	lw	a0, 0x0(s0)
    2192: 0134c5b3     	xor	a1, s1, s3
    2196: 956e         	add	a0, a0, s11
    2198: ccae         	sw	a1, 0x58(sp)
    219a: 00b501a3     	sb	a1, 0x3(a0)
    219e: 000aa403     	lw	s0, 0x0(s5)
    21a2: 4448         	lw	a0, 0xc(s0)
    21a4: 00a90663     	beq	s2, a0, 0x21b0 <w2c_aes_Cipher+0x11c4>
    21a8: 01253533     	sltu	a0, a0, s2
    21ac: e511         	bnez	a0, 0x21b8 <w2c_aes_Cipher+0x11cc>
    21ae: a001         	j	0x21ae <w2c_aes_Cipher+0x11c2>
    21b0: 4408         	lw	a0, 0x8(s0)
    21b2: 01653533     	sltu	a0, a0, s6
    21b6: c101         	beqz	a0, 0x21b6 <w2c_aes_Cipher+0x11ca>
    21b8: 00000097     	auipc	ra, 0x0
    21bc: 000080e7     	jalr	ra <w2c_aes_Cipher+0x11cc>
    21c0: 4008         	lw	a0, 0x0(s0)
    21c2: 956e         	add	a0, a0, s11
    21c4: 00454983     	lbu	s3, 0x4(a0)
    21c8: 000aa403     	lw	s0, 0x0(s5)
    21cc: 4408         	lw	a0, 0x8(s0)
    21ce: 444c         	lw	a1, 0xc(s0)
    21d0: 4972         	lw	s2, 0x1c(sp)
    21d2: 9952         	add	s2, s2, s4
    21d4: 00a93533     	sltu	a0, s2, a0
    21d8: 00b035b3     	snez	a1, a1
    21dc: 8d4d         	or	a0, a0, a1
    21de: e101         	bnez	a0, 0x21de <w2c_aes_Cipher+0x11f2>
    21e0: 00000097     	auipc	ra, 0x0
    21e4: 000080e7     	jalr	ra <w2c_aes_Cipher+0x11f4>
    21e8: 4008         	lw	a0, 0x0(s0)
    21ea: 954a         	add	a0, a0, s2
    21ec: 00054483     	lbu	s1, 0x0(a0)
    21f0: 000aa403     	lw	s0, 0x0(s5)
    21f4: 4448         	lw	a0, 0xc(s0)
    21f6: 45aa         	lw	a1, 0x88(sp)
    21f8: 00a58763     	beq	a1, a0, 0x2206 <w2c_aes_Cipher+0x121a>
    21fc: 00b53533     	sltu	a0, a0, a1
    2200: 45fa         	lw	a1, 0x9c(sp)
    2202: e519         	bnez	a0, 0x2210 <w2c_aes_Cipher+0x1224>
    2204: a001         	j	0x2204 <w2c_aes_Cipher+0x1218>
    2206: 4408         	lw	a0, 0x8(s0)
    2208: 01653533     	sltu	a0, a0, s6
    220c: 45fa         	lw	a1, 0x9c(sp)
    220e: c101         	beqz	a0, 0x220e <w2c_aes_Cipher+0x1222>
    2210: 00000097     	auipc	ra, 0x0
    2214: 000080e7     	jalr	ra <w2c_aes_Cipher+0x1224>
    2218: 45fa         	lw	a1, 0x9c(sp)
    221a: 4008         	lw	a0, 0x0(s0)
    221c: 0134c633     	xor	a2, s1, s3
    2220: 956e         	add	a0, a0, s11
    2222: c0b2         	sw	a2, 0x40(sp)
    2224: 00c50223     	sb	a2, 0x4(a0)
    2228: 000aa403     	lw	s0, 0x0(s5)
    222c: 4448         	lw	a0, 0xc(s0)
    222e: 00a59463     	bne	a1, a0, 0x2236 <w2c_aes_Cipher+0x124a>
    2232: 4408         	lw	a0, 0x8(s0)
    2234: 458e         	lw	a1, 0xc0(sp)
    2236: 00b53533     	sltu	a0, a0, a1
    223a: c101         	beqz	a0, 0x223a <w2c_aes_Cipher+0x124e>
    223c: 00000097     	auipc	ra, 0x0
    2240: 000080e7     	jalr	ra <w2c_aes_Cipher+0x1250>
    2244: 4008         	lw	a0, 0x0(s0)
    2246: 955a         	add	a0, a0, s6
    2248: 00054983     	lbu	s3, 0x0(a0)
    224c: 000aa403     	lw	s0, 0x0(s5)
    2250: 4408         	lw	a0, 0x8(s0)
    2252: 444c         	lw	a1, 0xc(s0)
    2254: 00190493     	addi	s1, s2, 0x1
    2258: 00a4b533     	sltu	a0, s1, a0
    225c: 00b035b3     	snez	a1, a1
    2260: 8d4d         	or	a0, a0, a1
    2262: e101         	bnez	a0, 0x2262 <w2c_aes_Cipher+0x1276>
    2264: 00000097     	auipc	ra, 0x0
    2268: 000080e7     	jalr	ra <w2c_aes_Cipher+0x1278>
    226c: 4008         	lw	a0, 0x0(s0)
    226e: 9526         	add	a0, a0, s1
    2270: 00054483     	lbu	s1, 0x0(a0)
    2274: 000aa403     	lw	s0, 0x0(s5)
    2278: 4448         	lw	a0, 0xc(s0)
    227a: 45fa         	lw	a1, 0x9c(sp)
    227c: 00a59463     	bne	a1, a0, 0x2284 <w2c_aes_Cipher+0x1298>
    2280: 4408         	lw	a0, 0x8(s0)
    2282: 458e         	lw	a1, 0xc0(sp)
    2284: 00b53533     	sltu	a0, a0, a1
    2288: c101         	beqz	a0, 0x2288 <w2c_aes_Cipher+0x129c>
    228a: 00000097     	auipc	ra, 0x0
    228e: 000080e7     	jalr	ra <w2c_aes_Cipher+0x129e>
    2292: 4008         	lw	a0, 0x0(s0)
    2294: 0134c5b3     	xor	a1, s1, s3
    2298: 955a         	add	a0, a0, s6
    229a: c4ae         	sw	a1, 0x48(sp)
    229c: 00b50023     	sb	a1, 0x0(a0)
    22a0: 000aa403     	lw	s0, 0x0(s5)
    22a4: 4448         	lw	a0, 0xc(s0)
    22a6: 55d6         	lw	a1, 0x74(sp)
    22a8: 00a59463     	bne	a1, a0, 0x22b0 <w2c_aes_Cipher+0x12c4>
    22ac: 4408         	lw	a0, 0x8(s0)
    22ae: 55fa         	lw	a1, 0xbc(sp)
    22b0: 00b53533     	sltu	a0, a0, a1
    22b4: 5b36         	lw	s6, 0x6c(sp)
    22b6: c101         	beqz	a0, 0x22b6 <w2c_aes_Cipher+0x12ca>
    22b8: 00000097     	auipc	ra, 0x0
    22bc: 000080e7     	jalr	ra <w2c_aes_Cipher+0x12cc>
    22c0: 4008         	lw	a0, 0x0(s0)
    22c2: 458e         	lw	a1, 0xc0(sp)
    22c4: 952e         	add	a0, a0, a1
    22c6: 00054983     	lbu	s3, 0x0(a0)
    22ca: 000aa403     	lw	s0, 0x0(s5)
    22ce: 4408         	lw	a0, 0x8(s0)
    22d0: 444c         	lw	a1, 0xc(s0)
    22d2: 00290493     	addi	s1, s2, 0x2
    22d6: 00a4b533     	sltu	a0, s1, a0
    22da: 00b035b3     	snez	a1, a1
    22de: 8d4d         	or	a0, a0, a1
    22e0: e101         	bnez	a0, 0x22e0 <w2c_aes_Cipher+0x12f4>
    22e2: 00000097     	auipc	ra, 0x0
    22e6: 000080e7     	jalr	ra <w2c_aes_Cipher+0x12f6>
    22ea: 4008         	lw	a0, 0x0(s0)
    22ec: 9526         	add	a0, a0, s1
    22ee: 00054483     	lbu	s1, 0x0(a0)
    22f2: 000aa403     	lw	s0, 0x0(s5)
    22f6: 4448         	lw	a0, 0xc(s0)
    22f8: 55d6         	lw	a1, 0x74(sp)
    22fa: 00a59463     	bne	a1, a0, 0x2302 <w2c_aes_Cipher+0x1316>
    22fe: 4408         	lw	a0, 0x8(s0)
    2300: 55fa         	lw	a1, 0xbc(sp)
    2302: 00b53533     	sltu	a0, a0, a1
    2306: c101         	beqz	a0, 0x2306 <w2c_aes_Cipher+0x131a>
    2308: 00000097     	auipc	ra, 0x0
    230c: 000080e7     	jalr	ra <w2c_aes_Cipher+0x131c>
    2310: 4008         	lw	a0, 0x0(s0)
    2312: 0134c633     	xor	a2, s1, s3
    2316: 458e         	lw	a1, 0xc0(sp)
    2318: 952e         	add	a0, a0, a1
    231a: c2b2         	sw	a2, 0x44(sp)
    231c: 00c50023     	sb	a2, 0x0(a0)
    2320: 000aa403     	lw	s0, 0x0(s5)
    2324: 4448         	lw	a0, 0xc(s0)
    2326: 55e6         	lw	a1, 0x78(sp)
    2328: 00a59463     	bne	a1, a0, 0x2330 <w2c_aes_Cipher+0x1344>
    232c: 4408         	lw	a0, 0x8(s0)
    232e: 5582         	lw	a1, 0x20(sp)
    2330: 00b53533     	sltu	a0, a0, a1
    2334: c101         	beqz	a0, 0x2334 <w2c_aes_Cipher+0x1348>
    2336: 00000097     	auipc	ra, 0x0
    233a: 000080e7     	jalr	ra <w2c_aes_Cipher+0x134a>
    233e: 4008         	lw	a0, 0x0(s0)
    2340: 55fa         	lw	a1, 0xbc(sp)
    2342: 952e         	add	a0, a0, a1
    2344: 00054983     	lbu	s3, 0x0(a0)
    2348: 000aa403     	lw	s0, 0x0(s5)
    234c: 4408         	lw	a0, 0x8(s0)
    234e: 444c         	lw	a1, 0xc(s0)
    2350: 090d         	addi	s2, s2, 0x3
    2352: 00a93533     	sltu	a0, s2, a0
    2356: 00b035b3     	snez	a1, a1
    235a: 8d4d         	or	a0, a0, a1
    235c: e101         	bnez	a0, 0x235c <w2c_aes_Cipher+0x1370>
    235e: 00000097     	auipc	ra, 0x0
    2362: 000080e7     	jalr	ra <w2c_aes_Cipher+0x1372>
    2366: 4008         	lw	a0, 0x0(s0)
    2368: 954a         	add	a0, a0, s2
    236a: 00054483     	lbu	s1, 0x0(a0)
    236e: 000aa403     	lw	s0, 0x0(s5)
    2372: 4448         	lw	a0, 0xc(s0)
    2374: 55e6         	lw	a1, 0x78(sp)
    2376: 00a59463     	bne	a1, a0, 0x237e <w2c_aes_Cipher+0x1392>
    237a: 4408         	lw	a0, 0x8(s0)
    237c: 5582         	lw	a1, 0x20(sp)
    237e: 00b53533     	sltu	a0, a0, a1
    2382: c101         	beqz	a0, 0x2382 <w2c_aes_Cipher+0x1396>
    2384: 00000097     	auipc	ra, 0x0
    2388: 000080e7     	jalr	ra <w2c_aes_Cipher+0x1398>
    238c: 4008         	lw	a0, 0x0(s0)
    238e: 0134c633     	xor	a2, s1, s3
    2392: 55fa         	lw	a1, 0xbc(sp)
    2394: 952e         	add	a0, a0, a1
    2396: c6b2         	sw	a2, 0x4c(sp)
    2398: 00c50023     	sb	a2, 0x0(a0)
    239c: 000aa403     	lw	s0, 0x0(s5)
    23a0: 4448         	lw	a0, 0xc(s0)
    23a2: 45da         	lw	a1, 0x94(sp)
    23a4: 00a58663     	beq	a1, a0, 0x23b0 <w2c_aes_Cipher+0x13c4>
    23a8: 00b53533     	sltu	a0, a0, a1
    23ac: e511         	bnez	a0, 0x23b8 <w2c_aes_Cipher+0x13cc>
    23ae: a001         	j	0x23ae <w2c_aes_Cipher+0x13c2>
    23b0: 4408         	lw	a0, 0x8(s0)
    23b2: 01653533     	sltu	a0, a0, s6
    23b6: c101         	beqz	a0, 0x23b6 <w2c_aes_Cipher+0x13ca>
    23b8: 00000097     	auipc	ra, 0x0
    23bc: 000080e7     	jalr	ra <w2c_aes_Cipher+0x13cc>
    23c0: 4008         	lw	a0, 0x0(s0)
    23c2: 956e         	add	a0, a0, s11
    23c4: 00854983     	lbu	s3, 0x8(a0)
    23c8: 000aa403     	lw	s0, 0x0(s5)
    23cc: 4408         	lw	a0, 0x8(s0)
    23ce: 444c         	lw	a1, 0xc(s0)
    23d0: 4962         	lw	s2, 0x18(sp)
    23d2: 9952         	add	s2, s2, s4
    23d4: 00a93533     	sltu	a0, s2, a0
    23d8: 00b035b3     	snez	a1, a1
    23dc: 8d4d         	or	a0, a0, a1
    23de: e101         	bnez	a0, 0x23de <w2c_aes_Cipher+0x13f2>
    23e0: 00000097     	auipc	ra, 0x0
    23e4: 000080e7     	jalr	ra <w2c_aes_Cipher+0x13f4>
    23e8: 4008         	lw	a0, 0x0(s0)
    23ea: 954a         	add	a0, a0, s2
    23ec: 00054483     	lbu	s1, 0x0(a0)
    23f0: 000aa403     	lw	s0, 0x0(s5)
    23f4: 4448         	lw	a0, 0xc(s0)
    23f6: 45da         	lw	a1, 0x94(sp)
    23f8: 00a58663     	beq	a1, a0, 0x2404 <w2c_aes_Cipher+0x1418>
    23fc: 00b53533     	sltu	a0, a0, a1
    2400: e511         	bnez	a0, 0x240c <w2c_aes_Cipher+0x1420>
    2402: a001         	j	0x2402 <w2c_aes_Cipher+0x1416>
    2404: 4408         	lw	a0, 0x8(s0)
    2406: 01653533     	sltu	a0, a0, s6
    240a: c101         	beqz	a0, 0x240a <w2c_aes_Cipher+0x141e>
    240c: 00000097     	auipc	ra, 0x0
    2410: 000080e7     	jalr	ra <w2c_aes_Cipher+0x1420>
    2414: 4008         	lw	a0, 0x0(s0)
    2416: 0134c9b3     	xor	s3, s1, s3
    241a: 956e         	add	a0, a0, s11
    241c: 01350423     	sb	s3, 0x8(a0)
    2420: 000aa403     	lw	s0, 0x0(s5)
    2424: 4448         	lw	a0, 0xc(s0)
    2426: 55f6         	lw	a1, 0x7c(sp)
    2428: 00a59463     	bne	a1, a0, 0x2430 <w2c_aes_Cipher+0x1444>
    242c: 4408         	lw	a0, 0x8(s0)
    242e: 55ea         	lw	a1, 0xb8(sp)
    2430: 00b53533     	sltu	a0, a0, a1
    2434: c101         	beqz	a0, 0x2434 <w2c_aes_Cipher+0x1448>
    2436: 00000097     	auipc	ra, 0x0
    243a: 000080e7     	jalr	ra <w2c_aes_Cipher+0x144a>
    243e: 4008         	lw	a0, 0x0(s0)
    2440: 955a         	add	a0, a0, s6
    2442: 00054a83     	lbu	s5, 0x0(a0)
    2446: 452e         	lw	a0, 0xc8(sp)
    2448: 4100         	lw	s0, 0x0(a0)
    244a: 4408         	lw	a0, 0x8(s0)
    244c: 444c         	lw	a1, 0xc(s0)
    244e: 00190493     	addi	s1, s2, 0x1
    2452: 00a4b533     	sltu	a0, s1, a0
    2456: 00b035b3     	snez	a1, a1
    245a: 8d4d         	or	a0, a0, a1
    245c: e101         	bnez	a0, 0x245c <w2c_aes_Cipher+0x1470>
    245e: 00000097     	auipc	ra, 0x0
    2462: 000080e7     	jalr	ra <w2c_aes_Cipher+0x1472>
    2466: 4008         	lw	a0, 0x0(s0)
    2468: 9526         	add	a0, a0, s1
    246a: 00054483     	lbu	s1, 0x0(a0)
    246e: 452e         	lw	a0, 0xc8(sp)
    2470: 4100         	lw	s0, 0x0(a0)
    2472: 4448         	lw	a0, 0xc(s0)
    2474: 55f6         	lw	a1, 0x7c(sp)
    2476: 00a59463     	bne	a1, a0, 0x247e <w2c_aes_Cipher+0x1492>
    247a: 4408         	lw	a0, 0x8(s0)
    247c: 55ea         	lw	a1, 0xb8(sp)
    247e: 00b53533     	sltu	a0, a0, a1
    2482: 558a         	lw	a1, 0xa0(sp)
    2484: c101         	beqz	a0, 0x2484 <w2c_aes_Cipher+0x1498>
    2486: 00000097     	auipc	ra, 0x0
    248a: 000080e7     	jalr	ra <w2c_aes_Cipher+0x149a>
    248e: 558a         	lw	a1, 0xa0(sp)
    2490: 4008         	lw	a0, 0x0(s0)
    2492: 0154cc33     	xor	s8, s1, s5
    2496: 955a         	add	a0, a0, s6
    2498: 01850023     	sb	s8, 0x0(a0)
    249c: 452e         	lw	a0, 0xc8(sp)
    249e: 4100         	lw	s0, 0x0(a0)
    24a0: 4448         	lw	a0, 0xc(s0)
    24a2: 00a59463     	bne	a1, a0, 0x24aa <w2c_aes_Cipher+0x14be>
    24a6: 4408         	lw	a0, 0x8(s0)
    24a8: 55da         	lw	a1, 0xb4(sp)
    24aa: 00b53533     	sltu	a0, a0, a1
    24ae: 5b26         	lw	s6, 0x68(sp)
    24b0: c101         	beqz	a0, 0x24b0 <w2c_aes_Cipher+0x14c4>
    24b2: 00000097     	auipc	ra, 0x0
    24b6: 000080e7     	jalr	ra <w2c_aes_Cipher+0x14c6>
    24ba: 4008         	lw	a0, 0x0(s0)
    24bc: 55ea         	lw	a1, 0xb8(sp)
    24be: 952e         	add	a0, a0, a1
    24c0: 00054a83     	lbu	s5, 0x0(a0)
    24c4: 452e         	lw	a0, 0xc8(sp)
    24c6: 4100         	lw	s0, 0x0(a0)
    24c8: 4408         	lw	a0, 0x8(s0)
    24ca: 444c         	lw	a1, 0xc(s0)
    24cc: 00290493     	addi	s1, s2, 0x2
    24d0: 00a4b533     	sltu	a0, s1, a0
    24d4: 00b035b3     	snez	a1, a1
    24d8: 8d4d         	or	a0, a0, a1
    24da: e101         	bnez	a0, 0x24da <w2c_aes_Cipher+0x14ee>
    24dc: 00000097     	auipc	ra, 0x0
    24e0: 000080e7     	jalr	ra <w2c_aes_Cipher+0x14f0>
    24e4: 4008         	lw	a0, 0x0(s0)
    24e6: 9526         	add	a0, a0, s1
    24e8: 00054483     	lbu	s1, 0x0(a0)
    24ec: 452e         	lw	a0, 0xc8(sp)
    24ee: 4100         	lw	s0, 0x0(a0)
    24f0: 4448         	lw	a0, 0xc(s0)
    24f2: 558a         	lw	a1, 0xa0(sp)
    24f4: 00a59463     	bne	a1, a0, 0x24fc <w2c_aes_Cipher+0x1510>
    24f8: 4408         	lw	a0, 0x8(s0)
    24fa: 55da         	lw	a1, 0xb4(sp)
    24fc: 00b53533     	sltu	a0, a0, a1
    2500: c101         	beqz	a0, 0x2500 <w2c_aes_Cipher+0x1514>
    2502: 00000097     	auipc	ra, 0x0
    2506: 000080e7     	jalr	ra <w2c_aes_Cipher+0x1516>
    250a: 4008         	lw	a0, 0x0(s0)
    250c: 0154c633     	xor	a2, s1, s5
    2510: 55ea         	lw	a1, 0xb8(sp)
    2512: 952e         	add	a0, a0, a1
    2514: de32         	sw	a2, 0x3c(sp)
    2516: 00c50023     	sb	a2, 0x0(a0)
    251a: 452e         	lw	a0, 0xc8(sp)
    251c: 4100         	lw	s0, 0x0(a0)
    251e: 4448         	lw	a0, 0xc(s0)
    2520: 458a         	lw	a1, 0x80(sp)
    2522: 00a59463     	bne	a1, a0, 0x252a <w2c_aes_Cipher+0x153e>
    2526: 4408         	lw	a0, 0x8(s0)
    2528: 5592         	lw	a1, 0x24(sp)
    252a: 00b53533     	sltu	a0, a0, a1
    252e: c101         	beqz	a0, 0x252e <w2c_aes_Cipher+0x1542>
    2530: 00000097     	auipc	ra, 0x0
    2534: 000080e7     	jalr	ra <w2c_aes_Cipher+0x1544>
    2538: 4008         	lw	a0, 0x0(s0)
    253a: 55da         	lw	a1, 0xb4(sp)
    253c: 952e         	add	a0, a0, a1
    253e: 00054a83     	lbu	s5, 0x0(a0)
    2542: 452e         	lw	a0, 0xc8(sp)
    2544: 4100         	lw	s0, 0x0(a0)
    2546: 4408         	lw	a0, 0x8(s0)
    2548: 444c         	lw	a1, 0xc(s0)
    254a: 090d         	addi	s2, s2, 0x3
    254c: 00a93533     	sltu	a0, s2, a0
    2550: 00b035b3     	snez	a1, a1
    2554: 8d4d         	or	a0, a0, a1
    2556: e101         	bnez	a0, 0x2556 <w2c_aes_Cipher+0x156a>
    2558: 00000097     	auipc	ra, 0x0
    255c: 000080e7     	jalr	ra <w2c_aes_Cipher+0x156c>
    2560: 4008         	lw	a0, 0x0(s0)
    2562: 954a         	add	a0, a0, s2
    2564: 00054483     	lbu	s1, 0x0(a0)
    2568: 452e         	lw	a0, 0xc8(sp)
    256a: 4100         	lw	s0, 0x0(a0)
    256c: 4448         	lw	a0, 0xc(s0)
    256e: 458a         	lw	a1, 0x80(sp)
    2570: 00a59463     	bne	a1, a0, 0x2578 <w2c_aes_Cipher+0x158c>
    2574: 4408         	lw	a0, 0x8(s0)
    2576: 5592         	lw	a1, 0x24(sp)
    2578: 00b53533     	sltu	a0, a0, a1
    257c: c101         	beqz	a0, 0x257c <w2c_aes_Cipher+0x1590>
    257e: 00000097     	auipc	ra, 0x0
    2582: 000080e7     	jalr	ra <w2c_aes_Cipher+0x1592>
    2586: 4008         	lw	a0, 0x0(s0)
    2588: 0154c633     	xor	a2, s1, s5
    258c: 55da         	lw	a1, 0xb4(sp)
    258e: 952e         	add	a0, a0, a1
    2590: dc32         	sw	a2, 0x38(sp)
    2592: 00c50023     	sb	a2, 0x0(a0)
    2596: 452e         	lw	a0, 0xc8(sp)
    2598: 4100         	lw	s0, 0x0(a0)
    259a: 4448         	lw	a0, 0xc(s0)
    259c: 45ca         	lw	a1, 0x90(sp)
    259e: 00a58663     	beq	a1, a0, 0x25aa <w2c_aes_Cipher+0x15be>
    25a2: 00b53533     	sltu	a0, a0, a1
    25a6: e511         	bnez	a0, 0x25b2 <w2c_aes_Cipher+0x15c6>
    25a8: a001         	j	0x25a8 <w2c_aes_Cipher+0x15bc>
    25aa: 4408         	lw	a0, 0x8(s0)
    25ac: 01653533     	sltu	a0, a0, s6
    25b0: c101         	beqz	a0, 0x25b0 <w2c_aes_Cipher+0x15c4>
    25b2: 00000097     	auipc	ra, 0x0
    25b6: 000080e7     	jalr	ra <w2c_aes_Cipher+0x15c6>
    25ba: 4008         	lw	a0, 0x0(s0)
    25bc: 956e         	add	a0, a0, s11
    25be: 00c54a83     	lbu	s5, 0xc(a0)
    25c2: 452e         	lw	a0, 0xc8(sp)
    25c4: 4100         	lw	s0, 0x0(a0)
    25c6: 4408         	lw	a0, 0x8(s0)
    25c8: 444c         	lw	a1, 0xc(s0)
    25ca: 4952         	lw	s2, 0x14(sp)
    25cc: 9952         	add	s2, s2, s4
    25ce: 00a93533     	sltu	a0, s2, a0
    25d2: 00b035b3     	snez	a1, a1
    25d6: 8d4d         	or	a0, a0, a1
    25d8: e101         	bnez	a0, 0x25d8 <w2c_aes_Cipher+0x15ec>
    25da: 00000097     	auipc	ra, 0x0
    25de: 000080e7     	jalr	ra <w2c_aes_Cipher+0x15ee>
    25e2: 4008         	lw	a0, 0x0(s0)
    25e4: 954a         	add	a0, a0, s2
    25e6: 00054483     	lbu	s1, 0x0(a0)
    25ea: 452e         	lw	a0, 0xc8(sp)
    25ec: 4100         	lw	s0, 0x0(a0)
    25ee: 4448         	lw	a0, 0xc(s0)
    25f0: 45ca         	lw	a1, 0x90(sp)
    25f2: 00a58663     	beq	a1, a0, 0x25fe <w2c_aes_Cipher+0x1612>
    25f6: 00b53533     	sltu	a0, a0, a1
    25fa: e511         	bnez	a0, 0x2606 <w2c_aes_Cipher+0x161a>
    25fc: a001         	j	0x25fc <w2c_aes_Cipher+0x1610>
    25fe: 4408         	lw	a0, 0x8(s0)
    2600: 01653533     	sltu	a0, a0, s6
    2604: c101         	beqz	a0, 0x2604 <w2c_aes_Cipher+0x1618>
    2606: 00000097     	auipc	ra, 0x0
    260a: 000080e7     	jalr	ra <w2c_aes_Cipher+0x161a>
    260e: 4008         	lw	a0, 0x0(s0)
    2610: 0154ccb3     	xor	s9, s1, s5
    2614: 956e         	add	a0, a0, s11
    2616: 01950623     	sb	s9, 0xc(a0)
    261a: 4aae         	lw	s5, 0xc8(sp)
    261c: 000aa403     	lw	s0, 0x0(s5)
    2620: 4448         	lw	a0, 0xc(s0)
    2622: 459a         	lw	a1, 0x84(sp)
    2624: 00a59463     	bne	a1, a0, 0x262c <w2c_aes_Cipher+0x1640>
    2628: 4408         	lw	a0, 0x8(s0)
    262a: 55ca         	lw	a1, 0xb0(sp)
    262c: 00b53533     	sltu	a0, a0, a1
    2630: c101         	beqz	a0, 0x2630 <w2c_aes_Cipher+0x1644>
    2632: 00000097     	auipc	ra, 0x0
    2636: 000080e7     	jalr	ra <w2c_aes_Cipher+0x1646>
    263a: 4008         	lw	a0, 0x0(s0)
    263c: 955a         	add	a0, a0, s6
    263e: 00054a03     	lbu	s4, 0x0(a0)
    2642: 000aa403     	lw	s0, 0x0(s5)
    2646: 4408         	lw	a0, 0x8(s0)
    2648: 444c         	lw	a1, 0xc(s0)
    264a: 00190493     	addi	s1, s2, 0x1
    264e: 00a4b533     	sltu	a0, s1, a0
    2652: 00b035b3     	snez	a1, a1
    2656: 8d4d         	or	a0, a0, a1
    2658: e101         	bnez	a0, 0x2658 <w2c_aes_Cipher+0x166c>
    265a: 00000097     	auipc	ra, 0x0
    265e: 000080e7     	jalr	ra <w2c_aes_Cipher+0x166e>
    2662: 4008         	lw	a0, 0x0(s0)
    2664: 9526         	add	a0, a0, s1
    2666: 00054483     	lbu	s1, 0x0(a0)
    266a: 000aa403     	lw	s0, 0x0(s5)
    266e: 4448         	lw	a0, 0xc(s0)
    2670: 459a         	lw	a1, 0x84(sp)
    2672: 00a59463     	bne	a1, a0, 0x267a <w2c_aes_Cipher+0x168e>
    2676: 4408         	lw	a0, 0x8(s0)
    2678: 55ca         	lw	a1, 0xb0(sp)
    267a: 00b53533     	sltu	a0, a0, a1
    267e: 559a         	lw	a1, 0xa4(sp)
    2680: c101         	beqz	a0, 0x2680 <w2c_aes_Cipher+0x1694>
    2682: 00000097     	auipc	ra, 0x0
    2686: 000080e7     	jalr	ra <w2c_aes_Cipher+0x1696>
    268a: 559a         	lw	a1, 0xa4(sp)
    268c: 4008         	lw	a0, 0x0(s0)
    268e: 0144cbb3     	xor	s7, s1, s4
    2692: 955a         	add	a0, a0, s6
    2694: 01750023     	sb	s7, 0x0(a0)
    2698: 000aa403     	lw	s0, 0x0(s5)
    269c: 4448         	lw	a0, 0xc(s0)
    269e: 00a59463     	bne	a1, a0, 0x26a6 <w2c_aes_Cipher+0x16ba>
    26a2: 4408         	lw	a0, 0x8(s0)
    26a4: 55ba         	lw	a1, 0xac(sp)
    26a6: 00b53533     	sltu	a0, a0, a1
    26aa: 4b76         	lw	s6, 0x5c(sp)
    26ac: c101         	beqz	a0, 0x26ac <w2c_aes_Cipher+0x16c0>
    26ae: 00000097     	auipc	ra, 0x0
    26b2: 000080e7     	jalr	ra <w2c_aes_Cipher+0x16c2>
    26b6: 4008         	lw	a0, 0x0(s0)
    26b8: 55ca         	lw	a1, 0xb0(sp)
    26ba: 952e         	add	a0, a0, a1
    26bc: 00054a03     	lbu	s4, 0x0(a0)
    26c0: 000aa403     	lw	s0, 0x0(s5)
    26c4: 4408         	lw	a0, 0x8(s0)
    26c6: 444c         	lw	a1, 0xc(s0)
    26c8: 00290493     	addi	s1, s2, 0x2
    26cc: 00a4b533     	sltu	a0, s1, a0
    26d0: 00b035b3     	snez	a1, a1
    26d4: 8d4d         	or	a0, a0, a1
    26d6: e101         	bnez	a0, 0x26d6 <w2c_aes_Cipher+0x16ea>
    26d8: 00000097     	auipc	ra, 0x0
    26dc: 000080e7     	jalr	ra <w2c_aes_Cipher+0x16ec>
    26e0: 4008         	lw	a0, 0x0(s0)
    26e2: 9526         	add	a0, a0, s1
    26e4: 00054483     	lbu	s1, 0x0(a0)
    26e8: 000aa403     	lw	s0, 0x0(s5)
    26ec: 4448         	lw	a0, 0xc(s0)
    26ee: 559a         	lw	a1, 0xa4(sp)
    26f0: 00a59463     	bne	a1, a0, 0x26f8 <w2c_aes_Cipher+0x170c>
    26f4: 4408         	lw	a0, 0x8(s0)
    26f6: 55ba         	lw	a1, 0xac(sp)
    26f8: 00b53533     	sltu	a0, a0, a1
    26fc: c101         	beqz	a0, 0x26fc <w2c_aes_Cipher+0x1710>
    26fe: 00000097     	auipc	ra, 0x0
    2702: 000080e7     	jalr	ra <w2c_aes_Cipher+0x1712>
    2706: 4008         	lw	a0, 0x0(s0)
    2708: 0144ca33     	xor	s4, s1, s4
    270c: 55ca         	lw	a1, 0xb0(sp)
    270e: 952e         	add	a0, a0, a1
    2710: 01450023     	sb	s4, 0x0(a0)
    2714: 000aa403     	lw	s0, 0x0(s5)
    2718: 4448         	lw	a0, 0xc(s0)
    271a: 00ab0663     	beq	s6, a0, 0x2726 <w2c_aes_Cipher+0x173a>
    271e: 01653533     	sltu	a0, a0, s6
    2722: e519         	bnez	a0, 0x2730 <w2c_aes_Cipher+0x1744>
    2724: a001         	j	0x2724 <w2c_aes_Cipher+0x1738>
    2726: 4408         	lw	a0, 0x8(s0)
    2728: 55a2         	lw	a1, 0x28(sp)
    272a: 00b53533     	sltu	a0, a0, a1
    272e: c101         	beqz	a0, 0x272e <w2c_aes_Cipher+0x1742>
    2730: 00000097     	auipc	ra, 0x0
    2734: 000080e7     	jalr	ra <w2c_aes_Cipher+0x1744>
    2738: 4008         	lw	a0, 0x0(s0)
    273a: 55ba         	lw	a1, 0xac(sp)
    273c: 952e         	add	a0, a0, a1
    273e: 00054a83     	lbu	s5, 0x0(a0)
    2742: 452e         	lw	a0, 0xc8(sp)
    2744: 4100         	lw	s0, 0x0(a0)
    2746: 4408         	lw	a0, 0x8(s0)
    2748: 444c         	lw	a1, 0xc(s0)
    274a: 090d         	addi	s2, s2, 0x3
    274c: 00a93533     	sltu	a0, s2, a0
    2750: 00b035b3     	snez	a1, a1
    2754: 8d4d         	or	a0, a0, a1
    2756: e101         	bnez	a0, 0x2756 <w2c_aes_Cipher+0x176a>
    2758: 00000097     	auipc	ra, 0x0
    275c: 000080e7     	jalr	ra <w2c_aes_Cipher+0x176c>
    2760: 4008         	lw	a0, 0x0(s0)
    2762: 954a         	add	a0, a0, s2
    2764: 00054483     	lbu	s1, 0x0(a0)
    2768: 452e         	lw	a0, 0xc8(sp)
    276a: 4100         	lw	s0, 0x0(a0)
    276c: 4448         	lw	a0, 0xc(s0)
    276e: 00ab0863     	beq	s6, a0, 0x277e <w2c_aes_Cipher+0x1792>
    2772: 01653533     	sltu	a0, a0, s6
    2776: 492a         	lw	s2, 0x88(sp)
    2778: 00050063     	beqz	a0, 0x2778 <w2c_aes_Cipher+0x178c>
    277c: a801         	j	0x278c <w2c_aes_Cipher+0x17a0>
    277e: 4408         	lw	a0, 0x8(s0)
    2780: 55a2         	lw	a1, 0x28(sp)
    2782: 00b53533     	sltu	a0, a0, a1
    2786: 492a         	lw	s2, 0x88(sp)
    2788: 00050063     	beqz	a0, 0x2788 <w2c_aes_Cipher+0x179c>
    278c: 00000097     	auipc	ra, 0x0
    2790: 000080e7     	jalr	ra <w2c_aes_Cipher+0x17a0>
    2794: 0000006f     	j	0x2794 <w2c_aes_Cipher+0x17a8>
    2798: 452e         	lw	a0, 0xc8(sp)
    279a: 4104         	lw	s1, 0x0(a0)
    279c: 4488         	lw	a0, 0x8(s1)
    279e: 44cc         	lw	a1, 0xc(s1)
    27a0: 5616         	lw	a2, 0x64(sp)
    27a2: 0a060413     	addi	s0, a2, 0xa0
    27a6: 00a43533     	sltu	a0, s0, a0
    27aa: 00b035b3     	snez	a1, a1
    27ae: 8d4d         	or	a0, a0, a1
    27b0: e101         	bnez	a0, 0x27b0 <w2c_aes_Cipher+0x17c4>
    27b2: 00000097     	auipc	ra, 0x0
    27b6: 000080e7     	jalr	ra <w2c_aes_Cipher+0x17c6>
    27ba: 4088         	lw	a0, 0x0(s1)
    27bc: 9522         	add	a0, a0, s0
    27be: 00054503     	lbu	a0, 0x0(a0)
    27c2: 45ae         	lw	a1, 0xc8(sp)
    27c4: 4184         	lw	s1, 0x0(a1)
    27c6: 448c         	lw	a1, 0x8(s1)
    27c8: 44d0         	lw	a2, 0xc(s1)
    27ca: 00bdb5b3     	sltu	a1, s11, a1
    27ce: 00c03633     	snez	a2, a2
    27d2: 8dd1         	or	a1, a1, a2
    27d4: 01954433     	xor	s0, a0, s9
    27d8: e181         	bnez	a1, 0x27d8 <w2c_aes_Cipher+0x17ec>
    27da: 00000097     	auipc	ra, 0x0
    27de: 000080e7     	jalr	ra <w2c_aes_Cipher+0x17ee>
    27e2: 4088         	lw	a0, 0x0(s1)
    27e4: 956e         	add	a0, a0, s11
    27e6: 00850023     	sb	s0, 0x0(a0)
    27ea: 452e         	lw	a0, 0xc8(sp)
    27ec: 4104         	lw	s1, 0x0(a0)
    27ee: 4488         	lw	a0, 0x8(s1)
    27f0: 44cc         	lw	a1, 0xc(s1)
    27f2: 5616         	lw	a2, 0x64(sp)
    27f4: 0a160413     	addi	s0, a2, 0xa1
    27f8: 00a43533     	sltu	a0, s0, a0
    27fc: 00b035b3     	snez	a1, a1
    2800: 8d4d         	or	a0, a0, a1
    2802: e101         	bnez	a0, 0x2802 <w2c_aes_Cipher+0x1816>
    2804: 00000097     	auipc	ra, 0x0
    2808: 000080e7     	jalr	ra <w2c_aes_Cipher+0x1818>
    280c: 4088         	lw	a0, 0x0(s1)
    280e: 9522         	add	a0, a0, s0
    2810: 00054503     	lbu	a0, 0x0(a0)
    2814: 45ae         	lw	a1, 0xc8(sp)
    2816: 4184         	lw	s1, 0x0(a1)
    2818: 44cc         	lw	a1, 0xc(s1)
    281a: 5606         	lw	a2, 0x60(sp)
    281c: 00b61463     	bne	a2, a1, 0x2824 <w2c_aes_Cipher+0x1838>
    2820: 448c         	lw	a1, 0x8(s1)
    2822: 5632         	lw	a2, 0x2c(sp)
    2824: 00c5b5b3     	sltu	a1, a1, a2
    2828: 01754433     	xor	s0, a0, s7
    282c: c181         	beqz	a1, 0x282c <w2c_aes_Cipher+0x1840>
    282e: 00000097     	auipc	ra, 0x0
    2832: 000080e7     	jalr	ra <w2c_aes_Cipher+0x1842>
    2836: 4088         	lw	a0, 0x0(s1)
    2838: 956e         	add	a0, a0, s11
    283a: 008500a3     	sb	s0, 0x1(a0)
    283e: 452e         	lw	a0, 0xc8(sp)
    2840: 4104         	lw	s1, 0x0(a0)
    2842: 4488         	lw	a0, 0x8(s1)
    2844: 44cc         	lw	a1, 0xc(s1)
    2846: 5616         	lw	a2, 0x64(sp)
    2848: 0a260413     	addi	s0, a2, 0xa2
    284c: 00a43533     	sltu	a0, s0, a0
    2850: 00b035b3     	snez	a1, a1
    2854: 8d4d         	or	a0, a0, a1
    2856: e101         	bnez	a0, 0x2856 <w2c_aes_Cipher+0x186a>
    2858: 00000097     	auipc	ra, 0x0
    285c: 000080e7     	jalr	ra <w2c_aes_Cipher+0x186c>
    2860: 4088         	lw	a0, 0x0(s1)
    2862: 9522         	add	a0, a0, s0
    2864: 00054503     	lbu	a0, 0x0(a0)
    2868: 45ae         	lw	a1, 0xc8(sp)
    286a: 4184         	lw	s1, 0x0(a1)
    286c: 44cc         	lw	a1, 0xc(s1)
    286e: 463a         	lw	a2, 0x8c(sp)
    2870: 00b61463     	bne	a2, a1, 0x2878 <w2c_aes_Cipher+0x188c>
    2874: 448c         	lw	a1, 0x8(s1)
    2876: 5652         	lw	a2, 0x34(sp)
    2878: 00c5b5b3     	sltu	a1, a1, a2
    287c: 01254433     	xor	s0, a0, s2
    2880: c181         	beqz	a1, 0x2880 <w2c_aes_Cipher+0x1894>
    2882: 00000097     	auipc	ra, 0x0
    2886: 000080e7     	jalr	ra <w2c_aes_Cipher+0x1896>
    288a: 4088         	lw	a0, 0x0(s1)
    288c: 956e         	add	a0, a0, s11
    288e: 00850123     	sb	s0, 0x2(a0)
    2892: 452e         	lw	a0, 0xc8(sp)
    2894: 4104         	lw	s1, 0x0(a0)
    2896: 4488         	lw	a0, 0x8(s1)
    2898: 44cc         	lw	a1, 0xc(s1)
    289a: 5616         	lw	a2, 0x64(sp)
    289c: 0a360413     	addi	s0, a2, 0xa3
    28a0: 00a43533     	sltu	a0, s0, a0
    28a4: 00b035b3     	snez	a1, a1
    28a8: 8d4d         	or	a0, a0, a1
    28aa: 492a         	lw	s2, 0x88(sp)
    28ac: e101         	bnez	a0, 0x28ac <w2c_aes_Cipher+0x18c0>
    28ae: 00000097     	auipc	ra, 0x0
    28b2: 000080e7     	jalr	ra <w2c_aes_Cipher+0x18c2>
    28b6: 4088         	lw	a0, 0x0(s1)
    28b8: 9522         	add	a0, a0, s0
    28ba: 00054503     	lbu	a0, 0x0(a0)
    28be: 45ae         	lw	a1, 0xc8(sp)
    28c0: 4184         	lw	s1, 0x0(a1)
    28c2: 44cc         	lw	a1, 0xc(s1)
    28c4: 466a         	lw	a2, 0x98(sp)
    28c6: 00b61463     	bne	a2, a1, 0x28ce <w2c_aes_Cipher+0x18e2>
    28ca: 448c         	lw	a1, 0x8(s1)
    28cc: 5642         	lw	a2, 0x30(sp)
    28ce: 00c5b5b3     	sltu	a1, a1, a2
    28d2: 01354433     	xor	s0, a0, s3
    28d6: c181         	beqz	a1, 0x28d6 <w2c_aes_Cipher+0x18ea>
    28d8: 00000097     	auipc	ra, 0x0
    28dc: 000080e7     	jalr	ra <w2c_aes_Cipher+0x18ec>
    28e0: 4088         	lw	a0, 0x0(s1)
    28e2: 956e         	add	a0, a0, s11
    28e4: 008501a3     	sb	s0, 0x3(a0)
    28e8: 452e         	lw	a0, 0xc8(sp)
    28ea: 4104         	lw	s1, 0x0(a0)
    28ec: 4488         	lw	a0, 0x8(s1)
    28ee: 44cc         	lw	a1, 0xc(s1)
    28f0: 5616         	lw	a2, 0x64(sp)
    28f2: 0a460413     	addi	s0, a2, 0xa4
    28f6: 00a43533     	sltu	a0, s0, a0
    28fa: 00b035b3     	snez	a1, a1
    28fe: 8d4d         	or	a0, a0, a1
    2900: 59d6         	lw	s3, 0x74(sp)
    2902: e101         	bnez	a0, 0x2902 <w2c_aes_Cipher+0x1916>
    2904: 00000097     	auipc	ra, 0x0
    2908: 000080e7     	jalr	ra <w2c_aes_Cipher+0x1918>
    290c: 4088         	lw	a0, 0x0(s1)
    290e: 9522         	add	a0, a0, s0
    2910: 00054503     	lbu	a0, 0x0(a0)
    2914: 45ae         	lw	a1, 0xc8(sp)
    2916: 4184         	lw	s1, 0x0(a1)
    2918: 44cc         	lw	a1, 0xc(s1)
    291a: 00b90863     	beq	s2, a1, 0x292a <w2c_aes_Cipher+0x193e>
    291e: 0125b5b3     	sltu	a1, a1, s2
    2922: 01554433     	xor	s0, a0, s5
    2926: e989         	bnez	a1, 0x2938 <w2c_aes_Cipher+0x194c>
    2928: a001         	j	0x2928 <w2c_aes_Cipher+0x193c>
    292a: 448c         	lw	a1, 0x8(s1)
    292c: 5646         	lw	a2, 0x70(sp)
    292e: 00c5b5b3     	sltu	a1, a1, a2
    2932: 01554433     	xor	s0, a0, s5
    2936: c181         	beqz	a1, 0x2936 <w2c_aes_Cipher+0x194a>
    2938: 00000097     	auipc	ra, 0x0
    293c: 000080e7     	jalr	ra <w2c_aes_Cipher+0x194c>
    2940: 4088         	lw	a0, 0x0(s1)
    2942: 956e         	add	a0, a0, s11
    2944: 00850223     	sb	s0, 0x4(a0)
    2948: 492e         	lw	s2, 0xc8(sp)
    294a: 00092483     	lw	s1, 0x0(s2)
    294e: 4488         	lw	a0, 0x8(s1)
    2950: 44cc         	lw	a1, 0xc(s1)
    2952: 5616         	lw	a2, 0x64(sp)
    2954: 0a560413     	addi	s0, a2, 0xa5
    2958: 00a43533     	sltu	a0, s0, a0
    295c: 00b035b3     	snez	a1, a1
    2960: 8d4d         	or	a0, a0, a1
    2962: e101         	bnez	a0, 0x2962 <w2c_aes_Cipher+0x1976>
    2964: 00000097     	auipc	ra, 0x0
    2968: 000080e7     	jalr	ra <w2c_aes_Cipher+0x1978>
    296c: 4088         	lw	a0, 0x0(s1)
    296e: 9522         	add	a0, a0, s0
    2970: 00054503     	lbu	a0, 0x0(a0)
    2974: 00092483     	lw	s1, 0x0(s2)
    2978: 44cc         	lw	a1, 0xc(s1)
    297a: 467a         	lw	a2, 0x9c(sp)
    297c: 00b61463     	bne	a2, a1, 0x2984 <w2c_aes_Cipher+0x1998>
    2980: 448c         	lw	a1, 0x8(s1)
    2982: 460e         	lw	a2, 0xc0(sp)
    2984: 00c5b5b3     	sltu	a1, a1, a2
    2988: 01a54433     	xor	s0, a0, s10
    298c: c181         	beqz	a1, 0x298c <w2c_aes_Cipher+0x19a0>
    298e: 00000097     	auipc	ra, 0x0
    2992: 000080e7     	jalr	ra <w2c_aes_Cipher+0x19a2>
    2996: 4088         	lw	a0, 0x0(s1)
    2998: 55c6         	lw	a1, 0x70(sp)
    299a: 952e         	add	a0, a0, a1
    299c: 00850023     	sb	s0, 0x0(a0)
    29a0: 00092403     	lw	s0, 0x0(s2)
    29a4: 4408         	lw	a0, 0x8(s0)
    29a6: 444c         	lw	a1, 0xc(s0)
    29a8: 5616         	lw	a2, 0x64(sp)
    29aa: 0a660493     	addi	s1, a2, 0xa6
    29ae: 00a4b533     	sltu	a0, s1, a0
    29b2: 00b035b3     	snez	a1, a1
    29b6: 8d4d         	or	a0, a0, a1
    29b8: e101         	bnez	a0, 0x29b8 <w2c_aes_Cipher+0x19cc>
    29ba: 00000097     	auipc	ra, 0x0
    29be: 000080e7     	jalr	ra <w2c_aes_Cipher+0x19ce>
    29c2: 4008         	lw	a0, 0x0(s0)
    29c4: 9526         	add	a0, a0, s1
    29c6: 00054503     	lbu	a0, 0x0(a0)
    29ca: 00092403     	lw	s0, 0x0(s2)
    29ce: 444c         	lw	a1, 0xc(s0)
    29d0: 00b98863     	beq	s3, a1, 0x29e0 <w2c_aes_Cipher+0x19f4>
    29d4: 0135b5b3     	sltu	a1, a1, s3
    29d8: 018544b3     	xor	s1, a0, s8
    29dc: e989         	bnez	a1, 0x29ee <w2c_aes_Cipher+0x1a02>
    29de: a001         	j	0x29de <w2c_aes_Cipher+0x19f2>
    29e0: 440c         	lw	a1, 0x8(s0)
    29e2: 567a         	lw	a2, 0xbc(sp)
    29e4: 00c5b5b3     	sltu	a1, a1, a2
    29e8: 018544b3     	xor	s1, a0, s8
    29ec: c181         	beqz	a1, 0x29ec <w2c_aes_Cipher+0x1a00>
    29ee: 00000097     	auipc	ra, 0x0
    29f2: 000080e7     	jalr	ra <w2c_aes_Cipher+0x1a02>
    29f6: 4008         	lw	a0, 0x0(s0)
    29f8: 458e         	lw	a1, 0xc0(sp)
    29fa: 952e         	add	a0, a0, a1
    29fc: 00950023     	sb	s1, 0x0(a0)
    2a00: 00092403     	lw	s0, 0x0(s2)
    2a04: 4408         	lw	a0, 0x8(s0)
    2a06: 444c         	lw	a1, 0xc(s0)
    2a08: 5616         	lw	a2, 0x64(sp)
    2a0a: 0a760493     	addi	s1, a2, 0xa7
    2a0e: 00a4b533     	sltu	a0, s1, a0
    2a12: 00b035b3     	snez	a1, a1
    2a16: 8d4d         	or	a0, a0, a1
    2a18: e101         	bnez	a0, 0x2a18 <w2c_aes_Cipher+0x1a2c>
    2a1a: 00000097     	auipc	ra, 0x0
    2a1e: 000080e7     	jalr	ra <w2c_aes_Cipher+0x1a2e>
    2a22: 4008         	lw	a0, 0x0(s0)
    2a24: 9526         	add	a0, a0, s1
    2a26: 00054503     	lbu	a0, 0x0(a0)
    2a2a: 00092403     	lw	s0, 0x0(s2)
    2a2e: 444c         	lw	a1, 0xc(s0)
    2a30: 5666         	lw	a2, 0x78(sp)
    2a32: 00b61463     	bne	a2, a1, 0x2a3a <w2c_aes_Cipher+0x1a4e>
    2a36: 440c         	lw	a1, 0x8(s0)
    2a38: 5602         	lw	a2, 0x20(sp)
    2a3a: 00c5b5b3     	sltu	a1, a1, a2
    2a3e: 016544b3     	xor	s1, a0, s6
    2a42: c181         	beqz	a1, 0x2a42 <w2c_aes_Cipher+0x1a56>
    2a44: 00000097     	auipc	ra, 0x0
    2a48: 000080e7     	jalr	ra <w2c_aes_Cipher+0x1a58>
    2a4c: 4008         	lw	a0, 0x0(s0)
    2a4e: 55fa         	lw	a1, 0xbc(sp)
    2a50: 952e         	add	a0, a0, a1
    2a52: 00950023     	sb	s1, 0x0(a0)
    2a56: 00092403     	lw	s0, 0x0(s2)
    2a5a: 4408         	lw	a0, 0x8(s0)
    2a5c: 444c         	lw	a1, 0xc(s0)
    2a5e: 5616         	lw	a2, 0x64(sp)
    2a60: 0a860493     	addi	s1, a2, 0xa8
    2a64: 00a4b533     	sltu	a0, s1, a0
    2a68: 00b035b3     	snez	a1, a1
    2a6c: 8d4d         	or	a0, a0, a1
    2a6e: 59b6         	lw	s3, 0x6c(sp)
    2a70: 5aa6         	lw	s5, 0x68(sp)
    2a72: 4b76         	lw	s6, 0x5c(sp)
    2a74: e101         	bnez	a0, 0x2a74 <w2c_aes_Cipher+0x1a88>
    2a76: 00000097     	auipc	ra, 0x0
    2a7a: 000080e7     	jalr	ra <w2c_aes_Cipher+0x1a8a>
    2a7e: 4008         	lw	a0, 0x0(s0)
    2a80: 9526         	add	a0, a0, s1
    2a82: 00054503     	lbu	a0, 0x0(a0)
    2a86: 00092403     	lw	s0, 0x0(s2)
    2a8a: 444c         	lw	a1, 0xc(s0)
    2a8c: 465a         	lw	a2, 0x94(sp)
    2a8e: 00b60563     	beq	a2, a1, 0x2a98 <w2c_aes_Cipher+0x1aac>
    2a92: 00c5b5b3     	sltu	a1, a1, a2
    2a96: a021         	j	0x2a9e <w2c_aes_Cipher+0x1ab2>
    2a98: 440c         	lw	a1, 0x8(s0)
    2a9a: 0135b5b3     	sltu	a1, a1, s3
    2a9e: 44b2         	lw	s1, 0xc(sp)
    2aa0: 8ca9         	xor	s1, s1, a0
    2aa2: c181         	beqz	a1, 0x2aa2 <w2c_aes_Cipher+0x1ab6>
    2aa4: 00000097     	auipc	ra, 0x0
    2aa8: 000080e7     	jalr	ra <w2c_aes_Cipher+0x1ab8>
    2aac: 4008         	lw	a0, 0x0(s0)
    2aae: 956e         	add	a0, a0, s11
    2ab0: 00950423     	sb	s1, 0x8(a0)
    2ab4: 00092403     	lw	s0, 0x0(s2)
    2ab8: 4408         	lw	a0, 0x8(s0)
    2aba: 444c         	lw	a1, 0xc(s0)
    2abc: 5616         	lw	a2, 0x64(sp)
    2abe: 0a960493     	addi	s1, a2, 0xa9
    2ac2: 00a4b533     	sltu	a0, s1, a0
    2ac6: 00b035b3     	snez	a1, a1
    2aca: 8d4d         	or	a0, a0, a1
    2acc: e101         	bnez	a0, 0x2acc <w2c_aes_Cipher+0x1ae0>
    2ace: 00000097     	auipc	ra, 0x0
    2ad2: 000080e7     	jalr	ra <w2c_aes_Cipher+0x1ae2>
    2ad6: 4008         	lw	a0, 0x0(s0)
    2ad8: 9526         	add	a0, a0, s1
    2ada: 00054503     	lbu	a0, 0x0(a0)
    2ade: 00092403     	lw	s0, 0x0(s2)
    2ae2: 444c         	lw	a1, 0xc(s0)
    2ae4: 5676         	lw	a2, 0x7c(sp)
    2ae6: 00b61463     	bne	a2, a1, 0x2aee <w2c_aes_Cipher+0x1b02>
    2aea: 440c         	lw	a1, 0x8(s0)
    2aec: 566a         	lw	a2, 0xb8(sp)
    2aee: 00c5b5b3     	sltu	a1, a1, a2
    2af2: 4486         	lw	s1, 0x40(sp)
    2af4: 8ca9         	xor	s1, s1, a0
    2af6: c181         	beqz	a1, 0x2af6 <w2c_aes_Cipher+0x1b0a>
    2af8: 00000097     	auipc	ra, 0x0
    2afc: 000080e7     	jalr	ra <w2c_aes_Cipher+0x1b0c>
    2b00: 4008         	lw	a0, 0x0(s0)
    2b02: 954e         	add	a0, a0, s3
    2b04: 00950023     	sb	s1, 0x0(a0)
    2b08: 00092403     	lw	s0, 0x0(s2)
    2b0c: 4408         	lw	a0, 0x8(s0)
    2b0e: 444c         	lw	a1, 0xc(s0)
    2b10: 5616         	lw	a2, 0x64(sp)
    2b12: 0aa60493     	addi	s1, a2, 0xaa
    2b16: 00a4b533     	sltu	a0, s1, a0
    2b1a: 00b035b3     	snez	a1, a1
    2b1e: 8d4d         	or	a0, a0, a1
    2b20: e101         	bnez	a0, 0x2b20 <w2c_aes_Cipher+0x1b34>
    2b22: 00000097     	auipc	ra, 0x0
    2b26: 000080e7     	jalr	ra <w2c_aes_Cipher+0x1b36>
    2b2a: 4008         	lw	a0, 0x0(s0)
    2b2c: 9526         	add	a0, a0, s1
    2b2e: 00054503     	lbu	a0, 0x0(a0)
    2b32: 00092403     	lw	s0, 0x0(s2)
    2b36: 444c         	lw	a1, 0xc(s0)
    2b38: 560a         	lw	a2, 0xa0(sp)
    2b3a: 00b61463     	bne	a2, a1, 0x2b42 <w2c_aes_Cipher+0x1b56>
    2b3e: 440c         	lw	a1, 0x8(s0)
    2b40: 565a         	lw	a2, 0xb4(sp)
    2b42: 00c5b5b3     	sltu	a1, a1, a2
    2b46: 54f2         	lw	s1, 0x3c(sp)
    2b48: 8ca9         	xor	s1, s1, a0
    2b4a: c181         	beqz	a1, 0x2b4a <w2c_aes_Cipher+0x1b5e>
    2b4c: 00000097     	auipc	ra, 0x0
    2b50: 000080e7     	jalr	ra <w2c_aes_Cipher+0x1b60>
    2b54: 4008         	lw	a0, 0x0(s0)
    2b56: 55ea         	lw	a1, 0xb8(sp)
    2b58: 952e         	add	a0, a0, a1
    2b5a: 00950023     	sb	s1, 0x0(a0)
    2b5e: 00092403     	lw	s0, 0x0(s2)
    2b62: 4408         	lw	a0, 0x8(s0)
    2b64: 444c         	lw	a1, 0xc(s0)
    2b66: 5616         	lw	a2, 0x64(sp)
    2b68: 0ab60493     	addi	s1, a2, 0xab
    2b6c: 00a4b533     	sltu	a0, s1, a0
    2b70: 00b035b3     	snez	a1, a1
    2b74: 8d4d         	or	a0, a0, a1
    2b76: e101         	bnez	a0, 0x2b76 <w2c_aes_Cipher+0x1b8a>
    2b78: 00000097     	auipc	ra, 0x0
    2b7c: 000080e7     	jalr	ra <w2c_aes_Cipher+0x1b8c>
    2b80: 4008         	lw	a0, 0x0(s0)
    2b82: 9526         	add	a0, a0, s1
    2b84: 00054503     	lbu	a0, 0x0(a0)
    2b88: 00092403     	lw	s0, 0x0(s2)
    2b8c: 444c         	lw	a1, 0xc(s0)
    2b8e: 460a         	lw	a2, 0x80(sp)
    2b90: 00b61463     	bne	a2, a1, 0x2b98 <w2c_aes_Cipher+0x1bac>
    2b94: 440c         	lw	a1, 0x8(s0)
    2b96: 5612         	lw	a2, 0x24(sp)
    2b98: 00c5b5b3     	sltu	a1, a1, a2
    2b9c: 014544b3     	xor	s1, a0, s4
    2ba0: c181         	beqz	a1, 0x2ba0 <w2c_aes_Cipher+0x1bb4>
    2ba2: 00000097     	auipc	ra, 0x0
    2ba6: 000080e7     	jalr	ra <w2c_aes_Cipher+0x1bb6>
    2baa: 4008         	lw	a0, 0x0(s0)
    2bac: 55da         	lw	a1, 0xb4(sp)
    2bae: 952e         	add	a0, a0, a1
    2bb0: 00950023     	sb	s1, 0x0(a0)
    2bb4: 00092403     	lw	s0, 0x0(s2)
    2bb8: 4408         	lw	a0, 0x8(s0)
    2bba: 444c         	lw	a1, 0xc(s0)
    2bbc: 5616         	lw	a2, 0x64(sp)
    2bbe: 0ac60493     	addi	s1, a2, 0xac
    2bc2: 00a4b533     	sltu	a0, s1, a0
    2bc6: 00b035b3     	snez	a1, a1
    2bca: 8d4d         	or	a0, a0, a1
    2bcc: e101         	bnez	a0, 0x2bcc <w2c_aes_Cipher+0x1be0>
    2bce: 00000097     	auipc	ra, 0x0
    2bd2: 000080e7     	jalr	ra <w2c_aes_Cipher+0x1be2>
    2bd6: 4008         	lw	a0, 0x0(s0)
    2bd8: 9526         	add	a0, a0, s1
    2bda: 00054503     	lbu	a0, 0x0(a0)
    2bde: 00092403     	lw	s0, 0x0(s2)
    2be2: 444c         	lw	a1, 0xc(s0)
    2be4: 464a         	lw	a2, 0x90(sp)
    2be6: 00b60563     	beq	a2, a1, 0x2bf0 <w2c_aes_Cipher+0x1c04>
    2bea: 00c5b5b3     	sltu	a1, a1, a2
    2bee: a021         	j	0x2bf6 <w2c_aes_Cipher+0x1c0a>
    2bf0: 440c         	lw	a1, 0x8(s0)
    2bf2: 0155b5b3     	sltu	a1, a1, s5
    2bf6: 44c2         	lw	s1, 0x10(sp)
    2bf8: 8ca9         	xor	s1, s1, a0
    2bfa: c181         	beqz	a1, 0x2bfa <w2c_aes_Cipher+0x1c0e>
    2bfc: 00000097     	auipc	ra, 0x0
    2c00: 000080e7     	jalr	ra <w2c_aes_Cipher+0x1c10>
    2c04: 4008         	lw	a0, 0x0(s0)
    2c06: 956e         	add	a0, a0, s11
    2c08: 00950623     	sb	s1, 0xc(a0)
    2c0c: 00092403     	lw	s0, 0x0(s2)
    2c10: 4408         	lw	a0, 0x8(s0)
    2c12: 444c         	lw	a1, 0xc(s0)
    2c14: 5616         	lw	a2, 0x64(sp)
    2c16: 0ad60493     	addi	s1, a2, 0xad
    2c1a: 00a4b533     	sltu	a0, s1, a0
    2c1e: 00b035b3     	snez	a1, a1
    2c22: 8d4d         	or	a0, a0, a1
    2c24: e101         	bnez	a0, 0x2c24 <w2c_aes_Cipher+0x1c38>
    2c26: 00000097     	auipc	ra, 0x0
    2c2a: 000080e7     	jalr	ra <w2c_aes_Cipher+0x1c3a>
    2c2e: 4008         	lw	a0, 0x0(s0)
    2c30: 9526         	add	a0, a0, s1
    2c32: 00054503     	lbu	a0, 0x0(a0)
    2c36: 00092403     	lw	s0, 0x0(s2)
    2c3a: 444c         	lw	a1, 0xc(s0)
    2c3c: 461a         	lw	a2, 0x84(sp)
    2c3e: 00b61463     	bne	a2, a1, 0x2c46 <w2c_aes_Cipher+0x1c5a>
    2c42: 440c         	lw	a1, 0x8(s0)
    2c44: 564a         	lw	a2, 0xb0(sp)
    2c46: 00c5b5b3     	sltu	a1, a1, a2
    2c4a: 44c6         	lw	s1, 0x50(sp)
    2c4c: 8ca9         	xor	s1, s1, a0
    2c4e: c181         	beqz	a1, 0x2c4e <w2c_aes_Cipher+0x1c62>
    2c50: 00000097     	auipc	ra, 0x0
    2c54: 000080e7     	jalr	ra <w2c_aes_Cipher+0x1c64>
    2c58: 4008         	lw	a0, 0x0(s0)
    2c5a: 9556         	add	a0, a0, s5
    2c5c: 00950023     	sb	s1, 0x0(a0)
    2c60: 00092403     	lw	s0, 0x0(s2)
    2c64: 4408         	lw	a0, 0x8(s0)
    2c66: 444c         	lw	a1, 0xc(s0)
    2c68: 5616         	lw	a2, 0x64(sp)
    2c6a: 0ae60493     	addi	s1, a2, 0xae
    2c6e: 00a4b533     	sltu	a0, s1, a0
    2c72: 00b035b3     	snez	a1, a1
    2c76: 8d4d         	or	a0, a0, a1
    2c78: e101         	bnez	a0, 0x2c78 <w2c_aes_Cipher+0x1c8c>
    2c7a: 00000097     	auipc	ra, 0x0
    2c7e: 000080e7     	jalr	ra <w2c_aes_Cipher+0x1c8e>
    2c82: 4008         	lw	a0, 0x0(s0)
    2c84: 9526         	add	a0, a0, s1
    2c86: 00054503     	lbu	a0, 0x0(a0)
    2c8a: 00092403     	lw	s0, 0x0(s2)
    2c8e: 444c         	lw	a1, 0xc(s0)
    2c90: 561a         	lw	a2, 0xa4(sp)
    2c92: 00b61463     	bne	a2, a1, 0x2c9a <w2c_aes_Cipher+0x1cae>
    2c96: 440c         	lw	a1, 0x8(s0)
    2c98: 563a         	lw	a2, 0xac(sp)
    2c9a: 00c5b5b3     	sltu	a1, a1, a2
    2c9e: 44d6         	lw	s1, 0x54(sp)
    2ca0: 8ca9         	xor	s1, s1, a0
    2ca2: c181         	beqz	a1, 0x2ca2 <w2c_aes_Cipher+0x1cb6>
    2ca4: 00000097     	auipc	ra, 0x0
    2ca8: 000080e7     	jalr	ra <w2c_aes_Cipher+0x1cb8>
    2cac: 4008         	lw	a0, 0x0(s0)
    2cae: 55ca         	lw	a1, 0xb0(sp)
    2cb0: 952e         	add	a0, a0, a1
    2cb2: 00950023     	sb	s1, 0x0(a0)
    2cb6: 00092403     	lw	s0, 0x0(s2)
    2cba: 4408         	lw	a0, 0x8(s0)
    2cbc: 444c         	lw	a1, 0xc(s0)
    2cbe: 5616         	lw	a2, 0x64(sp)
    2cc0: 0af60493     	addi	s1, a2, 0xaf
    2cc4: 00a4b533     	sltu	a0, s1, a0
    2cc8: 00b035b3     	snez	a1, a1
    2ccc: 8d4d         	or	a0, a0, a1
    2cce: e101         	bnez	a0, 0x2cce <w2c_aes_Cipher+0x1ce2>
    2cd0: 00000097     	auipc	ra, 0x0
    2cd4: 000080e7     	jalr	ra <w2c_aes_Cipher+0x1ce4>
    2cd8: 4008         	lw	a0, 0x0(s0)
    2cda: 9526         	add	a0, a0, s1
    2cdc: 00054403     	lbu	s0, 0x0(a0)
    2ce0: 00092483     	lw	s1, 0x0(s2)
    2ce4: 44c8         	lw	a0, 0xc(s1)
    2ce6: 00ab0663     	beq	s6, a0, 0x2cf2 <w2c_aes_Cipher+0x1d06>
    2cea: 01653533     	sltu	a0, a0, s6
    2cee: e519         	bnez	a0, 0x2cfc <w2c_aes_Cipher+0x1d10>
    2cf0: a001         	j	0x2cf0 <w2c_aes_Cipher+0x1d04>
    2cf2: 4488         	lw	a0, 0x8(s1)
    2cf4: 55a2         	lw	a1, 0x28(sp)
    2cf6: 00b53533     	sltu	a0, a0, a1
    2cfa: c101         	beqz	a0, 0x2cfa <w2c_aes_Cipher+0x1d0e>
    2cfc: 00000097     	auipc	ra, 0x0
    2d00: 000080e7     	jalr	ra <w2c_aes_Cipher+0x1d10>
    2d04: 4088         	lw	a0, 0x0(s1)
    2d06: 45a6         	lw	a1, 0x48(sp)
    2d08: 8da1         	xor	a1, a1, s0
    2d0a: 563a         	lw	a2, 0xac(sp)
    2d0c: 9532         	add	a0, a0, a2
    2d0e: 00b50023     	sb	a1, 0x0(a0)
    2d12: 50fe         	lw	ra, 0xfc(sp)
    2d14: 546e         	lw	s0, 0xf8(sp)
    2d16: 54de         	lw	s1, 0xf4(sp)
    2d18: 594e         	lw	s2, 0xf0(sp)
    2d1a: 59be         	lw	s3, 0xec(sp)
    2d1c: 5a2e         	lw	s4, 0xe8(sp)
    2d1e: 5a9e         	lw	s5, 0xe4(sp)
    2d20: 5b0e         	lw	s6, 0xe0(sp)
    2d22: 4bfe         	lw	s7, 0xdc(sp)
    2d24: 4c6e         	lw	s8, 0xd8(sp)
    2d26: 4cde         	lw	s9, 0xd4(sp)
    2d28: 4d4e         	lw	s10, 0xd0(sp)
    2d2a: 4dbe         	lw	s11, 0xcc(sp)
    2d2c: 6111         	addi	sp, sp, 0x100
    2d2e: 8082         	ret

00002d30 <w2c_aes_AES_ECB_decrypt>:
    2d30: 86ae         	mv	a3, a1
    2d32: 85b2         	mv	a1, a2
    2d34: 8636         	mv	a2, a3
    2d36: 00000317     	auipc	t1, 0x0
    2d3a: 00030067     	jr	t1 <w2c_aes_AES_ECB_decrypt+0x6>

00002d3e <w2c_aes_InvCipher>:
    2d3e: 7111         	addi	sp, sp, -0x100
    2d40: df86         	sw	ra, 0xfc(sp)
    2d42: dda2         	sw	s0, 0xf8(sp)
    2d44: dba6         	sw	s1, 0xf4(sp)
    2d46: d9ca         	sw	s2, 0xf0(sp)
    2d48: d7ce         	sw	s3, 0xec(sp)
    2d4a: d5d2         	sw	s4, 0xe8(sp)
    2d4c: d3d6         	sw	s5, 0xe4(sp)
    2d4e: d1da         	sw	s6, 0xe0(sp)
    2d50: cfde         	sw	s7, 0xdc(sp)
    2d52: cde2         	sw	s8, 0xd8(sp)
    2d54: cbe6         	sw	s9, 0xd4(sp)
    2d56: c9ea         	sw	s10, 0xd0(sp)
    2d58: c7ee         	sw	s11, 0xcc(sp)
    2d5a: 8aae         	mv	s5, a1
    2d5c: 8daa         	mv	s11, a0
    2d5e: 4100         	lw	s0, 0x0(a0)
    2d60: 4408         	lw	a0, 0x8(s0)
    2d62: 444c         	lw	a1, 0xc(s0)
    2d64: 00aab533     	sltu	a0, s5, a0
    2d68: 00b035b3     	snez	a1, a1
    2d6c: 8d4d         	or	a0, a0, a1
    2d6e: d232         	sw	a2, 0x24(sp)
    2d70: e101         	bnez	a0, 0x2d70 <w2c_aes_InvCipher+0x32>
    2d72: 00000097     	auipc	ra, 0x0
    2d76: 000080e7     	jalr	ra <w2c_aes_InvCipher+0x34>
    2d7a: 4008         	lw	a0, 0x0(s0)
    2d7c: 9556         	add	a0, a0, s5
    2d7e: 00054903     	lbu	s2, 0x0(a0)
    2d82: 000da483     	lw	s1, 0x0(s11)
    2d86: 4488         	lw	a0, 0x8(s1)
    2d88: 44cc         	lw	a1, 0xc(s1)
    2d8a: 5612         	lw	a2, 0x24(sp)
    2d8c: 0a060413     	addi	s0, a2, 0xa0
    2d90: 00a43533     	sltu	a0, s0, a0
    2d94: 00b035b3     	snez	a1, a1
    2d98: 8d4d         	or	a0, a0, a1
    2d9a: e101         	bnez	a0, 0x2d9a <w2c_aes_InvCipher+0x5c>
    2d9c: 00000097     	auipc	ra, 0x0
    2da0: 000080e7     	jalr	ra <w2c_aes_InvCipher+0x5e>
    2da4: 4088         	lw	a0, 0x0(s1)
    2da6: 9522         	add	a0, a0, s0
    2da8: 00054503     	lbu	a0, 0x0(a0)
    2dac: 000da483     	lw	s1, 0x0(s11)
    2db0: 448c         	lw	a1, 0x8(s1)
    2db2: 44d0         	lw	a2, 0xc(s1)
    2db4: 00bab5b3     	sltu	a1, s5, a1
    2db8: 00c03633     	snez	a2, a2
    2dbc: 8dd1         	or	a1, a1, a2
    2dbe: 012549b3     	xor	s3, a0, s2
    2dc2: e181         	bnez	a1, 0x2dc2 <w2c_aes_InvCipher+0x84>
    2dc4: 00000097     	auipc	ra, 0x0
    2dc8: 000080e7     	jalr	ra <w2c_aes_InvCipher+0x86>
    2dcc: 4088         	lw	a0, 0x0(s1)
    2dce: 9556         	add	a0, a0, s5
    2dd0: 01350023     	sb	s3, 0x0(a0)
    2dd4: 000da403     	lw	s0, 0x0(s11)
    2dd8: 4448         	lw	a0, 0xc(s0)
    2dda: 002a8a13     	addi	s4, s5, 0x2
    2dde: 015a3b33     	sltu	s6, s4, s5
    2de2: 00ab0663     	beq	s6, a0, 0x2dee <w2c_aes_InvCipher+0xb0>
    2de6: 01653533     	sltu	a0, a0, s6
    2dea: e511         	bnez	a0, 0x2df6 <w2c_aes_InvCipher+0xb8>
    2dec: a001         	j	0x2dec <w2c_aes_InvCipher+0xae>
    2dee: 4408         	lw	a0, 0x8(s0)
    2df0: 01453533     	sltu	a0, a0, s4
    2df4: c101         	beqz	a0, 0x2df4 <w2c_aes_InvCipher+0xb6>
    2df6: 00000097     	auipc	ra, 0x0
    2dfa: 000080e7     	jalr	ra <w2c_aes_InvCipher+0xb8>
    2dfe: 4008         	lw	a0, 0x0(s0)
    2e00: 9556         	add	a0, a0, s5
    2e02: 00154903     	lbu	s2, 0x1(a0)
    2e06: 000da483     	lw	s1, 0x0(s11)
    2e0a: 4488         	lw	a0, 0x8(s1)
    2e0c: 44cc         	lw	a1, 0xc(s1)
    2e0e: 5612         	lw	a2, 0x24(sp)
    2e10: 0a160413     	addi	s0, a2, 0xa1
    2e14: 00a43533     	sltu	a0, s0, a0
    2e18: 00b035b3     	snez	a1, a1
    2e1c: 8d4d         	or	a0, a0, a1
    2e1e: e101         	bnez	a0, 0x2e1e <w2c_aes_InvCipher+0xe0>
    2e20: 00000097     	auipc	ra, 0x0
    2e24: 000080e7     	jalr	ra <w2c_aes_InvCipher+0xe2>
    2e28: 4088         	lw	a0, 0x0(s1)
    2e2a: 9522         	add	a0, a0, s0
    2e2c: 00054503     	lbu	a0, 0x0(a0)
    2e30: 000da483     	lw	s1, 0x0(s11)
    2e34: 44cc         	lw	a1, 0xc(s1)
    2e36: 00bb0863     	beq	s6, a1, 0x2e46 <w2c_aes_InvCipher+0x108>
    2e3a: 0165b5b3     	sltu	a1, a1, s6
    2e3e: 01254433     	xor	s0, a0, s2
    2e42: e981         	bnez	a1, 0x2e52 <w2c_aes_InvCipher+0x114>
    2e44: a001         	j	0x2e44 <w2c_aes_InvCipher+0x106>
    2e46: 448c         	lw	a1, 0x8(s1)
    2e48: 0145b5b3     	sltu	a1, a1, s4
    2e4c: 01254433     	xor	s0, a0, s2
    2e50: c181         	beqz	a1, 0x2e50 <w2c_aes_InvCipher+0x112>
    2e52: 00000097     	auipc	ra, 0x0
    2e56: 000080e7     	jalr	ra <w2c_aes_InvCipher+0x114>
    2e5a: 4088         	lw	a0, 0x0(s1)
    2e5c: 9556         	add	a0, a0, s5
    2e5e: d922         	sw	s0, 0xb0(sp)
    2e60: 008500a3     	sb	s0, 0x1(a0)
    2e64: 000da403     	lw	s0, 0x0(s11)
    2e68: 4448         	lw	a0, 0xc(s0)
    2e6a: 003a8c93     	addi	s9, s5, 0x3
    2e6e: 015cbbb3     	sltu	s7, s9, s5
    2e72: 00ab8663     	beq	s7, a0, 0x2e7e <w2c_aes_InvCipher+0x140>
    2e76: 01753533     	sltu	a0, a0, s7
    2e7a: e511         	bnez	a0, 0x2e86 <w2c_aes_InvCipher+0x148>
    2e7c: a001         	j	0x2e7c <w2c_aes_InvCipher+0x13e>
    2e7e: 4408         	lw	a0, 0x8(s0)
    2e80: 01953533     	sltu	a0, a0, s9
    2e84: c101         	beqz	a0, 0x2e84 <w2c_aes_InvCipher+0x146>
    2e86: 00000097     	auipc	ra, 0x0
    2e8a: 000080e7     	jalr	ra <w2c_aes_InvCipher+0x148>
    2e8e: 4008         	lw	a0, 0x0(s0)
    2e90: 9556         	add	a0, a0, s5
    2e92: 00254903     	lbu	s2, 0x2(a0)
    2e96: 000da483     	lw	s1, 0x0(s11)
    2e9a: 4488         	lw	a0, 0x8(s1)
    2e9c: 44cc         	lw	a1, 0xc(s1)
    2e9e: 5612         	lw	a2, 0x24(sp)
    2ea0: 0a260413     	addi	s0, a2, 0xa2
    2ea4: 00a43533     	sltu	a0, s0, a0
    2ea8: 00b035b3     	snez	a1, a1
    2eac: 8d4d         	or	a0, a0, a1
    2eae: e101         	bnez	a0, 0x2eae <w2c_aes_InvCipher+0x170>
    2eb0: 00000097     	auipc	ra, 0x0
    2eb4: 000080e7     	jalr	ra <w2c_aes_InvCipher+0x172>
    2eb8: 4088         	lw	a0, 0x0(s1)
    2eba: 9522         	add	a0, a0, s0
    2ebc: 00054503     	lbu	a0, 0x0(a0)
    2ec0: 000da483     	lw	s1, 0x0(s11)
    2ec4: 44cc         	lw	a1, 0xc(s1)
    2ec6: 00bb8863     	beq	s7, a1, 0x2ed6 <w2c_aes_InvCipher+0x198>
    2eca: 0175b5b3     	sltu	a1, a1, s7
    2ece: 01254433     	xor	s0, a0, s2
    2ed2: e981         	bnez	a1, 0x2ee2 <w2c_aes_InvCipher+0x1a4>
    2ed4: a001         	j	0x2ed4 <w2c_aes_InvCipher+0x196>
    2ed6: 448c         	lw	a1, 0x8(s1)
    2ed8: 0195b5b3     	sltu	a1, a1, s9
    2edc: 01254433     	xor	s0, a0, s2
    2ee0: c181         	beqz	a1, 0x2ee0 <w2c_aes_InvCipher+0x1a2>
    2ee2: 00000097     	auipc	ra, 0x0
    2ee6: 000080e7     	jalr	ra <w2c_aes_InvCipher+0x1a4>
    2eea: 4088         	lw	a0, 0x0(s1)
    2eec: 9556         	add	a0, a0, s5
    2eee: df22         	sw	s0, 0xbc(sp)
    2ef0: 00850123     	sb	s0, 0x2(a0)
    2ef4: 000da403     	lw	s0, 0x0(s11)
    2ef8: 4448         	lw	a0, 0xc(s0)
    2efa: 004a8d13     	addi	s10, s5, 0x4
    2efe: 015d35b3     	sltu	a1, s10, s5
    2f02: ccae         	sw	a1, 0x58(sp)
    2f04: 00a58663     	beq	a1, a0, 0x2f10 <w2c_aes_InvCipher+0x1d2>
    2f08: 00b53533     	sltu	a0, a0, a1
    2f0c: e511         	bnez	a0, 0x2f18 <w2c_aes_InvCipher+0x1da>
    2f0e: a001         	j	0x2f0e <w2c_aes_InvCipher+0x1d0>
    2f10: 4408         	lw	a0, 0x8(s0)
    2f12: 01a53533     	sltu	a0, a0, s10
    2f16: c101         	beqz	a0, 0x2f16 <w2c_aes_InvCipher+0x1d8>
    2f18: 00000097     	auipc	ra, 0x0
    2f1c: 000080e7     	jalr	ra <w2c_aes_InvCipher+0x1da>
    2f20: 4008         	lw	a0, 0x0(s0)
    2f22: 9556         	add	a0, a0, s5
    2f24: 00354903     	lbu	s2, 0x3(a0)
    2f28: 000da483     	lw	s1, 0x0(s11)
    2f2c: 4488         	lw	a0, 0x8(s1)
    2f2e: 44cc         	lw	a1, 0xc(s1)
    2f30: 5612         	lw	a2, 0x24(sp)
    2f32: 0a360413     	addi	s0, a2, 0xa3
    2f36: 00a43533     	sltu	a0, s0, a0
    2f3a: 00b035b3     	snez	a1, a1
    2f3e: 8d4d         	or	a0, a0, a1
    2f40: e101         	bnez	a0, 0x2f40 <w2c_aes_InvCipher+0x202>
    2f42: 00000097     	auipc	ra, 0x0
    2f46: 000080e7     	jalr	ra <w2c_aes_InvCipher+0x204>
    2f4a: 4088         	lw	a0, 0x0(s1)
    2f4c: 9522         	add	a0, a0, s0
    2f4e: 00054503     	lbu	a0, 0x0(a0)
    2f52: 000da483     	lw	s1, 0x0(s11)
    2f56: 44cc         	lw	a1, 0xc(s1)
    2f58: 4666         	lw	a2, 0x58(sp)
    2f5a: 00b60863     	beq	a2, a1, 0x2f6a <w2c_aes_InvCipher+0x22c>
    2f5e: 00c5b5b3     	sltu	a1, a1, a2
    2f62: 01254433     	xor	s0, a0, s2
    2f66: e981         	bnez	a1, 0x2f76 <w2c_aes_InvCipher+0x238>
    2f68: a001         	j	0x2f68 <w2c_aes_InvCipher+0x22a>
    2f6a: 448c         	lw	a1, 0x8(s1)
    2f6c: 01a5b5b3     	sltu	a1, a1, s10
    2f70: 01254433     	xor	s0, a0, s2
    2f74: c181         	beqz	a1, 0x2f74 <w2c_aes_InvCipher+0x236>
    2f76: 00000097     	auipc	ra, 0x0
    2f7a: 000080e7     	jalr	ra <w2c_aes_InvCipher+0x238>
    2f7e: 4088         	lw	a0, 0x0(s1)
    2f80: 9556         	add	a0, a0, s5
    2f82: c3a2         	sw	s0, 0xc4(sp)
    2f84: 008501a3     	sb	s0, 0x3(a0)
    2f88: 000da403     	lw	s0, 0x0(s11)
    2f8c: 4448         	lw	a0, 0xc(s0)
    2f8e: 005a8593     	addi	a1, s5, 0x5
    2f92: 0155b633     	sltu	a2, a1, s5
    2f96: daae         	sw	a1, 0x74(sp)
    2f98: 00a60763     	beq	a2, a0, 0x2fa6 <w2c_aes_InvCipher+0x268>
    2f9c: 00c53533     	sltu	a0, a0, a2
    2fa0: cab2         	sw	a2, 0x54(sp)
    2fa2: e519         	bnez	a0, 0x2fb0 <w2c_aes_InvCipher+0x272>
    2fa4: a001         	j	0x2fa4 <w2c_aes_InvCipher+0x266>
    2fa6: 4408         	lw	a0, 0x8(s0)
    2fa8: 00b53533     	sltu	a0, a0, a1
    2fac: cab2         	sw	a2, 0x54(sp)
    2fae: c101         	beqz	a0, 0x2fae <w2c_aes_InvCipher+0x270>
    2fb0: 00000097     	auipc	ra, 0x0
    2fb4: 000080e7     	jalr	ra <w2c_aes_InvCipher+0x272>
    2fb8: 4008         	lw	a0, 0x0(s0)
    2fba: 9556         	add	a0, a0, s5
    2fbc: 00454903     	lbu	s2, 0x4(a0)
    2fc0: 000da483     	lw	s1, 0x0(s11)
    2fc4: 4488         	lw	a0, 0x8(s1)
    2fc6: 44cc         	lw	a1, 0xc(s1)
    2fc8: 5612         	lw	a2, 0x24(sp)
    2fca: 0a460413     	addi	s0, a2, 0xa4
    2fce: 00a43533     	sltu	a0, s0, a0
    2fd2: 00b035b3     	snez	a1, a1
    2fd6: 8d4d         	or	a0, a0, a1
    2fd8: e101         	bnez	a0, 0x2fd8 <w2c_aes_InvCipher+0x29a>
    2fda: 00000097     	auipc	ra, 0x0
    2fde: 000080e7     	jalr	ra <w2c_aes_InvCipher+0x29c>
    2fe2: 4088         	lw	a0, 0x0(s1)
    2fe4: 9522         	add	a0, a0, s0
    2fe6: 00054503     	lbu	a0, 0x0(a0)
    2fea: 000da483     	lw	s1, 0x0(s11)
    2fee: 44cc         	lw	a1, 0xc(s1)
    2ff0: 4656         	lw	a2, 0x54(sp)
    2ff2: d052         	sw	s4, 0x20(sp)
    2ff4: 00b61463     	bne	a2, a1, 0x2ffc <w2c_aes_InvCipher+0x2be>
    2ff8: 448c         	lw	a1, 0x8(s1)
    2ffa: 5656         	lw	a2, 0x74(sp)
    2ffc: 00c5b5b3     	sltu	a1, a1, a2
    3000: 01254c33     	xor	s8, a0, s2
    3004: c181         	beqz	a1, 0x3004 <w2c_aes_InvCipher+0x2c6>
    3006: 00000097     	auipc	ra, 0x0
    300a: 000080e7     	jalr	ra <w2c_aes_InvCipher+0x2c8>
    300e: 4088         	lw	a0, 0x0(s1)
    3010: 9556         	add	a0, a0, s5
    3012: 01850223     	sb	s8, 0x4(a0)
    3016: 000da403     	lw	s0, 0x0(s11)
    301a: 4408         	lw	a0, 0x8(s0)
    301c: 444c         	lw	a1, 0xc(s0)
    301e: 5656         	lw	a2, 0x74(sp)
    3020: 00a63533     	sltu	a0, a2, a0
    3024: 00b035b3     	snez	a1, a1
    3028: 8d4d         	or	a0, a0, a1
    302a: e101         	bnez	a0, 0x302a <w2c_aes_InvCipher+0x2ec>
    302c: 00000097     	auipc	ra, 0x0
    3030: 000080e7     	jalr	ra <w2c_aes_InvCipher+0x2ee>
    3034: c4de         	sw	s7, 0x48(sp)
    3036: c6da         	sw	s6, 0x4c(sp)
    3038: 4008         	lw	a0, 0x0(s0)
    303a: 5a56         	lw	s4, 0x74(sp)
    303c: 9552         	add	a0, a0, s4
    303e: 00054903     	lbu	s2, 0x0(a0)
    3042: 000da483     	lw	s1, 0x0(s11)
    3046: 4488         	lw	a0, 0x8(s1)
    3048: 44cc         	lw	a1, 0xc(s1)
    304a: 5612         	lw	a2, 0x24(sp)
    304c: 0a560413     	addi	s0, a2, 0xa5
    3050: 00a43533     	sltu	a0, s0, a0
    3054: 00b035b3     	snez	a1, a1
    3058: 8d4d         	or	a0, a0, a1
    305a: e101         	bnez	a0, 0x305a <w2c_aes_InvCipher+0x31c>
    305c: 00000097     	auipc	ra, 0x0
    3060: 000080e7     	jalr	ra <w2c_aes_InvCipher+0x31e>
    3064: 4088         	lw	a0, 0x0(s1)
    3066: 9522         	add	a0, a0, s0
    3068: 00054503     	lbu	a0, 0x0(a0)
    306c: 000da483     	lw	s1, 0x0(s11)
    3070: 448c         	lw	a1, 0x8(s1)
    3072: 44d0         	lw	a2, 0xc(s1)
    3074: 00ba35b3     	sltu	a1, s4, a1
    3078: 00c03633     	snez	a2, a2
    307c: 8dd1         	or	a1, a1, a2
    307e: 01254bb3     	xor	s7, a0, s2
    3082: e181         	bnez	a1, 0x3082 <w2c_aes_InvCipher+0x344>
    3084: 00000097     	auipc	ra, 0x0
    3088: 000080e7     	jalr	ra <w2c_aes_InvCipher+0x346>
    308c: 4088         	lw	a0, 0x0(s1)
    308e: 55d6         	lw	a1, 0x74(sp)
    3090: 952e         	add	a0, a0, a1
    3092: 01750023     	sb	s7, 0x0(a0)
    3096: 000da403     	lw	s0, 0x0(s11)
    309a: 4408         	lw	a0, 0x8(s0)
    309c: 444c         	lw	a1, 0xc(s0)
    309e: 006a8613     	addi	a2, s5, 0x6
    30a2: cd32         	sw	a2, 0x98(sp)
    30a4: 00a63533     	sltu	a0, a2, a0
    30a8: 00b035b3     	snez	a1, a1
    30ac: 8d4d         	or	a0, a0, a1
    30ae: e101         	bnez	a0, 0x30ae <w2c_aes_InvCipher+0x370>
    30b0: 00000097     	auipc	ra, 0x0
    30b4: 000080e7     	jalr	ra <w2c_aes_InvCipher+0x372>
    30b8: 4008         	lw	a0, 0x0(s0)
    30ba: 45ea         	lw	a1, 0x98(sp)
    30bc: 952e         	add	a0, a0, a1
    30be: 00054903     	lbu	s2, 0x0(a0)
    30c2: 000da483     	lw	s1, 0x0(s11)
    30c6: 4488         	lw	a0, 0x8(s1)
    30c8: 44cc         	lw	a1, 0xc(s1)
    30ca: 5612         	lw	a2, 0x24(sp)
    30cc: 0a660413     	addi	s0, a2, 0xa6
    30d0: 00a43533     	sltu	a0, s0, a0
    30d4: 00b035b3     	snez	a1, a1
    30d8: 8d4d         	or	a0, a0, a1
    30da: e101         	bnez	a0, 0x30da <w2c_aes_InvCipher+0x39c>
    30dc: 00000097     	auipc	ra, 0x0
    30e0: 000080e7     	jalr	ra <w2c_aes_InvCipher+0x39e>
    30e4: 4088         	lw	a0, 0x0(s1)
    30e6: 9522         	add	a0, a0, s0
    30e8: 00054503     	lbu	a0, 0x0(a0)
    30ec: 000da483     	lw	s1, 0x0(s11)
    30f0: 448c         	lw	a1, 0x8(s1)
    30f2: 44d0         	lw	a2, 0xc(s1)
    30f4: 46ea         	lw	a3, 0x98(sp)
    30f6: 00b6b5b3     	sltu	a1, a3, a1
    30fa: 00c03633     	snez	a2, a2
    30fe: 8dd1         	or	a1, a1, a2
    3100: 01254433     	xor	s0, a0, s2
    3104: e181         	bnez	a1, 0x3104 <w2c_aes_InvCipher+0x3c6>
    3106: 00000097     	auipc	ra, 0x0
    310a: 000080e7     	jalr	ra <w2c_aes_InvCipher+0x3c8>
    310e: 4088         	lw	a0, 0x0(s1)
    3110: 45ea         	lw	a1, 0x98(sp)
    3112: 952e         	add	a0, a0, a1
    3114: d322         	sw	s0, 0xa4(sp)
    3116: 00850023     	sb	s0, 0x0(a0)
    311a: 000da403     	lw	s0, 0x0(s11)
    311e: 4408         	lw	a0, 0x8(s0)
    3120: 444c         	lw	a1, 0xc(s0)
    3122: 007a8613     	addi	a2, s5, 0x7
    3126: cb32         	sw	a2, 0x94(sp)
    3128: 00a63533     	sltu	a0, a2, a0
    312c: 00b035b3     	snez	a1, a1
    3130: 8d4d         	or	a0, a0, a1
    3132: e101         	bnez	a0, 0x3132 <w2c_aes_InvCipher+0x3f4>
    3134: 00000097     	auipc	ra, 0x0
    3138: 000080e7     	jalr	ra <w2c_aes_InvCipher+0x3f6>
    313c: 4008         	lw	a0, 0x0(s0)
    313e: 45da         	lw	a1, 0x94(sp)
    3140: 952e         	add	a0, a0, a1
    3142: 00054903     	lbu	s2, 0x0(a0)
    3146: 000da483     	lw	s1, 0x0(s11)
    314a: 4488         	lw	a0, 0x8(s1)
    314c: 44cc         	lw	a1, 0xc(s1)
    314e: 5612         	lw	a2, 0x24(sp)
    3150: 0a760413     	addi	s0, a2, 0xa7
    3154: 00a43533     	sltu	a0, s0, a0
    3158: 00b035b3     	snez	a1, a1
    315c: 8d4d         	or	a0, a0, a1
    315e: e101         	bnez	a0, 0x315e <w2c_aes_InvCipher+0x420>
    3160: 00000097     	auipc	ra, 0x0
    3164: 000080e7     	jalr	ra <w2c_aes_InvCipher+0x422>
    3168: 4088         	lw	a0, 0x0(s1)
    316a: 9522         	add	a0, a0, s0
    316c: 00054503     	lbu	a0, 0x0(a0)
    3170: 000da483     	lw	s1, 0x0(s11)
    3174: 448c         	lw	a1, 0x8(s1)
    3176: 44d0         	lw	a2, 0xc(s1)
    3178: 46da         	lw	a3, 0x94(sp)
    317a: 00b6b5b3     	sltu	a1, a3, a1
    317e: 00c03633     	snez	a2, a2
    3182: 8dd1         	or	a1, a1, a2
    3184: 01254433     	xor	s0, a0, s2
    3188: e181         	bnez	a1, 0x3188 <w2c_aes_InvCipher+0x44a>
    318a: 00000097     	auipc	ra, 0x0
    318e: 000080e7     	jalr	ra <w2c_aes_InvCipher+0x44c>
    3192: 4088         	lw	a0, 0x0(s1)
    3194: 45da         	lw	a1, 0x94(sp)
    3196: 952e         	add	a0, a0, a1
    3198: c1a2         	sw	s0, 0xc0(sp)
    319a: 00850023     	sb	s0, 0x0(a0)
    319e: 000da403     	lw	s0, 0x0(s11)
    31a2: 4448         	lw	a0, 0xc(s0)
    31a4: 009a8593     	addi	a1, s5, 0x9
    31a8: 0155b633     	sltu	a2, a1, s5
    31ac: c12e         	sw	a1, 0x80(sp)
    31ae: 00a60763     	beq	a2, a0, 0x31bc <w2c_aes_InvCipher+0x47e>
    31b2: 00c53533     	sltu	a0, a0, a2
    31b6: c8b2         	sw	a2, 0x50(sp)
    31b8: e519         	bnez	a0, 0x31c6 <w2c_aes_InvCipher+0x488>
    31ba: a001         	j	0x31ba <w2c_aes_InvCipher+0x47c>
    31bc: 4408         	lw	a0, 0x8(s0)
    31be: 00b53533     	sltu	a0, a0, a1
    31c2: c8b2         	sw	a2, 0x50(sp)
    31c4: c101         	beqz	a0, 0x31c4 <w2c_aes_InvCipher+0x486>
    31c6: 00000097     	auipc	ra, 0x0
    31ca: 000080e7     	jalr	ra <w2c_aes_InvCipher+0x488>
    31ce: 4008         	lw	a0, 0x0(s0)
    31d0: 9556         	add	a0, a0, s5
    31d2: 00854903     	lbu	s2, 0x8(a0)
    31d6: 000da483     	lw	s1, 0x0(s11)
    31da: 4488         	lw	a0, 0x8(s1)
    31dc: 44cc         	lw	a1, 0xc(s1)
    31de: 5612         	lw	a2, 0x24(sp)
    31e0: 0a860413     	addi	s0, a2, 0xa8
    31e4: 00a43533     	sltu	a0, s0, a0
    31e8: 00b035b3     	snez	a1, a1
    31ec: 8d4d         	or	a0, a0, a1
    31ee: e101         	bnez	a0, 0x31ee <w2c_aes_InvCipher+0x4b0>
    31f0: 00000097     	auipc	ra, 0x0
    31f4: 000080e7     	jalr	ra <w2c_aes_InvCipher+0x4b2>
    31f8: 4088         	lw	a0, 0x0(s1)
    31fa: 9522         	add	a0, a0, s0
    31fc: 00054503     	lbu	a0, 0x0(a0)
    3200: 000da483     	lw	s1, 0x0(s11)
    3204: 44cc         	lw	a1, 0xc(s1)
    3206: 4646         	lw	a2, 0x50(sp)
    3208: 00b61463     	bne	a2, a1, 0x3210 <w2c_aes_InvCipher+0x4d2>
    320c: 448c         	lw	a1, 0x8(s1)
    320e: 460a         	lw	a2, 0x80(sp)
    3210: 00c5b5b3     	sltu	a1, a1, a2
    3214: 01254a33     	xor	s4, a0, s2
    3218: c181         	beqz	a1, 0x3218 <w2c_aes_InvCipher+0x4da>
    321a: 00000097     	auipc	ra, 0x0
    321e: 000080e7     	jalr	ra <w2c_aes_InvCipher+0x4dc>
    3222: 4088         	lw	a0, 0x0(s1)
    3224: 9556         	add	a0, a0, s5
    3226: 01450423     	sb	s4, 0x8(a0)
    322a: 000da403     	lw	s0, 0x0(s11)
    322e: 4408         	lw	a0, 0x8(s0)
    3230: 444c         	lw	a1, 0xc(s0)
    3232: 460a         	lw	a2, 0x80(sp)
    3234: 00a63533     	sltu	a0, a2, a0
    3238: 00b035b3     	snez	a1, a1
    323c: 8d4d         	or	a0, a0, a1
    323e: e101         	bnez	a0, 0x323e <w2c_aes_InvCipher+0x500>
    3240: 00000097     	auipc	ra, 0x0
    3244: 000080e7     	jalr	ra <w2c_aes_InvCipher+0x502>
    3248: cc6a         	sw	s10, 0x18(sp)
    324a: dd56         	sw	s5, 0xb8(sp)
    324c: 4008         	lw	a0, 0x0(s0)
    324e: 4a8a         	lw	s5, 0x80(sp)
    3250: 9556         	add	a0, a0, s5
    3252: 00054903     	lbu	s2, 0x0(a0)
    3256: 000da483     	lw	s1, 0x0(s11)
    325a: 4488         	lw	a0, 0x8(s1)
    325c: 44cc         	lw	a1, 0xc(s1)
    325e: 5612         	lw	a2, 0x24(sp)
    3260: 0a960413     	addi	s0, a2, 0xa9
    3264: 00a43533     	sltu	a0, s0, a0
    3268: 00b035b3     	snez	a1, a1
    326c: 8d4d         	or	a0, a0, a1
    326e: e101         	bnez	a0, 0x326e <w2c_aes_InvCipher+0x530>
    3270: 00000097     	auipc	ra, 0x0
    3274: 000080e7     	jalr	ra <w2c_aes_InvCipher+0x532>
    3278: 4088         	lw	a0, 0x0(s1)
    327a: 9522         	add	a0, a0, s0
    327c: 00054503     	lbu	a0, 0x0(a0)
    3280: 000da483     	lw	s1, 0x0(s11)
    3284: 448c         	lw	a1, 0x8(s1)
    3286: 44d0         	lw	a2, 0xc(s1)
    3288: 00bab5b3     	sltu	a1, s5, a1
    328c: 00c03633     	snez	a2, a2
    3290: 8dd1         	or	a1, a1, a2
    3292: 01254d33     	xor	s10, a0, s2
    3296: e181         	bnez	a1, 0x3296 <w2c_aes_InvCipher+0x558>
    3298: 00000097     	auipc	ra, 0x0
    329c: 000080e7     	jalr	ra <w2c_aes_InvCipher+0x55a>
    32a0: 4088         	lw	a0, 0x0(s1)
    32a2: 9556         	add	a0, a0, s5
    32a4: 01a50023     	sb	s10, 0x0(a0)
    32a8: 000da403     	lw	s0, 0x0(s11)
    32ac: 4408         	lw	a0, 0x8(s0)
    32ae: 444c         	lw	a1, 0xc(s0)
    32b0: 566a         	lw	a2, 0xb8(sp)
    32b2: 0629         	addi	a2, a2, 0xa
    32b4: c932         	sw	a2, 0x90(sp)
    32b6: 00a63533     	sltu	a0, a2, a0
    32ba: 00b035b3     	snez	a1, a1
    32be: 8d4d         	or	a0, a0, a1
    32c0: e101         	bnez	a0, 0x32c0 <w2c_aes_InvCipher+0x582>
    32c2: 00000097     	auipc	ra, 0x0
    32c6: 000080e7     	jalr	ra <w2c_aes_InvCipher+0x584>
    32ca: 4008         	lw	a0, 0x0(s0)
    32cc: 45ca         	lw	a1, 0x90(sp)
    32ce: 952e         	add	a0, a0, a1
    32d0: 00054903     	lbu	s2, 0x0(a0)
    32d4: 000da403     	lw	s0, 0x0(s11)
    32d8: 4408         	lw	a0, 0x8(s0)
    32da: 444c         	lw	a1, 0xc(s0)
    32dc: 5612         	lw	a2, 0x24(sp)
    32de: 0aa60493     	addi	s1, a2, 0xaa
    32e2: 00a4b533     	sltu	a0, s1, a0
    32e6: 00b035b3     	snez	a1, a1
    32ea: 8d4d         	or	a0, a0, a1
    32ec: e101         	bnez	a0, 0x32ec <w2c_aes_InvCipher+0x5ae>
    32ee: 00000097     	auipc	ra, 0x0
    32f2: 000080e7     	jalr	ra <w2c_aes_InvCipher+0x5b0>
    32f6: 4008         	lw	a0, 0x0(s0)
    32f8: 9526         	add	a0, a0, s1
    32fa: 00054503     	lbu	a0, 0x0(a0)
    32fe: 000da403     	lw	s0, 0x0(s11)
    3302: 440c         	lw	a1, 0x8(s0)
    3304: 4450         	lw	a2, 0xc(s0)
    3306: 46ca         	lw	a3, 0x90(sp)
    3308: 00b6b5b3     	sltu	a1, a3, a1
    330c: 00c03633     	snez	a2, a2
    3310: 8dd1         	or	a1, a1, a2
    3312: 012544b3     	xor	s1, a0, s2
    3316: e181         	bnez	a1, 0x3316 <w2c_aes_InvCipher+0x5d8>
    3318: 00000097     	auipc	ra, 0x0
    331c: 000080e7     	jalr	ra <w2c_aes_InvCipher+0x5da>
    3320: 4008         	lw	a0, 0x0(s0)
    3322: 45ca         	lw	a1, 0x90(sp)
    3324: 952e         	add	a0, a0, a1
    3326: dc26         	sw	s1, 0x38(sp)
    3328: 00950023     	sb	s1, 0x0(a0)
    332c: 000da403     	lw	s0, 0x0(s11)
    3330: 4408         	lw	a0, 0x8(s0)
    3332: 444c         	lw	a1, 0xc(s0)
    3334: 566a         	lw	a2, 0xb8(sp)
    3336: 062d         	addi	a2, a2, 0xb
    3338: c732         	sw	a2, 0x8c(sp)
    333a: 00a63533     	sltu	a0, a2, a0
    333e: 00b035b3     	snez	a1, a1
    3342: 8d4d         	or	a0, a0, a1
    3344: e101         	bnez	a0, 0x3344 <w2c_aes_InvCipher+0x606>
    3346: 00000097     	auipc	ra, 0x0
    334a: 000080e7     	jalr	ra <w2c_aes_InvCipher+0x608>
    334e: 4008         	lw	a0, 0x0(s0)
    3350: 45ba         	lw	a1, 0x8c(sp)
    3352: 952e         	add	a0, a0, a1
    3354: 00054903     	lbu	s2, 0x0(a0)
    3358: 000da403     	lw	s0, 0x0(s11)
    335c: 4408         	lw	a0, 0x8(s0)
    335e: 444c         	lw	a1, 0xc(s0)
    3360: 5612         	lw	a2, 0x24(sp)
    3362: 0ab60493     	addi	s1, a2, 0xab
    3366: 00a4b533     	sltu	a0, s1, a0
    336a: 00b035b3     	snez	a1, a1
    336e: 8d4d         	or	a0, a0, a1
    3370: e101         	bnez	a0, 0x3370 <w2c_aes_InvCipher+0x632>
    3372: 00000097     	auipc	ra, 0x0
    3376: 000080e7     	jalr	ra <w2c_aes_InvCipher+0x634>
    337a: 4008         	lw	a0, 0x0(s0)
    337c: 9526         	add	a0, a0, s1
    337e: 00054503     	lbu	a0, 0x0(a0)
    3382: 000da403     	lw	s0, 0x0(s11)
    3386: 440c         	lw	a1, 0x8(s0)
    3388: 4450         	lw	a2, 0xc(s0)
    338a: 46ba         	lw	a3, 0x8c(sp)
    338c: 00b6b5b3     	sltu	a1, a3, a1
    3390: 00c03633     	snez	a2, a2
    3394: 8dd1         	or	a1, a1, a2
    3396: 012544b3     	xor	s1, a0, s2
    339a: e181         	bnez	a1, 0x339a <w2c_aes_InvCipher+0x65c>
    339c: 00000097     	auipc	ra, 0x0
    33a0: 000080e7     	jalr	ra <w2c_aes_InvCipher+0x65e>
    33a4: 4008         	lw	a0, 0x0(s0)
    33a6: 45ba         	lw	a1, 0x8c(sp)
    33a8: 952e         	add	a0, a0, a1
    33aa: d726         	sw	s1, 0xac(sp)
    33ac: 00950023     	sb	s1, 0x0(a0)
    33b0: 000da483     	lw	s1, 0x0(s11)
    33b4: 44c8         	lw	a0, 0xc(s1)
    33b6: 55ea         	lw	a1, 0xb8(sp)
    33b8: 00d58613     	addi	a2, a1, 0xd
    33bc: 00b635b3     	sltu	a1, a2, a1
    33c0: d8ae         	sw	a1, 0x70(sp)
    33c2: 00a58763     	beq	a1, a0, 0x33d0 <w2c_aes_InvCipher+0x692>
    33c6: 00b53533     	sltu	a0, a0, a1
    33ca: cf32         	sw	a2, 0x9c(sp)
    33cc: e519         	bnez	a0, 0x33da <w2c_aes_InvCipher+0x69c>
    33ce: a001         	j	0x33ce <w2c_aes_InvCipher+0x690>
    33d0: 4488         	lw	a0, 0x8(s1)
    33d2: 00c53533     	sltu	a0, a0, a2
    33d6: cf32         	sw	a2, 0x9c(sp)
    33d8: c101         	beqz	a0, 0x33d8 <w2c_aes_InvCipher+0x69a>
    33da: 00000097     	auipc	ra, 0x0
    33de: 000080e7     	jalr	ra <w2c_aes_InvCipher+0x69c>
    33e2: 4088         	lw	a0, 0x0(s1)
    33e4: 55ea         	lw	a1, 0xb8(sp)
    33e6: 952e         	add	a0, a0, a1
    33e8: 00c54903     	lbu	s2, 0xc(a0)
    33ec: 000da403     	lw	s0, 0x0(s11)
    33f0: 4408         	lw	a0, 0x8(s0)
    33f2: 444c         	lw	a1, 0xc(s0)
    33f4: 5612         	lw	a2, 0x24(sp)
    33f6: 0ac60493     	addi	s1, a2, 0xac
    33fa: 00a4b533     	sltu	a0, s1, a0
    33fe: 00b035b3     	snez	a1, a1
    3402: 8d4d         	or	a0, a0, a1
    3404: e101         	bnez	a0, 0x3404 <w2c_aes_InvCipher+0x6c6>
    3406: 00000097     	auipc	ra, 0x0
    340a: 000080e7     	jalr	ra <w2c_aes_InvCipher+0x6c8>
    340e: 4008         	lw	a0, 0x0(s0)
    3410: 9526         	add	a0, a0, s1
    3412: 00054503     	lbu	a0, 0x0(a0)
    3416: 000da483     	lw	s1, 0x0(s11)
    341a: 44cc         	lw	a1, 0xc(s1)
    341c: 5646         	lw	a2, 0x70(sp)
    341e: 00b61463     	bne	a2, a1, 0x3426 <w2c_aes_InvCipher+0x6e8>
    3422: 448c         	lw	a1, 0x8(s1)
    3424: 467a         	lw	a2, 0x9c(sp)
    3426: 00c5b5b3     	sltu	a1, a1, a2
    342a: 01254433     	xor	s0, a0, s2
    342e: c181         	beqz	a1, 0x342e <w2c_aes_InvCipher+0x6f0>
    3430: 00000097     	auipc	ra, 0x0
    3434: 000080e7     	jalr	ra <w2c_aes_InvCipher+0x6f2>
    3438: 4088         	lw	a0, 0x0(s1)
    343a: 55ea         	lw	a1, 0xb8(sp)
    343c: 952e         	add	a0, a0, a1
    343e: 00850623     	sb	s0, 0xc(a0)
    3442: 000da483     	lw	s1, 0x0(s11)
    3446: 4488         	lw	a0, 0x8(s1)
    3448: 44cc         	lw	a1, 0xc(s1)
    344a: 467a         	lw	a2, 0x9c(sp)
    344c: 00a63533     	sltu	a0, a2, a0
    3450: 00b035b3     	snez	a1, a1
    3454: 8d4d         	or	a0, a0, a1
    3456: e101         	bnez	a0, 0x3456 <w2c_aes_InvCipher+0x718>
    3458: 00000097     	auipc	ra, 0x0
    345c: 000080e7     	jalr	ra <w2c_aes_InvCipher+0x71a>
    3460: 4088         	lw	a0, 0x0(s1)
    3462: 45fa         	lw	a1, 0x9c(sp)
    3464: 952e         	add	a0, a0, a1
    3466: 00054a83     	lbu	s5, 0x0(a0)
    346a: 000da483     	lw	s1, 0x0(s11)
    346e: 4488         	lw	a0, 0x8(s1)
    3470: 44cc         	lw	a1, 0xc(s1)
    3472: 5612         	lw	a2, 0x24(sp)
    3474: 0ad60913     	addi	s2, a2, 0xad
    3478: 00a93533     	sltu	a0, s2, a0
    347c: 00b035b3     	snez	a1, a1
    3480: 8d4d         	or	a0, a0, a1
    3482: e101         	bnez	a0, 0x3482 <w2c_aes_InvCipher+0x744>
    3484: 00000097     	auipc	ra, 0x0
    3488: 000080e7     	jalr	ra <w2c_aes_InvCipher+0x746>
    348c: 4088         	lw	a0, 0x0(s1)
    348e: 954a         	add	a0, a0, s2
    3490: 00054503     	lbu	a0, 0x0(a0)
    3494: 000da483     	lw	s1, 0x0(s11)
    3498: 448c         	lw	a1, 0x8(s1)
    349a: 44d0         	lw	a2, 0xc(s1)
    349c: 46fa         	lw	a3, 0x9c(sp)
    349e: 00b6b5b3     	sltu	a1, a3, a1
    34a2: 00c03633     	snez	a2, a2
    34a6: 8dd1         	or	a1, a1, a2
    34a8: 01554b33     	xor	s6, a0, s5
    34ac: e181         	bnez	a1, 0x34ac <w2c_aes_InvCipher+0x76e>
    34ae: 00000097     	auipc	ra, 0x0
    34b2: 000080e7     	jalr	ra <w2c_aes_InvCipher+0x770>
    34b6: 4088         	lw	a0, 0x0(s1)
    34b8: 45fa         	lw	a1, 0x9c(sp)
    34ba: 952e         	add	a0, a0, a1
    34bc: 01650023     	sb	s6, 0x0(a0)
    34c0: 000da483     	lw	s1, 0x0(s11)
    34c4: 4488         	lw	a0, 0x8(s1)
    34c6: 44cc         	lw	a1, 0xc(s1)
    34c8: 566a         	lw	a2, 0xb8(sp)
    34ca: 0639         	addi	a2, a2, 0xe
    34cc: c532         	sw	a2, 0x88(sp)
    34ce: 00a63533     	sltu	a0, a2, a0
    34d2: 00b035b3     	snez	a1, a1
    34d6: 8d4d         	or	a0, a0, a1
    34d8: e101         	bnez	a0, 0x34d8 <w2c_aes_InvCipher+0x79a>
    34da: 00000097     	auipc	ra, 0x0
    34de: 000080e7     	jalr	ra <w2c_aes_InvCipher+0x79c>
    34e2: ce66         	sw	s9, 0x1c(sp)
    34e4: 4088         	lw	a0, 0x0(s1)
    34e6: 45aa         	lw	a1, 0x88(sp)
    34e8: 952e         	add	a0, a0, a1
    34ea: 00054a83     	lbu	s5, 0x0(a0)
    34ee: 000da483     	lw	s1, 0x0(s11)
    34f2: 4488         	lw	a0, 0x8(s1)
    34f4: 44cc         	lw	a1, 0xc(s1)
    34f6: 5612         	lw	a2, 0x24(sp)
    34f8: 0ae60913     	addi	s2, a2, 0xae
    34fc: 00a93533     	sltu	a0, s2, a0
    3500: 00b035b3     	snez	a1, a1
    3504: 8d4d         	or	a0, a0, a1
    3506: e101         	bnez	a0, 0x3506 <w2c_aes_InvCipher+0x7c8>
    3508: 00000097     	auipc	ra, 0x0
    350c: 000080e7     	jalr	ra <w2c_aes_InvCipher+0x7ca>
    3510: 4088         	lw	a0, 0x0(s1)
    3512: 954a         	add	a0, a0, s2
    3514: 00054503     	lbu	a0, 0x0(a0)
    3518: 000da483     	lw	s1, 0x0(s11)
    351c: 448c         	lw	a1, 0x8(s1)
    351e: 44d0         	lw	a2, 0xc(s1)
    3520: 46aa         	lw	a3, 0x88(sp)
    3522: 00b6b5b3     	sltu	a1, a3, a1
    3526: 00c03633     	snez	a2, a2
    352a: 8dd1         	or	a1, a1, a2
    352c: 01554cb3     	xor	s9, a0, s5
    3530: e181         	bnez	a1, 0x3530 <w2c_aes_InvCipher+0x7f2>
    3532: 00000097     	auipc	ra, 0x0
    3536: 000080e7     	jalr	ra <w2c_aes_InvCipher+0x7f4>
    353a: 4088         	lw	a0, 0x0(s1)
    353c: 45aa         	lw	a1, 0x88(sp)
    353e: 952e         	add	a0, a0, a1
    3540: 01950023     	sb	s9, 0x0(a0)
    3544: 000da483     	lw	s1, 0x0(s11)
    3548: 4488         	lw	a0, 0x8(s1)
    354a: 44cc         	lw	a1, 0xc(s1)
    354c: 566a         	lw	a2, 0xb8(sp)
    354e: 063d         	addi	a2, a2, 0xf
    3550: c332         	sw	a2, 0x84(sp)
    3552: 00a63533     	sltu	a0, a2, a0
    3556: 00b035b3     	snez	a1, a1
    355a: 8d4d         	or	a0, a0, a1
    355c: e101         	bnez	a0, 0x355c <w2c_aes_InvCipher+0x81e>
    355e: 00000097     	auipc	ra, 0x0
    3562: 000080e7     	jalr	ra <w2c_aes_InvCipher+0x820>
    3566: 4088         	lw	a0, 0x0(s1)
    3568: 459a         	lw	a1, 0x84(sp)
    356a: 952e         	add	a0, a0, a1
    356c: 00054a83     	lbu	s5, 0x0(a0)
    3570: 000da483     	lw	s1, 0x0(s11)
    3574: 4488         	lw	a0, 0x8(s1)
    3576: 44cc         	lw	a1, 0xc(s1)
    3578: 5612         	lw	a2, 0x24(sp)
    357a: 0af60913     	addi	s2, a2, 0xaf
    357e: 00a93533     	sltu	a0, s2, a0
    3582: 00b035b3     	snez	a1, a1
    3586: 8d4d         	or	a0, a0, a1
    3588: e101         	bnez	a0, 0x3588 <w2c_aes_InvCipher+0x84a>
    358a: 00000097     	auipc	ra, 0x0
    358e: 000080e7     	jalr	ra <w2c_aes_InvCipher+0x84c>
    3592: 4088         	lw	a0, 0x0(s1)
    3594: 5592         	lw	a1, 0x24(sp)
    3596: 00c58613     	addi	a2, a1, 0xc
    359a: c432         	sw	a2, 0x8(sp)
    359c: 00858613     	addi	a2, a1, 0x8
    35a0: c232         	sw	a2, 0x4(sp)
    35a2: 0591         	addi	a1, a1, 0x4
    35a4: c02e         	sw	a1, 0x0(sp)
    35a6: 55ea         	lw	a1, 0xb8(sp)
    35a8: 462a         	lw	a2, 0x88(sp)
    35aa: 00b63633     	sltu	a2, a2, a1
    35ae: c2b2         	sw	a2, 0x44(sp)
    35b0: 464a         	lw	a2, 0x90(sp)
    35b2: 00b63633     	sltu	a2, a2, a1
    35b6: c0b2         	sw	a2, 0x40(sp)
    35b8: 466a         	lw	a2, 0x98(sp)
    35ba: 00b63633     	sltu	a2, a2, a1
    35be: de32         	sw	a2, 0x3c(sp)
    35c0: 461a         	lw	a2, 0x84(sp)
    35c2: 00b63633     	sltu	a2, a2, a1
    35c6: deb2         	sw	a2, 0x7c(sp)
    35c8: 463a         	lw	a2, 0x8c(sp)
    35ca: 00b63633     	sltu	a2, a2, a1
    35ce: d6b2         	sw	a2, 0x6c(sp)
    35d0: 465a         	lw	a2, 0x94(sp)
    35d2: 00b63633     	sltu	a2, a2, a1
    35d6: d4b2         	sw	a2, 0x68(sp)
    35d8: 01058613     	addi	a2, a1, 0x10
    35dc: 00c58693     	addi	a3, a1, 0xc
    35e0: 00858713     	addi	a4, a1, 0x8
    35e4: 47a5         	li	a5, 0x9
    35e6: dcbe         	sw	a5, 0x78(sp)
    35e8: 954a         	add	a0, a0, s2
    35ea: 00054503     	lbu	a0, 0x0(a0)
    35ee: ca32         	sw	a2, 0x14(sp)
    35f0: 00b63633     	sltu	a2, a2, a1
    35f4: d2b2         	sw	a2, 0x64(sp)
    35f6: c836         	sw	a3, 0x10(sp)
    35f8: 00b6b633     	sltu	a2, a3, a1
    35fc: d0b2         	sw	a2, 0x60(sp)
    35fe: c63a         	sw	a4, 0xc(sp)
    3600: 00b735b3     	sltu	a1, a4, a1
    3604: ceae         	sw	a1, 0x5c(sp)
    3606: 01554533     	xor	a0, a0, s5
    360a: da2a         	sw	a0, 0x34(sp)
    360c: 4a8a         	lw	s5, 0x80(sp)
    360e: c5ee         	sw	s11, 0xc8(sp)
    3610: a819         	j	0x3626 <w2c_aes_InvCipher+0x8e8>
    3612: 4008         	lw	a0, 0x0(s0)
    3614: 45fa         	lw	a1, 0x9c(sp)
    3616: 952e         	add	a0, a0, a1
    3618: 00054b03     	lbu	s6, 0x0(a0)
    361c: 5566         	lw	a0, 0x78(sp)
    361e: 157d         	addi	a0, a0, -0x1
    3620: dcaa         	sw	a0, 0x78(sp)
    3622: 8a4a         	mv	s4, s2
    3624: 545a         	lw	s0, 0xb4(sp)
    3626: 000da483     	lw	s1, 0x0(s11)
    362a: 44c8         	lw	a0, 0xc(s1)
    362c: 0ff47413     	zext.b	s0, s0
    3630: 11140593     	addi	a1, s0, 0x111
    3634: 0085b633     	sltu	a2, a1, s0
    3638: 00a60763     	beq	a2, a0, 0x3646 <w2c_aes_InvCipher+0x908>
    363c: 00c53533     	sltu	a0, a0, a2
    3640: 55c6         	lw	a1, 0x70(sp)
    3642: e519         	bnez	a0, 0x3650 <w2c_aes_InvCipher+0x912>
    3644: a001         	j	0x3644 <w2c_aes_InvCipher+0x906>
    3646: 4488         	lw	a0, 0x8(s1)
    3648: 00b53533     	sltu	a0, a0, a1
    364c: 55c6         	lw	a1, 0x70(sp)
    364e: c101         	beqz	a0, 0x364e <w2c_aes_InvCipher+0x910>
    3650: 00000097     	auipc	ra, 0x0
    3654: 000080e7     	jalr	ra <w2c_aes_InvCipher+0x912>
    3658: 55c6         	lw	a1, 0x70(sp)
    365a: 4088         	lw	a0, 0x0(s1)
    365c: 9522         	add	a0, a0, s0
    365e: 11054483     	lbu	s1, 0x110(a0)
    3662: 000da403     	lw	s0, 0x0(s11)
    3666: 4448         	lw	a0, 0xc(s0)
    3668: 00a59463     	bne	a1, a0, 0x3670 <w2c_aes_InvCipher+0x932>
    366c: 4408         	lw	a0, 0x8(s0)
    366e: 45fa         	lw	a1, 0x9c(sp)
    3670: 00b53533     	sltu	a0, a0, a1
    3674: c101         	beqz	a0, 0x3674 <w2c_aes_InvCipher+0x936>
    3676: 00000097     	auipc	ra, 0x0
    367a: 000080e7     	jalr	ra <w2c_aes_InvCipher+0x938>
    367e: 4008         	lw	a0, 0x0(s0)
    3680: 55ea         	lw	a1, 0xb8(sp)
    3682: 952e         	add	a0, a0, a1
    3684: db26         	sw	s1, 0xb4(sp)
    3686: 00950623     	sb	s1, 0xc(a0)
    368a: 000da483     	lw	s1, 0x0(s11)
    368e: 44c8         	lw	a0, 0xc(s1)
    3690: 0ffa7413     	zext.b	s0, s4
    3694: 11140593     	addi	a1, s0, 0x111
    3698: 0085b633     	sltu	a2, a1, s0
    369c: 00a60663     	beq	a2, a0, 0x36a8 <w2c_aes_InvCipher+0x96a>
    36a0: 00c53533     	sltu	a0, a0, a2
    36a4: e511         	bnez	a0, 0x36b0 <w2c_aes_InvCipher+0x972>
    36a6: a001         	j	0x36a6 <w2c_aes_InvCipher+0x968>
    36a8: 4488         	lw	a0, 0x8(s1)
    36aa: 00b53533     	sltu	a0, a0, a1
    36ae: c101         	beqz	a0, 0x36ae <w2c_aes_InvCipher+0x970>
    36b0: 00000097     	auipc	ra, 0x0
    36b4: 000080e7     	jalr	ra <w2c_aes_InvCipher+0x972>
    36b8: 4088         	lw	a0, 0x0(s1)
    36ba: 9522         	add	a0, a0, s0
    36bc: 11054483     	lbu	s1, 0x110(a0)
    36c0: 000da403     	lw	s0, 0x0(s11)
    36c4: 4448         	lw	a0, 0xc(s0)
    36c6: 45c6         	lw	a1, 0x50(sp)
    36c8: 00a58663     	beq	a1, a0, 0x36d4 <w2c_aes_InvCipher+0x996>
    36cc: 00b53533     	sltu	a0, a0, a1
    36d0: e511         	bnez	a0, 0x36dc <w2c_aes_InvCipher+0x99e>
    36d2: a001         	j	0x36d2 <w2c_aes_InvCipher+0x994>
    36d4: 4408         	lw	a0, 0x8(s0)
    36d6: 01553533     	sltu	a0, a0, s5
    36da: c101         	beqz	a0, 0x36da <w2c_aes_InvCipher+0x99c>
    36dc: 00000097     	auipc	ra, 0x0
    36e0: 000080e7     	jalr	ra <w2c_aes_InvCipher+0x99e>
    36e4: 4008         	lw	a0, 0x0(s0)
    36e6: 55ea         	lw	a1, 0xb8(sp)
    36e8: 952e         	add	a0, a0, a1
    36ea: d126         	sw	s1, 0xa0(sp)
    36ec: 00950423     	sb	s1, 0x8(a0)
    36f0: 000da483     	lw	s1, 0x0(s11)
    36f4: 44c8         	lw	a0, 0xc(s1)
    36f6: 0ffc7413     	zext.b	s0, s8
    36fa: 11140593     	addi	a1, s0, 0x111
    36fe: 0085b633     	sltu	a2, a1, s0
    3702: 00a60663     	beq	a2, a0, 0x370e <w2c_aes_InvCipher+0x9d0>
    3706: 00c53533     	sltu	a0, a0, a2
    370a: e511         	bnez	a0, 0x3716 <w2c_aes_InvCipher+0x9d8>
    370c: a001         	j	0x370c <w2c_aes_InvCipher+0x9ce>
    370e: 4488         	lw	a0, 0x8(s1)
    3710: 00b53533     	sltu	a0, a0, a1
    3714: c101         	beqz	a0, 0x3714 <w2c_aes_InvCipher+0x9d6>
    3716: 00000097     	auipc	ra, 0x0
    371a: 000080e7     	jalr	ra <w2c_aes_InvCipher+0x9d8>
    371e: 4088         	lw	a0, 0x0(s1)
    3720: 9522         	add	a0, a0, s0
    3722: 11054483     	lbu	s1, 0x110(a0)
    3726: 000da403     	lw	s0, 0x0(s11)
    372a: 4448         	lw	a0, 0xc(s0)
    372c: 45d6         	lw	a1, 0x54(sp)
    372e: 00a59463     	bne	a1, a0, 0x3736 <w2c_aes_InvCipher+0x9f8>
    3732: 4408         	lw	a0, 0x8(s0)
    3734: 55d6         	lw	a1, 0x74(sp)
    3736: 00b53533     	sltu	a0, a0, a1
    373a: c101         	beqz	a0, 0x373a <w2c_aes_InvCipher+0x9fc>
    373c: 00000097     	auipc	ra, 0x0
    3740: 000080e7     	jalr	ra <w2c_aes_InvCipher+0x9fe>
    3744: 4008         	lw	a0, 0x0(s0)
    3746: 55ea         	lw	a1, 0xb8(sp)
    3748: 952e         	add	a0, a0, a1
    374a: d626         	sw	s1, 0x2c(sp)
    374c: 00950223     	sb	s1, 0x4(a0)
    3750: 000da483     	lw	s1, 0x0(s11)
    3754: 44c8         	lw	a0, 0xc(s1)
    3756: 0ff9f413     	zext.b	s0, s3
    375a: 11140593     	addi	a1, s0, 0x111
    375e: 0085b633     	sltu	a2, a1, s0
    3762: 00a60663     	beq	a2, a0, 0x376e <w2c_aes_InvCipher+0xa30>
    3766: 00c53533     	sltu	a0, a0, a2
    376a: e511         	bnez	a0, 0x3776 <w2c_aes_InvCipher+0xa38>
    376c: a001         	j	0x376c <w2c_aes_InvCipher+0xa2e>
    376e: 4488         	lw	a0, 0x8(s1)
    3770: 00b53533     	sltu	a0, a0, a1
    3774: c101         	beqz	a0, 0x3774 <w2c_aes_InvCipher+0xa36>
    3776: 00000097     	auipc	ra, 0x0
    377a: 000080e7     	jalr	ra <w2c_aes_InvCipher+0xa38>
    377e: 4088         	lw	a0, 0x0(s1)
    3780: 9522         	add	a0, a0, s0
    3782: 11054903     	lbu	s2, 0x110(a0)
    3786: 000da403     	lw	s0, 0x0(s11)
    378a: 4408         	lw	a0, 0x8(s0)
    378c: 444c         	lw	a1, 0xc(s0)
    378e: 566a         	lw	a2, 0xb8(sp)
    3790: 00a63533     	sltu	a0, a2, a0
    3794: 00b035b3     	snez	a1, a1
    3798: 8d4d         	or	a0, a0, a1
    379a: e101         	bnez	a0, 0x379a <w2c_aes_InvCipher+0xa5c>
    379c: 00000097     	auipc	ra, 0x0
    37a0: 000080e7     	jalr	ra <w2c_aes_InvCipher+0xa5e>
    37a4: 4008         	lw	a0, 0x0(s0)
    37a6: 55ea         	lw	a1, 0xb8(sp)
    37a8: 952e         	add	a0, a0, a1
    37aa: 01250023     	sb	s2, 0x0(a0)
    37ae: 000da483     	lw	s1, 0x0(s11)
    37b2: 44c8         	lw	a0, 0xc(s1)
    37b4: 0ffd7413     	zext.b	s0, s10
    37b8: 11140593     	addi	a1, s0, 0x111
    37bc: 0085b633     	sltu	a2, a1, s0
    37c0: 00a60563     	beq	a2, a0, 0x37ca <w2c_aes_InvCipher+0xa8c>
    37c4: 00c53533     	sltu	a0, a0, a2
    37c8: a021         	j	0x37d0 <w2c_aes_InvCipher+0xa92>
    37ca: 4488         	lw	a0, 0x8(s1)
    37cc: 00b53533     	sltu	a0, a0, a1
    37d0: 4c06         	lw	s8, 0x40(sp)
    37d2: 59ea         	lw	s3, 0xb8(sp)
    37d4: c101         	beqz	a0, 0x37d4 <w2c_aes_InvCipher+0xa96>
    37d6: 00000097     	auipc	ra, 0x0
    37da: 000080e7     	jalr	ra <w2c_aes_InvCipher+0xa98>
    37de: 4088         	lw	a0, 0x0(s1)
    37e0: 9522         	add	a0, a0, s0
    37e2: 11054483     	lbu	s1, 0x110(a0)
    37e6: 000da403     	lw	s0, 0x0(s11)
    37ea: 4448         	lw	a0, 0xc(s0)
    37ec: 4596         	lw	a1, 0x44(sp)
    37ee: 00a59463     	bne	a1, a0, 0x37f6 <w2c_aes_InvCipher+0xab8>
    37f2: 4408         	lw	a0, 0x8(s0)
    37f4: 45aa         	lw	a1, 0x88(sp)
    37f6: 00b53533     	sltu	a0, a0, a1
    37fa: c101         	beqz	a0, 0x37fa <w2c_aes_InvCipher+0xabc>
    37fc: 00000097     	auipc	ra, 0x0
    3800: 000080e7     	jalr	ra <w2c_aes_InvCipher+0xabe>
    3804: 4008         	lw	a0, 0x0(s0)
    3806: 45fa         	lw	a1, 0x9c(sp)
    3808: 952e         	add	a0, a0, a1
    380a: d526         	sw	s1, 0xa8(sp)
    380c: 00950023     	sb	s1, 0x0(a0)
    3810: 000da403     	lw	s0, 0x0(s11)
    3814: 4448         	lw	a0, 0xc(s0)
    3816: 0ffbf493     	zext.b	s1, s7
    381a: 11148593     	addi	a1, s1, 0x111
    381e: 0095b633     	sltu	a2, a1, s1
    3822: 00a60563     	beq	a2, a0, 0x382c <w2c_aes_InvCipher+0xaee>
    3826: 00c53533     	sltu	a0, a0, a2
    382a: a021         	j	0x3832 <w2c_aes_InvCipher+0xaf4>
    382c: 4408         	lw	a0, 0x8(s0)
    382e: 00b53533     	sltu	a0, a0, a1
    3832: 4a36         	lw	s4, 0x4c(sp)
    3834: 4aa6         	lw	s5, 0x48(sp)
    3836: 4be6         	lw	s7, 0x58(sp)
    3838: c101         	beqz	a0, 0x3838 <w2c_aes_InvCipher+0xafa>
    383a: 00000097     	auipc	ra, 0x0
    383e: 000080e7     	jalr	ra <w2c_aes_InvCipher+0xafc>
    3842: 4008         	lw	a0, 0x0(s0)
    3844: 9526         	add	a0, a0, s1
    3846: 11054483     	lbu	s1, 0x110(a0)
    384a: 000da403     	lw	s0, 0x0(s11)
    384e: 4448         	lw	a0, 0xc(s0)
    3850: 00ac0663     	beq	s8, a0, 0x385c <w2c_aes_InvCipher+0xb1e>
    3854: 01853533     	sltu	a0, a0, s8
    3858: e519         	bnez	a0, 0x3866 <w2c_aes_InvCipher+0xb28>
    385a: a001         	j	0x385a <w2c_aes_InvCipher+0xb1c>
    385c: 4408         	lw	a0, 0x8(s0)
    385e: 45ca         	lw	a1, 0x90(sp)
    3860: 00b53533     	sltu	a0, a0, a1
    3864: c101         	beqz	a0, 0x3864 <w2c_aes_InvCipher+0xb26>
    3866: 00000097     	auipc	ra, 0x0
    386a: 000080e7     	jalr	ra <w2c_aes_InvCipher+0xb28>
    386e: 4008         	lw	a0, 0x0(s0)
    3870: 458a         	lw	a1, 0x80(sp)
    3872: 952e         	add	a0, a0, a1
    3874: d826         	sw	s1, 0x30(sp)
    3876: 00950023     	sb	s1, 0x0(a0)
    387a: 000da403     	lw	s0, 0x0(s11)
    387e: 4448         	lw	a0, 0xc(s0)
    3880: 0b014483     	lbu	s1, 0xb0(sp)
    3884: 11148593     	addi	a1, s1, 0x111
    3888: 0095b633     	sltu	a2, a1, s1
    388c: 00a60663     	beq	a2, a0, 0x3898 <w2c_aes_InvCipher+0xb5a>
    3890: 00c53533     	sltu	a0, a0, a2
    3894: e511         	bnez	a0, 0x38a0 <w2c_aes_InvCipher+0xb62>
    3896: a001         	j	0x3896 <w2c_aes_InvCipher+0xb58>
    3898: 4408         	lw	a0, 0x8(s0)
    389a: 00b53533     	sltu	a0, a0, a1
    389e: c101         	beqz	a0, 0x389e <w2c_aes_InvCipher+0xb60>
    38a0: 00000097     	auipc	ra, 0x0
    38a4: 000080e7     	jalr	ra <w2c_aes_InvCipher+0xb62>
    38a8: 4008         	lw	a0, 0x0(s0)
    38aa: 9526         	add	a0, a0, s1
    38ac: 11054483     	lbu	s1, 0x110(a0)
    38b0: 000da403     	lw	s0, 0x0(s11)
    38b4: 4448         	lw	a0, 0xc(s0)
    38b6: 55f2         	lw	a1, 0x3c(sp)
    38b8: 00a59463     	bne	a1, a0, 0x38c0 <w2c_aes_InvCipher+0xb82>
    38bc: 4408         	lw	a0, 0x8(s0)
    38be: 45ea         	lw	a1, 0x98(sp)
    38c0: 00b53533     	sltu	a0, a0, a1
    38c4: c101         	beqz	a0, 0x38c4 <w2c_aes_InvCipher+0xb86>
    38c6: 00000097     	auipc	ra, 0x0
    38ca: 000080e7     	jalr	ra <w2c_aes_InvCipher+0xb88>
    38ce: 4008         	lw	a0, 0x0(s0)
    38d0: 55d6         	lw	a1, 0x74(sp)
    38d2: 952e         	add	a0, a0, a1
    38d4: d426         	sw	s1, 0x28(sp)
    38d6: 00950023     	sb	s1, 0x0(a0)
    38da: 000da403     	lw	s0, 0x0(s11)
    38de: 4448         	lw	a0, 0xc(s0)
    38e0: 0ffb7493     	zext.b	s1, s6
    38e4: 11148593     	addi	a1, s1, 0x111
    38e8: 0095b633     	sltu	a2, a1, s1
    38ec: 00a60663     	beq	a2, a0, 0x38f8 <w2c_aes_InvCipher+0xbba>
    38f0: 00c53533     	sltu	a0, a0, a2
    38f4: e511         	bnez	a0, 0x3900 <w2c_aes_InvCipher+0xbc2>
    38f6: a001         	j	0x38f6 <w2c_aes_InvCipher+0xbb8>
    38f8: 4408         	lw	a0, 0x8(s0)
    38fa: 00b53533     	sltu	a0, a0, a1
    38fe: c101         	beqz	a0, 0x38fe <w2c_aes_InvCipher+0xbc0>
    3900: 00000097     	auipc	ra, 0x0
    3904: 000080e7     	jalr	ra <w2c_aes_InvCipher+0xbc2>
    3908: 4008         	lw	a0, 0x0(s0)
    390a: 9526         	add	a0, a0, s1
    390c: 11054c03     	lbu	s8, 0x110(a0)
    3910: 000da403     	lw	s0, 0x0(s11)
    3914: 4448         	lw	a0, 0xc(s0)
    3916: 00aa0663     	beq	s4, a0, 0x3922 <w2c_aes_InvCipher+0xbe4>
    391a: 01453533     	sltu	a0, a0, s4
    391e: e519         	bnez	a0, 0x392c <w2c_aes_InvCipher+0xbee>
    3920: a001         	j	0x3920 <w2c_aes_InvCipher+0xbe2>
    3922: 4408         	lw	a0, 0x8(s0)
    3924: 5582         	lw	a1, 0x20(sp)
    3926: 00b53533     	sltu	a0, a0, a1
    392a: c101         	beqz	a0, 0x392a <w2c_aes_InvCipher+0xbec>
    392c: 00000097     	auipc	ra, 0x0
    3930: 000080e7     	jalr	ra <w2c_aes_InvCipher+0xbee>
    3934: 4008         	lw	a0, 0x0(s0)
    3936: 954e         	add	a0, a0, s3
    3938: 018500a3     	sb	s8, 0x1(a0)
    393c: 000da403     	lw	s0, 0x0(s11)
    3940: 4448         	lw	a0, 0xc(s0)
    3942: 0a414483     	lbu	s1, 0xa4(sp)
    3946: 11148593     	addi	a1, s1, 0x111
    394a: 0095b633     	sltu	a2, a1, s1
    394e: 00a60763     	beq	a2, a0, 0x395c <w2c_aes_InvCipher+0xc1e>
    3952: 00c53533     	sltu	a0, a0, a2
    3956: 55f6         	lw	a1, 0x7c(sp)
    3958: e519         	bnez	a0, 0x3966 <w2c_aes_InvCipher+0xc28>
    395a: a001         	j	0x395a <w2c_aes_InvCipher+0xc1c>
    395c: 4408         	lw	a0, 0x8(s0)
    395e: 00b53533     	sltu	a0, a0, a1
    3962: 55f6         	lw	a1, 0x7c(sp)
    3964: c101         	beqz	a0, 0x3964 <w2c_aes_InvCipher+0xc26>
    3966: 00000097     	auipc	ra, 0x0
    396a: 000080e7     	jalr	ra <w2c_aes_InvCipher+0xc28>
    396e: 55f6         	lw	a1, 0x7c(sp)
    3970: 4008         	lw	a0, 0x0(s0)
    3972: 9526         	add	a0, a0, s1
    3974: 11054483     	lbu	s1, 0x110(a0)
    3978: 000da403     	lw	s0, 0x0(s11)
    397c: 4448         	lw	a0, 0xc(s0)
    397e: 00a59463     	bne	a1, a0, 0x3986 <w2c_aes_InvCipher+0xc48>
    3982: 4408         	lw	a0, 0x8(s0)
    3984: 459a         	lw	a1, 0x84(sp)
    3986: 00b53533     	sltu	a0, a0, a1
    398a: c101         	beqz	a0, 0x398a <w2c_aes_InvCipher+0xc4c>
    398c: 00000097     	auipc	ra, 0x0
    3990: 000080e7     	jalr	ra <w2c_aes_InvCipher+0xc4e>
    3994: 4008         	lw	a0, 0x0(s0)
    3996: 45aa         	lw	a1, 0x88(sp)
    3998: 952e         	add	a0, a0, a1
    399a: d926         	sw	s1, 0xb0(sp)
    399c: 00950023     	sb	s1, 0x0(a0)
    39a0: 000da403     	lw	s0, 0x0(s11)
    39a4: 4448         	lw	a0, 0xc(s0)
    39a6: 0bc14483     	lbu	s1, 0xbc(sp)
    39aa: 11148593     	addi	a1, s1, 0x111
    39ae: 0095b633     	sltu	a2, a1, s1
    39b2: 00a60763     	beq	a2, a0, 0x39c0 <w2c_aes_InvCipher+0xc82>
    39b6: 00c53533     	sltu	a0, a0, a2
    39ba: 55b6         	lw	a1, 0x6c(sp)
    39bc: e519         	bnez	a0, 0x39ca <w2c_aes_InvCipher+0xc8c>
    39be: a001         	j	0x39be <w2c_aes_InvCipher+0xc80>
    39c0: 4408         	lw	a0, 0x8(s0)
    39c2: 00b53533     	sltu	a0, a0, a1
    39c6: 55b6         	lw	a1, 0x6c(sp)
    39c8: c101         	beqz	a0, 0x39c8 <w2c_aes_InvCipher+0xc8a>
    39ca: 00000097     	auipc	ra, 0x0
    39ce: 000080e7     	jalr	ra <w2c_aes_InvCipher+0xc8c>
    39d2: 55b6         	lw	a1, 0x6c(sp)
    39d4: 4008         	lw	a0, 0x0(s0)
    39d6: 9526         	add	a0, a0, s1
    39d8: 11054483     	lbu	s1, 0x110(a0)
    39dc: 000da403     	lw	s0, 0x0(s11)
    39e0: 4448         	lw	a0, 0xc(s0)
    39e2: 00a59463     	bne	a1, a0, 0x39ea <w2c_aes_InvCipher+0xcac>
    39e6: 4408         	lw	a0, 0x8(s0)
    39e8: 45ba         	lw	a1, 0x8c(sp)
    39ea: 00b53533     	sltu	a0, a0, a1
    39ee: c101         	beqz	a0, 0x39ee <w2c_aes_InvCipher+0xcb0>
    39f0: 00000097     	auipc	ra, 0x0
    39f4: 000080e7     	jalr	ra <w2c_aes_InvCipher+0xcb2>
    39f8: 4008         	lw	a0, 0x0(s0)
    39fa: 45ca         	lw	a1, 0x90(sp)
    39fc: 952e         	add	a0, a0, a1
    39fe: df26         	sw	s1, 0xbc(sp)
    3a00: 00950023     	sb	s1, 0x0(a0)
    3a04: 000da403     	lw	s0, 0x0(s11)
    3a08: 4448         	lw	a0, 0xc(s0)
    3a0a: 0ffcf493     	zext.b	s1, s9
    3a0e: 11148593     	addi	a1, s1, 0x111
    3a12: 0095b633     	sltu	a2, a1, s1
    3a16: 00a60763     	beq	a2, a0, 0x3a24 <w2c_aes_InvCipher+0xce6>
    3a1a: 00c53533     	sltu	a0, a0, a2
    3a1e: 55a6         	lw	a1, 0x68(sp)
    3a20: e519         	bnez	a0, 0x3a2e <w2c_aes_InvCipher+0xcf0>
    3a22: a001         	j	0x3a22 <w2c_aes_InvCipher+0xce4>
    3a24: 4408         	lw	a0, 0x8(s0)
    3a26: 00b53533     	sltu	a0, a0, a1
    3a2a: 55a6         	lw	a1, 0x68(sp)
    3a2c: c101         	beqz	a0, 0x3a2c <w2c_aes_InvCipher+0xcee>
    3a2e: 00000097     	auipc	ra, 0x0
    3a32: 000080e7     	jalr	ra <w2c_aes_InvCipher+0xcf0>
    3a36: 55a6         	lw	a1, 0x68(sp)
    3a38: 4008         	lw	a0, 0x0(s0)
    3a3a: 9526         	add	a0, a0, s1
    3a3c: 11054b03     	lbu	s6, 0x110(a0)
    3a40: 000da403     	lw	s0, 0x0(s11)
    3a44: 4448         	lw	a0, 0xc(s0)
    3a46: 00a59463     	bne	a1, a0, 0x3a4e <w2c_aes_InvCipher+0xd10>
    3a4a: 4408         	lw	a0, 0x8(s0)
    3a4c: 45da         	lw	a1, 0x94(sp)
    3a4e: 00b53533     	sltu	a0, a0, a1
    3a52: 54e2         	lw	s1, 0x38(sp)
    3a54: c101         	beqz	a0, 0x3a54 <w2c_aes_InvCipher+0xd16>
    3a56: 00000097     	auipc	ra, 0x0
    3a5a: 000080e7     	jalr	ra <w2c_aes_InvCipher+0xd18>
    3a5e: 4008         	lw	a0, 0x0(s0)
    3a60: 45ea         	lw	a1, 0x98(sp)
    3a62: 952e         	add	a0, a0, a1
    3a64: 01650023     	sb	s6, 0x0(a0)
    3a68: 000da403     	lw	s0, 0x0(s11)
    3a6c: 4448         	lw	a0, 0xc(s0)
    3a6e: 0ff4f493     	zext.b	s1, s1
    3a72: 11148593     	addi	a1, s1, 0x111
    3a76: 0095b633     	sltu	a2, a1, s1
    3a7a: 00a60663     	beq	a2, a0, 0x3a86 <w2c_aes_InvCipher+0xd48>
    3a7e: 00c53533     	sltu	a0, a0, a2
    3a82: e511         	bnez	a0, 0x3a8e <w2c_aes_InvCipher+0xd50>
    3a84: a001         	j	0x3a84 <w2c_aes_InvCipher+0xd46>
    3a86: 4408         	lw	a0, 0x8(s0)
    3a88: 00b53533     	sltu	a0, a0, a1
    3a8c: c101         	beqz	a0, 0x3a8c <w2c_aes_InvCipher+0xd4e>
    3a8e: 00000097     	auipc	ra, 0x0
    3a92: 000080e7     	jalr	ra <w2c_aes_InvCipher+0xd50>
    3a96: 4008         	lw	a0, 0x0(s0)
    3a98: 9526         	add	a0, a0, s1
    3a9a: 11054c83     	lbu	s9, 0x110(a0)
    3a9e: 000da403     	lw	s0, 0x0(s11)
    3aa2: 4448         	lw	a0, 0xc(s0)
    3aa4: 00aa8663     	beq	s5, a0, 0x3ab0 <w2c_aes_InvCipher+0xd72>
    3aa8: 01553533     	sltu	a0, a0, s5
    3aac: e519         	bnez	a0, 0x3aba <w2c_aes_InvCipher+0xd7c>
    3aae: a001         	j	0x3aae <w2c_aes_InvCipher+0xd70>
    3ab0: 4408         	lw	a0, 0x8(s0)
    3ab2: 45f2         	lw	a1, 0x1c(sp)
    3ab4: 00b53533     	sltu	a0, a0, a1
    3ab8: c101         	beqz	a0, 0x3ab8 <w2c_aes_InvCipher+0xd7a>
    3aba: 00000097     	auipc	ra, 0x0
    3abe: 000080e7     	jalr	ra <w2c_aes_InvCipher+0xd7c>
    3ac2: 4008         	lw	a0, 0x0(s0)
    3ac4: 954e         	add	a0, a0, s3
    3ac6: 01950123     	sb	s9, 0x2(a0)
    3aca: 000da403     	lw	s0, 0x0(s11)
    3ace: 4448         	lw	a0, 0xc(s0)
    3ad0: 0c414483     	lbu	s1, 0xc4(sp)
    3ad4: 11148593     	addi	a1, s1, 0x111
    3ad8: 0095b633     	sltu	a2, a1, s1
    3adc: 00a60763     	beq	a2, a0, 0x3aea <w2c_aes_InvCipher+0xdac>
    3ae0: 00c53533     	sltu	a0, a0, a2
    3ae4: 5596         	lw	a1, 0x64(sp)
    3ae6: e519         	bnez	a0, 0x3af4 <w2c_aes_InvCipher+0xdb6>
    3ae8: a001         	j	0x3ae8 <w2c_aes_InvCipher+0xdaa>
    3aea: 4408         	lw	a0, 0x8(s0)
    3aec: 00b53533     	sltu	a0, a0, a1
    3af0: 5596         	lw	a1, 0x64(sp)
    3af2: c101         	beqz	a0, 0x3af2 <w2c_aes_InvCipher+0xdb4>
    3af4: 00000097     	auipc	ra, 0x0
    3af8: 000080e7     	jalr	ra <w2c_aes_InvCipher+0xdb6>
    3afc: 5596         	lw	a1, 0x64(sp)
    3afe: 4008         	lw	a0, 0x0(s0)
    3b00: 9526         	add	a0, a0, s1
    3b02: 11054483     	lbu	s1, 0x110(a0)
    3b06: 000da403     	lw	s0, 0x0(s11)
    3b0a: 4448         	lw	a0, 0xc(s0)
    3b0c: 00a59463     	bne	a1, a0, 0x3b14 <w2c_aes_InvCipher+0xdd6>
    3b10: 4408         	lw	a0, 0x8(s0)
    3b12: 45d2         	lw	a1, 0x14(sp)
    3b14: 00b53533     	sltu	a0, a0, a1
    3b18: c101         	beqz	a0, 0x3b18 <w2c_aes_InvCipher+0xdda>
    3b1a: 00000097     	auipc	ra, 0x0
    3b1e: 000080e7     	jalr	ra <w2c_aes_InvCipher+0xddc>
    3b22: 4008         	lw	a0, 0x0(s0)
    3b24: 459a         	lw	a1, 0x84(sp)
    3b26: 952e         	add	a0, a0, a1
    3b28: c3a6         	sw	s1, 0xc4(sp)
    3b2a: 00950023     	sb	s1, 0x0(a0)
    3b2e: 000da403     	lw	s0, 0x0(s11)
    3b32: 4448         	lw	a0, 0xc(s0)
    3b34: 03414483     	lbu	s1, 0x34(sp)
    3b38: 11148593     	addi	a1, s1, 0x111
    3b3c: 0095b633     	sltu	a2, a1, s1
    3b40: 00a60763     	beq	a2, a0, 0x3b4e <w2c_aes_InvCipher+0xe10>
    3b44: 00c53533     	sltu	a0, a0, a2
    3b48: 5586         	lw	a1, 0x60(sp)
    3b4a: e519         	bnez	a0, 0x3b58 <w2c_aes_InvCipher+0xe1a>
    3b4c: a001         	j	0x3b4c <w2c_aes_InvCipher+0xe0e>
    3b4e: 4408         	lw	a0, 0x8(s0)
    3b50: 00b53533     	sltu	a0, a0, a1
    3b54: 5586         	lw	a1, 0x60(sp)
    3b56: c101         	beqz	a0, 0x3b56 <w2c_aes_InvCipher+0xe18>
    3b58: 00000097     	auipc	ra, 0x0
    3b5c: 000080e7     	jalr	ra <w2c_aes_InvCipher+0xe1a>
    3b60: 5586         	lw	a1, 0x60(sp)
    3b62: 4008         	lw	a0, 0x0(s0)
    3b64: 9526         	add	a0, a0, s1
    3b66: 11054983     	lbu	s3, 0x110(a0)
    3b6a: 000da403     	lw	s0, 0x0(s11)
    3b6e: 4448         	lw	a0, 0xc(s0)
    3b70: 00a59463     	bne	a1, a0, 0x3b78 <w2c_aes_InvCipher+0xe3a>
    3b74: 4408         	lw	a0, 0x8(s0)
    3b76: 45c2         	lw	a1, 0x10(sp)
    3b78: 00b53533     	sltu	a0, a0, a1
    3b7c: 54ba         	lw	s1, 0xac(sp)
    3b7e: c101         	beqz	a0, 0x3b7e <w2c_aes_InvCipher+0xe40>
    3b80: 00000097     	auipc	ra, 0x0
    3b84: 000080e7     	jalr	ra <w2c_aes_InvCipher+0xe42>
    3b88: 4008         	lw	a0, 0x0(s0)
    3b8a: 45ba         	lw	a1, 0x8c(sp)
    3b8c: 952e         	add	a0, a0, a1
    3b8e: 01350023     	sb	s3, 0x0(a0)
    3b92: 000da403     	lw	s0, 0x0(s11)
    3b96: 4448         	lw	a0, 0xc(s0)
    3b98: 0ff4f493     	zext.b	s1, s1
    3b9c: 11148593     	addi	a1, s1, 0x111
    3ba0: 0095b633     	sltu	a2, a1, s1
    3ba4: 00a60763     	beq	a2, a0, 0x3bb2 <w2c_aes_InvCipher+0xe74>
    3ba8: 00c53533     	sltu	a0, a0, a2
    3bac: 45f6         	lw	a1, 0x5c(sp)
    3bae: e519         	bnez	a0, 0x3bbc <w2c_aes_InvCipher+0xe7e>
    3bb0: a001         	j	0x3bb0 <w2c_aes_InvCipher+0xe72>
    3bb2: 4408         	lw	a0, 0x8(s0)
    3bb4: 00b53533     	sltu	a0, a0, a1
    3bb8: 45f6         	lw	a1, 0x5c(sp)
    3bba: c101         	beqz	a0, 0x3bba <w2c_aes_InvCipher+0xe7c>
    3bbc: 00000097     	auipc	ra, 0x0
    3bc0: 000080e7     	jalr	ra <w2c_aes_InvCipher+0xe7e>
    3bc4: 45f6         	lw	a1, 0x5c(sp)
    3bc6: 4008         	lw	a0, 0x0(s0)
    3bc8: 9526         	add	a0, a0, s1
    3bca: 11054a03     	lbu	s4, 0x110(a0)
    3bce: 000da403     	lw	s0, 0x0(s11)
    3bd2: 4448         	lw	a0, 0xc(s0)
    3bd4: 00a59463     	bne	a1, a0, 0x3bdc <w2c_aes_InvCipher+0xe9e>
    3bd8: 4408         	lw	a0, 0x8(s0)
    3bda: 45b2         	lw	a1, 0xc(sp)
    3bdc: 00b53533     	sltu	a0, a0, a1
    3be0: c101         	beqz	a0, 0x3be0 <w2c_aes_InvCipher+0xea2>
    3be2: 00000097     	auipc	ra, 0x0
    3be6: 000080e7     	jalr	ra <w2c_aes_InvCipher+0xea4>
    3bea: 4008         	lw	a0, 0x0(s0)
    3bec: 45da         	lw	a1, 0x94(sp)
    3bee: 952e         	add	a0, a0, a1
    3bf0: 01450023     	sb	s4, 0x0(a0)
    3bf4: 000da403     	lw	s0, 0x0(s11)
    3bf8: 4448         	lw	a0, 0xc(s0)
    3bfa: 0c014483     	lbu	s1, 0xc0(sp)
    3bfe: 11148593     	addi	a1, s1, 0x111
    3c02: 0095b633     	sltu	a2, a1, s1
    3c06: 00a60663     	beq	a2, a0, 0x3c12 <w2c_aes_InvCipher+0xed4>
    3c0a: 00c53533     	sltu	a0, a0, a2
    3c0e: e511         	bnez	a0, 0x3c1a <w2c_aes_InvCipher+0xedc>
    3c10: a001         	j	0x3c10 <w2c_aes_InvCipher+0xed2>
    3c12: 4408         	lw	a0, 0x8(s0)
    3c14: 00b53533     	sltu	a0, a0, a1
    3c18: c101         	beqz	a0, 0x3c18 <w2c_aes_InvCipher+0xeda>
    3c1a: 00000097     	auipc	ra, 0x0
    3c1e: 000080e7     	jalr	ra <w2c_aes_InvCipher+0xedc>
    3c22: 4008         	lw	a0, 0x0(s0)
    3c24: 9526         	add	a0, a0, s1
    3c26: 11054d03     	lbu	s10, 0x110(a0)
    3c2a: 000da403     	lw	s0, 0x0(s11)
    3c2e: 4448         	lw	a0, 0xc(s0)
    3c30: 00ab8663     	beq	s7, a0, 0x3c3c <w2c_aes_InvCipher+0xefe>
    3c34: 01753533     	sltu	a0, a0, s7
    3c38: e519         	bnez	a0, 0x3c46 <w2c_aes_InvCipher+0xf08>
    3c3a: a001         	j	0x3c3a <w2c_aes_InvCipher+0xefc>
    3c3c: 4408         	lw	a0, 0x8(s0)
    3c3e: 45e2         	lw	a1, 0x18(sp)
    3c40: 00b53533     	sltu	a0, a0, a1
    3c44: c101         	beqz	a0, 0x3c44 <w2c_aes_InvCipher+0xf06>
    3c46: 00000097     	auipc	ra, 0x0
    3c4a: 000080e7     	jalr	ra <w2c_aes_InvCipher+0xf08>
    3c4e: 4008         	lw	a0, 0x0(s0)
    3c50: 55ea         	lw	a1, 0xb8(sp)
    3c52: 952e         	add	a0, a0, a1
    3c54: 01a501a3     	sb	s10, 0x3(a0)
    3c58: 000da403     	lw	s0, 0x0(s11)
    3c5c: 4408         	lw	a0, 0x8(s0)
    3c5e: 444c         	lw	a1, 0xc(s0)
    3c60: 5ae6         	lw	s5, 0x78(sp)
    3c62: 0a92         	slli	s5, s5, 0x4
    3c64: 5b92         	lw	s7, 0x24(sp)
    3c66: 9bd6         	add	s7, s7, s5
    3c68: 00abb533     	sltu	a0, s7, a0
    3c6c: 00b035b3     	snez	a1, a1
    3c70: 8d4d         	or	a0, a0, a1
    3c72: e101         	bnez	a0, 0x3c72 <w2c_aes_InvCipher+0xf34>
    3c74: 00000097     	auipc	ra, 0x0
    3c78: 000080e7     	jalr	ra <w2c_aes_InvCipher+0xf36>
    3c7c: 4008         	lw	a0, 0x0(s0)
    3c7e: 955e         	add	a0, a0, s7
    3c80: 00054403     	lbu	s0, 0x0(a0)
    3c84: 000da483     	lw	s1, 0x0(s11)
    3c88: 4488         	lw	a0, 0x8(s1)
    3c8a: 44cc         	lw	a1, 0xc(s1)
    3c8c: 566a         	lw	a2, 0xb8(sp)
    3c8e: 00a63533     	sltu	a0, a2, a0
    3c92: 00b035b3     	snez	a1, a1
    3c96: 8d4d         	or	a0, a0, a1
    3c98: e101         	bnez	a0, 0x3c98 <w2c_aes_InvCipher+0xf5a>
    3c9a: 00000097     	auipc	ra, 0x0
    3c9e: 000080e7     	jalr	ra <w2c_aes_InvCipher+0xf5c>
    3ca2: 4088         	lw	a0, 0x0(s1)
    3ca4: 012445b3     	xor	a1, s0, s2
    3ca8: 566a         	lw	a2, 0xb8(sp)
    3caa: 9532         	add	a0, a0, a2
    3cac: 00b50023     	sb	a1, 0x0(a0)
    3cb0: 000da403     	lw	s0, 0x0(s11)
    3cb4: 4408         	lw	a0, 0x8(s0)
    3cb6: 444c         	lw	a1, 0xc(s0)
    3cb8: 001b8493     	addi	s1, s7, 0x1
    3cbc: 00a4b533     	sltu	a0, s1, a0
    3cc0: 00b035b3     	snez	a1, a1
    3cc4: 8d4d         	or	a0, a0, a1
    3cc6: e101         	bnez	a0, 0x3cc6 <w2c_aes_InvCipher+0xf88>
    3cc8: 00000097     	auipc	ra, 0x0
    3ccc: 000080e7     	jalr	ra <w2c_aes_InvCipher+0xf8a>
    3cd0: 4008         	lw	a0, 0x0(s0)
    3cd2: 9526         	add	a0, a0, s1
    3cd4: 00054483     	lbu	s1, 0x0(a0)
    3cd8: 000da403     	lw	s0, 0x0(s11)
    3cdc: 4448         	lw	a0, 0xc(s0)
    3cde: 45b6         	lw	a1, 0x4c(sp)
    3ce0: 00a59463     	bne	a1, a0, 0x3ce8 <w2c_aes_InvCipher+0xfaa>
    3ce4: 4408         	lw	a0, 0x8(s0)
    3ce6: 5582         	lw	a1, 0x20(sp)
    3ce8: 00b53533     	sltu	a0, a0, a1
    3cec: c101         	beqz	a0, 0x3cec <w2c_aes_InvCipher+0xfae>
    3cee: 00000097     	auipc	ra, 0x0
    3cf2: 000080e7     	jalr	ra <w2c_aes_InvCipher+0xfb0>
    3cf6: 4008         	lw	a0, 0x0(s0)
    3cf8: 0184c5b3     	xor	a1, s1, s8
    3cfc: 566a         	lw	a2, 0xb8(sp)
    3cfe: 9532         	add	a0, a0, a2
    3d00: 00b500a3     	sb	a1, 0x1(a0)
    3d04: 000da403     	lw	s0, 0x0(s11)
    3d08: 4408         	lw	a0, 0x8(s0)
    3d0a: 444c         	lw	a1, 0xc(s0)
    3d0c: 002b8493     	addi	s1, s7, 0x2
    3d10: 00a4b533     	sltu	a0, s1, a0
    3d14: 00b035b3     	snez	a1, a1
    3d18: 8d4d         	or	a0, a0, a1
    3d1a: e101         	bnez	a0, 0x3d1a <w2c_aes_InvCipher+0xfdc>
    3d1c: 00000097     	auipc	ra, 0x0
    3d20: 000080e7     	jalr	ra <w2c_aes_InvCipher+0xfde>
    3d24: 4008         	lw	a0, 0x0(s0)
    3d26: 9526         	add	a0, a0, s1
    3d28: 00054483     	lbu	s1, 0x0(a0)
    3d2c: 000da403     	lw	s0, 0x0(s11)
    3d30: 4448         	lw	a0, 0xc(s0)
    3d32: 45a6         	lw	a1, 0x48(sp)
    3d34: 00a59463     	bne	a1, a0, 0x3d3c <w2c_aes_InvCipher+0xffe>
    3d38: 4408         	lw	a0, 0x8(s0)
    3d3a: 45f2         	lw	a1, 0x1c(sp)
    3d3c: 00b53533     	sltu	a0, a0, a1
    3d40: c101         	beqz	a0, 0x3d40 <w2c_aes_InvCipher+0x1002>
    3d42: 00000097     	auipc	ra, 0x0
    3d46: 000080e7     	jalr	ra <w2c_aes_InvCipher+0x1004>
    3d4a: 4008         	lw	a0, 0x0(s0)
    3d4c: 0194c5b3     	xor	a1, s1, s9
    3d50: 566a         	lw	a2, 0xb8(sp)
    3d52: 9532         	add	a0, a0, a2
    3d54: 00b50123     	sb	a1, 0x2(a0)
    3d58: 000da403     	lw	s0, 0x0(s11)
    3d5c: 4408         	lw	a0, 0x8(s0)
    3d5e: 444c         	lw	a1, 0xc(s0)
    3d60: 0b8d         	addi	s7, s7, 0x3
    3d62: 00abb533     	sltu	a0, s7, a0
    3d66: 00b035b3     	snez	a1, a1
    3d6a: 8d4d         	or	a0, a0, a1
    3d6c: e101         	bnez	a0, 0x3d6c <w2c_aes_InvCipher+0x102e>
    3d6e: 00000097     	auipc	ra, 0x0
    3d72: 000080e7     	jalr	ra <w2c_aes_InvCipher+0x1030>
    3d76: 4008         	lw	a0, 0x0(s0)
    3d78: 955e         	add	a0, a0, s7
    3d7a: 00054483     	lbu	s1, 0x0(a0)
    3d7e: 000da403     	lw	s0, 0x0(s11)
    3d82: 4448         	lw	a0, 0xc(s0)
    3d84: 45e6         	lw	a1, 0x58(sp)
    3d86: 00a59463     	bne	a1, a0, 0x3d8e <w2c_aes_InvCipher+0x1050>
    3d8a: 4408         	lw	a0, 0x8(s0)
    3d8c: 45e2         	lw	a1, 0x18(sp)
    3d8e: 00b53533     	sltu	a0, a0, a1
    3d92: 5bd6         	lw	s7, 0x74(sp)
    3d94: c101         	beqz	a0, 0x3d94 <w2c_aes_InvCipher+0x1056>
    3d96: 00000097     	auipc	ra, 0x0
    3d9a: 000080e7     	jalr	ra <w2c_aes_InvCipher+0x1058>
    3d9e: 4008         	lw	a0, 0x0(s0)
    3da0: 01a4c5b3     	xor	a1, s1, s10
    3da4: 5d6a         	lw	s10, 0xb8(sp)
    3da6: 956a         	add	a0, a0, s10
    3da8: 00b501a3     	sb	a1, 0x3(a0)
    3dac: 000da403     	lw	s0, 0x0(s11)
    3db0: 4408         	lw	a0, 0x8(s0)
    3db2: 444c         	lw	a1, 0xc(s0)
    3db4: 4902         	lw	s2, 0x0(sp)
    3db6: 9956         	add	s2, s2, s5
    3db8: 00a93533     	sltu	a0, s2, a0
    3dbc: 00b035b3     	snez	a1, a1
    3dc0: 8d4d         	or	a0, a0, a1
    3dc2: e101         	bnez	a0, 0x3dc2 <w2c_aes_InvCipher+0x1084>
    3dc4: 00000097     	auipc	ra, 0x0
    3dc8: 000080e7     	jalr	ra <w2c_aes_InvCipher+0x1086>
    3dcc: 4008         	lw	a0, 0x0(s0)
    3dce: 954a         	add	a0, a0, s2
    3dd0: 00054483     	lbu	s1, 0x0(a0)
    3dd4: 000da403     	lw	s0, 0x0(s11)
    3dd8: 4448         	lw	a0, 0xc(s0)
    3dda: 45d6         	lw	a1, 0x54(sp)
    3ddc: 00a58663     	beq	a1, a0, 0x3de8 <w2c_aes_InvCipher+0x10aa>
    3de0: 00b53533     	sltu	a0, a0, a1
    3de4: e511         	bnez	a0, 0x3df0 <w2c_aes_InvCipher+0x10b2>
    3de6: a001         	j	0x3de6 <w2c_aes_InvCipher+0x10a8>
    3de8: 4408         	lw	a0, 0x8(s0)
    3dea: 01753533     	sltu	a0, a0, s7
    3dee: c101         	beqz	a0, 0x3dee <w2c_aes_InvCipher+0x10b0>
    3df0: 00000097     	auipc	ra, 0x0
    3df4: 000080e7     	jalr	ra <w2c_aes_InvCipher+0x10b2>
    3df8: 4008         	lw	a0, 0x0(s0)
    3dfa: 55b2         	lw	a1, 0x2c(sp)
    3dfc: 8da5         	xor	a1, a1, s1
    3dfe: 956a         	add	a0, a0, s10
    3e00: 00b50223     	sb	a1, 0x4(a0)
    3e04: 000da403     	lw	s0, 0x0(s11)
    3e08: 4408         	lw	a0, 0x8(s0)
    3e0a: 444c         	lw	a1, 0xc(s0)
    3e0c: 00190493     	addi	s1, s2, 0x1
    3e10: 00a4b533     	sltu	a0, s1, a0
    3e14: 00b035b3     	snez	a1, a1
    3e18: 8d4d         	or	a0, a0, a1
    3e1a: e101         	bnez	a0, 0x3e1a <w2c_aes_InvCipher+0x10dc>
    3e1c: 00000097     	auipc	ra, 0x0
    3e20: 000080e7     	jalr	ra <w2c_aes_InvCipher+0x10de>
    3e24: 4008         	lw	a0, 0x0(s0)
    3e26: 9526         	add	a0, a0, s1
    3e28: 00054483     	lbu	s1, 0x0(a0)
    3e2c: 000da403     	lw	s0, 0x0(s11)
    3e30: 4448         	lw	a0, 0xc(s0)
    3e32: 55f2         	lw	a1, 0x3c(sp)
    3e34: 00a59463     	bne	a1, a0, 0x3e3c <w2c_aes_InvCipher+0x10fe>
    3e38: 4408         	lw	a0, 0x8(s0)
    3e3a: 45ea         	lw	a1, 0x98(sp)
    3e3c: 00b53533     	sltu	a0, a0, a1
    3e40: c101         	beqz	a0, 0x3e40 <w2c_aes_InvCipher+0x1102>
    3e42: 00000097     	auipc	ra, 0x0
    3e46: 000080e7     	jalr	ra <w2c_aes_InvCipher+0x1104>
    3e4a: 4008         	lw	a0, 0x0(s0)
    3e4c: 55a2         	lw	a1, 0x28(sp)
    3e4e: 8da5         	xor	a1, a1, s1
    3e50: 955e         	add	a0, a0, s7
    3e52: 00b50023     	sb	a1, 0x0(a0)
    3e56: 000da403     	lw	s0, 0x0(s11)
    3e5a: 4408         	lw	a0, 0x8(s0)
    3e5c: 444c         	lw	a1, 0xc(s0)
    3e5e: 00290493     	addi	s1, s2, 0x2
    3e62: 00a4b533     	sltu	a0, s1, a0
    3e66: 00b035b3     	snez	a1, a1
    3e6a: 8d4d         	or	a0, a0, a1
    3e6c: e101         	bnez	a0, 0x3e6c <w2c_aes_InvCipher+0x112e>
    3e6e: 00000097     	auipc	ra, 0x0
    3e72: 000080e7     	jalr	ra <w2c_aes_InvCipher+0x1130>
    3e76: 4008         	lw	a0, 0x0(s0)
    3e78: 9526         	add	a0, a0, s1
    3e7a: 00054483     	lbu	s1, 0x0(a0)
    3e7e: 000da403     	lw	s0, 0x0(s11)
    3e82: 4448         	lw	a0, 0xc(s0)
    3e84: 55a6         	lw	a1, 0x68(sp)
    3e86: 00a59463     	bne	a1, a0, 0x3e8e <w2c_aes_InvCipher+0x1150>
    3e8a: 4408         	lw	a0, 0x8(s0)
    3e8c: 45da         	lw	a1, 0x94(sp)
    3e8e: 00b53533     	sltu	a0, a0, a1
    3e92: c101         	beqz	a0, 0x3e92 <w2c_aes_InvCipher+0x1154>
    3e94: 00000097     	auipc	ra, 0x0
    3e98: 000080e7     	jalr	ra <w2c_aes_InvCipher+0x1156>
    3e9c: 4008         	lw	a0, 0x0(s0)
    3e9e: 0164c5b3     	xor	a1, s1, s6
    3ea2: 466a         	lw	a2, 0x98(sp)
    3ea4: 9532         	add	a0, a0, a2
    3ea6: 00b50023     	sb	a1, 0x0(a0)
    3eaa: 000da403     	lw	s0, 0x0(s11)
    3eae: 4408         	lw	a0, 0x8(s0)
    3eb0: 444c         	lw	a1, 0xc(s0)
    3eb2: 090d         	addi	s2, s2, 0x3
    3eb4: 00a93533     	sltu	a0, s2, a0
    3eb8: 00b035b3     	snez	a1, a1
    3ebc: 8d4d         	or	a0, a0, a1
    3ebe: e101         	bnez	a0, 0x3ebe <w2c_aes_InvCipher+0x1180>
    3ec0: 00000097     	auipc	ra, 0x0
    3ec4: 000080e7     	jalr	ra <w2c_aes_InvCipher+0x1182>
    3ec8: 4008         	lw	a0, 0x0(s0)
    3eca: 954a         	add	a0, a0, s2
    3ecc: 00054403     	lbu	s0, 0x0(a0)
    3ed0: 000da483     	lw	s1, 0x0(s11)
    3ed4: 44c8         	lw	a0, 0xc(s1)
    3ed6: 45f6         	lw	a1, 0x5c(sp)
    3ed8: 00a59463     	bne	a1, a0, 0x3ee0 <w2c_aes_InvCipher+0x11a2>
    3edc: 4488         	lw	a0, 0x8(s1)
    3ede: 45b2         	lw	a1, 0xc(sp)
    3ee0: 00b53533     	sltu	a0, a0, a1
    3ee4: c101         	beqz	a0, 0x3ee4 <w2c_aes_InvCipher+0x11a6>
    3ee6: 00000097     	auipc	ra, 0x0
    3eea: 000080e7     	jalr	ra <w2c_aes_InvCipher+0x11a8>
    3eee: 4088         	lw	a0, 0x0(s1)
    3ef0: 014445b3     	xor	a1, s0, s4
    3ef4: 465a         	lw	a2, 0x94(sp)
    3ef6: 9532         	add	a0, a0, a2
    3ef8: 00b50023     	sb	a1, 0x0(a0)
    3efc: 000da403     	lw	s0, 0x0(s11)
    3f00: 4408         	lw	a0, 0x8(s0)
    3f02: 444c         	lw	a1, 0xc(s0)
    3f04: 4912         	lw	s2, 0x4(sp)
    3f06: 9956         	add	s2, s2, s5
    3f08: 00a93533     	sltu	a0, s2, a0
    3f0c: 00b035b3     	snez	a1, a1
    3f10: 8d4d         	or	a0, a0, a1
    3f12: e101         	bnez	a0, 0x3f12 <w2c_aes_InvCipher+0x11d4>
    3f14: 00000097     	auipc	ra, 0x0
    3f18: 000080e7     	jalr	ra <w2c_aes_InvCipher+0x11d6>
    3f1c: 4008         	lw	a0, 0x0(s0)
    3f1e: 954a         	add	a0, a0, s2
    3f20: 00054483     	lbu	s1, 0x0(a0)
    3f24: 000da403     	lw	s0, 0x0(s11)
    3f28: 4448         	lw	a0, 0xc(s0)
    3f2a: 45c6         	lw	a1, 0x50(sp)
    3f2c: 00a59463     	bne	a1, a0, 0x3f34 <w2c_aes_InvCipher+0x11f6>
    3f30: 4408         	lw	a0, 0x8(s0)
    3f32: 458a         	lw	a1, 0x80(sp)
    3f34: 00b53533     	sltu	a0, a0, a1
    3f38: c101         	beqz	a0, 0x3f38 <w2c_aes_InvCipher+0x11fa>
    3f3a: 00000097     	auipc	ra, 0x0
    3f3e: 000080e7     	jalr	ra <w2c_aes_InvCipher+0x11fc>
    3f42: 4008         	lw	a0, 0x0(s0)
    3f44: 558a         	lw	a1, 0xa0(sp)
    3f46: 8da5         	xor	a1, a1, s1
    3f48: 956a         	add	a0, a0, s10
    3f4a: 00b50423     	sb	a1, 0x8(a0)
    3f4e: 000da403     	lw	s0, 0x0(s11)
    3f52: 4408         	lw	a0, 0x8(s0)
    3f54: 444c         	lw	a1, 0xc(s0)
    3f56: 00190493     	addi	s1, s2, 0x1
    3f5a: 00a4b533     	sltu	a0, s1, a0
    3f5e: 00b035b3     	snez	a1, a1
    3f62: 8d4d         	or	a0, a0, a1
    3f64: e101         	bnez	a0, 0x3f64 <w2c_aes_InvCipher+0x1226>
    3f66: 00000097     	auipc	ra, 0x0
    3f6a: 000080e7     	jalr	ra <w2c_aes_InvCipher+0x1228>
    3f6e: 4008         	lw	a0, 0x0(s0)
    3f70: 9526         	add	a0, a0, s1
    3f72: 00054483     	lbu	s1, 0x0(a0)
    3f76: 000da403     	lw	s0, 0x0(s11)
    3f7a: 4448         	lw	a0, 0xc(s0)
    3f7c: 4586         	lw	a1, 0x40(sp)
    3f7e: 00a59463     	bne	a1, a0, 0x3f86 <w2c_aes_InvCipher+0x1248>
    3f82: 4408         	lw	a0, 0x8(s0)
    3f84: 45ca         	lw	a1, 0x90(sp)
    3f86: 00b53533     	sltu	a0, a0, a1
    3f8a: c101         	beqz	a0, 0x3f8a <w2c_aes_InvCipher+0x124c>
    3f8c: 00000097     	auipc	ra, 0x0
    3f90: 000080e7     	jalr	ra <w2c_aes_InvCipher+0x124e>
    3f94: 4008         	lw	a0, 0x0(s0)
    3f96: 55c2         	lw	a1, 0x30(sp)
    3f98: 8da5         	xor	a1, a1, s1
    3f9a: 460a         	lw	a2, 0x80(sp)
    3f9c: 9532         	add	a0, a0, a2
    3f9e: 00b50023     	sb	a1, 0x0(a0)
    3fa2: 000da403     	lw	s0, 0x0(s11)
    3fa6: 4408         	lw	a0, 0x8(s0)
    3fa8: 444c         	lw	a1, 0xc(s0)
    3faa: 00290493     	addi	s1, s2, 0x2
    3fae: 00a4b533     	sltu	a0, s1, a0
    3fb2: 00b035b3     	snez	a1, a1
    3fb6: 8d4d         	or	a0, a0, a1
    3fb8: e101         	bnez	a0, 0x3fb8 <w2c_aes_InvCipher+0x127a>
    3fba: 00000097     	auipc	ra, 0x0
    3fbe: 000080e7     	jalr	ra <w2c_aes_InvCipher+0x127c>
    3fc2: 4008         	lw	a0, 0x0(s0)
    3fc4: 9526         	add	a0, a0, s1
    3fc6: 00054483     	lbu	s1, 0x0(a0)
    3fca: 000da403     	lw	s0, 0x0(s11)
    3fce: 4448         	lw	a0, 0xc(s0)
    3fd0: 55b6         	lw	a1, 0x6c(sp)
    3fd2: 00a59463     	bne	a1, a0, 0x3fda <w2c_aes_InvCipher+0x129c>
    3fd6: 4408         	lw	a0, 0x8(s0)
    3fd8: 45ba         	lw	a1, 0x8c(sp)
    3fda: 00b53533     	sltu	a0, a0, a1
    3fde: c101         	beqz	a0, 0x3fde <w2c_aes_InvCipher+0x12a0>
    3fe0: 00000097     	auipc	ra, 0x0
    3fe4: 000080e7     	jalr	ra <w2c_aes_InvCipher+0x12a2>
    3fe8: 4008         	lw	a0, 0x0(s0)
    3fea: 55fa         	lw	a1, 0xbc(sp)
    3fec: 8da5         	xor	a1, a1, s1
    3fee: 464a         	lw	a2, 0x90(sp)
    3ff0: 9532         	add	a0, a0, a2
    3ff2: 00b50023     	sb	a1, 0x0(a0)
    3ff6: 000da403     	lw	s0, 0x0(s11)
    3ffa: 4408         	lw	a0, 0x8(s0)
    3ffc: 444c         	lw	a1, 0xc(s0)
    3ffe: 090d         	addi	s2, s2, 0x3
    4000: 00a93533     	sltu	a0, s2, a0
    4004: 00b035b3     	snez	a1, a1
    4008: 8d4d         	or	a0, a0, a1
    400a: e101         	bnez	a0, 0x400a <w2c_aes_InvCipher+0x12cc>
    400c: 00000097     	auipc	ra, 0x0
    4010: 000080e7     	jalr	ra <w2c_aes_InvCipher+0x12ce>
    4014: 4008         	lw	a0, 0x0(s0)
    4016: 954a         	add	a0, a0, s2
    4018: 00054403     	lbu	s0, 0x0(a0)
    401c: 000da483     	lw	s1, 0x0(s11)
    4020: 44c8         	lw	a0, 0xc(s1)
    4022: 5586         	lw	a1, 0x60(sp)
    4024: 00a59463     	bne	a1, a0, 0x402c <w2c_aes_InvCipher+0x12ee>
    4028: 4488         	lw	a0, 0x8(s1)
    402a: 45c2         	lw	a1, 0x10(sp)
    402c: 00b53533     	sltu	a0, a0, a1
    4030: c101         	beqz	a0, 0x4030 <w2c_aes_InvCipher+0x12f2>
    4032: 00000097     	auipc	ra, 0x0
    4036: 000080e7     	jalr	ra <w2c_aes_InvCipher+0x12f4>
    403a: 4088         	lw	a0, 0x0(s1)
    403c: 013445b3     	xor	a1, s0, s3
    4040: 463a         	lw	a2, 0x8c(sp)
    4042: 9532         	add	a0, a0, a2
    4044: 00b50023     	sb	a1, 0x0(a0)
    4048: 000da403     	lw	s0, 0x0(s11)
    404c: 4408         	lw	a0, 0x8(s0)
    404e: 444c         	lw	a1, 0xc(s0)
    4050: 4ba2         	lw	s7, 0x8(sp)
    4052: 9bd6         	add	s7, s7, s5
    4054: 00abb533     	sltu	a0, s7, a0
    4058: 00b035b3     	snez	a1, a1
    405c: 8d4d         	or	a0, a0, a1
    405e: e101         	bnez	a0, 0x405e <w2c_aes_InvCipher+0x1320>
    4060: 00000097     	auipc	ra, 0x0
    4064: 000080e7     	jalr	ra <w2c_aes_InvCipher+0x1322>
    4068: 4008         	lw	a0, 0x0(s0)
    406a: 955e         	add	a0, a0, s7
    406c: 00054403     	lbu	s0, 0x0(a0)
    4070: 000da483     	lw	s1, 0x0(s11)
    4074: 44c8         	lw	a0, 0xc(s1)
    4076: 55c6         	lw	a1, 0x70(sp)
    4078: 00a59463     	bne	a1, a0, 0x4080 <w2c_aes_InvCipher+0x1342>
    407c: 4488         	lw	a0, 0x8(s1)
    407e: 45fa         	lw	a1, 0x9c(sp)
    4080: 00b53533     	sltu	a0, a0, a1
    4084: c101         	beqz	a0, 0x4084 <w2c_aes_InvCipher+0x1346>
    4086: 00000097     	auipc	ra, 0x0
    408a: 000080e7     	jalr	ra <w2c_aes_InvCipher+0x1348>
    408e: 4088         	lw	a0, 0x0(s1)
    4090: 55da         	lw	a1, 0xb4(sp)
    4092: 8da1         	xor	a1, a1, s0
    4094: 956a         	add	a0, a0, s10
    4096: 00b50623     	sb	a1, 0xc(a0)
    409a: 000da403     	lw	s0, 0x0(s11)
    409e: 4408         	lw	a0, 0x8(s0)
    40a0: 444c         	lw	a1, 0xc(s0)
    40a2: 001b8493     	addi	s1, s7, 0x1
    40a6: 00a4b533     	sltu	a0, s1, a0
    40aa: 00b035b3     	snez	a1, a1
    40ae: 8d4d         	or	a0, a0, a1
    40b0: e101         	bnez	a0, 0x40b0 <w2c_aes_InvCipher+0x1372>
    40b2: 00000097     	auipc	ra, 0x0
    40b6: 000080e7     	jalr	ra <w2c_aes_InvCipher+0x1374>
    40ba: 4008         	lw	a0, 0x0(s0)
    40bc: 9526         	add	a0, a0, s1
    40be: 00054403     	lbu	s0, 0x0(a0)
    40c2: 000da483     	lw	s1, 0x0(s11)
    40c6: 44c8         	lw	a0, 0xc(s1)
    40c8: 4596         	lw	a1, 0x44(sp)
    40ca: 00a59463     	bne	a1, a0, 0x40d2 <w2c_aes_InvCipher+0x1394>
    40ce: 4488         	lw	a0, 0x8(s1)
    40d0: 45aa         	lw	a1, 0x88(sp)
    40d2: 00b53533     	sltu	a0, a0, a1
    40d6: c101         	beqz	a0, 0x40d6 <w2c_aes_InvCipher+0x1398>
    40d8: 00000097     	auipc	ra, 0x0
    40dc: 000080e7     	jalr	ra <w2c_aes_InvCipher+0x139a>
    40e0: 4088         	lw	a0, 0x0(s1)
    40e2: 55aa         	lw	a1, 0xa8(sp)
    40e4: 8da1         	xor	a1, a1, s0
    40e6: 467a         	lw	a2, 0x9c(sp)
    40e8: 9532         	add	a0, a0, a2
    40ea: 00b50023     	sb	a1, 0x0(a0)
    40ee: 000da403     	lw	s0, 0x0(s11)
    40f2: 4408         	lw	a0, 0x8(s0)
    40f4: 444c         	lw	a1, 0xc(s0)
    40f6: 002b8493     	addi	s1, s7, 0x2
    40fa: 00a4b533     	sltu	a0, s1, a0
    40fe: 00b035b3     	snez	a1, a1
    4102: 8d4d         	or	a0, a0, a1
    4104: e101         	bnez	a0, 0x4104 <w2c_aes_InvCipher+0x13c6>
    4106: 00000097     	auipc	ra, 0x0
    410a: 000080e7     	jalr	ra <w2c_aes_InvCipher+0x13c8>
    410e: 4008         	lw	a0, 0x0(s0)
    4110: 9526         	add	a0, a0, s1
    4112: 00054403     	lbu	s0, 0x0(a0)
    4116: 000da483     	lw	s1, 0x0(s11)
    411a: 44c8         	lw	a0, 0xc(s1)
    411c: 55f6         	lw	a1, 0x7c(sp)
    411e: 00a59463     	bne	a1, a0, 0x4126 <w2c_aes_InvCipher+0x13e8>
    4122: 4488         	lw	a0, 0x8(s1)
    4124: 459a         	lw	a1, 0x84(sp)
    4126: 00b53533     	sltu	a0, a0, a1
    412a: c101         	beqz	a0, 0x412a <w2c_aes_InvCipher+0x13ec>
    412c: 00000097     	auipc	ra, 0x0
    4130: 000080e7     	jalr	ra <w2c_aes_InvCipher+0x13ee>
    4134: 4088         	lw	a0, 0x0(s1)
    4136: 55ca         	lw	a1, 0xb0(sp)
    4138: 8da1         	xor	a1, a1, s0
    413a: 462a         	lw	a2, 0x88(sp)
    413c: 9532         	add	a0, a0, a2
    413e: 00b50023     	sb	a1, 0x0(a0)
    4142: 000da403     	lw	s0, 0x0(s11)
    4146: 4408         	lw	a0, 0x8(s0)
    4148: 444c         	lw	a1, 0xc(s0)
    414a: 0b8d         	addi	s7, s7, 0x3
    414c: 00abb533     	sltu	a0, s7, a0
    4150: 00b035b3     	snez	a1, a1
    4154: 8d4d         	or	a0, a0, a1
    4156: e101         	bnez	a0, 0x4156 <w2c_aes_InvCipher+0x1418>
    4158: 00000097     	auipc	ra, 0x0
    415c: 000080e7     	jalr	ra <w2c_aes_InvCipher+0x141a>
    4160: 4008         	lw	a0, 0x0(s0)
    4162: 955e         	add	a0, a0, s7
    4164: 00054403     	lbu	s0, 0x0(a0)
    4168: 000da483     	lw	s1, 0x0(s11)
    416c: 44c8         	lw	a0, 0xc(s1)
    416e: 5596         	lw	a1, 0x64(sp)
    4170: 00a59463     	bne	a1, a0, 0x4178 <w2c_aes_InvCipher+0x143a>
    4174: 4488         	lw	a0, 0x8(s1)
    4176: 45d2         	lw	a1, 0x14(sp)
    4178: 00b53533     	sltu	a0, a0, a1
    417c: c101         	beqz	a0, 0x417c <w2c_aes_InvCipher+0x143e>
    417e: 00000097     	auipc	ra, 0x0
    4182: 000080e7     	jalr	ra <w2c_aes_InvCipher+0x1440>
    4186: 4088         	lw	a0, 0x0(s1)
    4188: 459e         	lw	a1, 0xc4(sp)
    418a: 8da1         	xor	a1, a1, s0
    418c: 461a         	lw	a2, 0x84(sp)
    418e: 9532         	add	a0, a0, a2
    4190: 00b50023     	sb	a1, 0x0(a0)
    4194: 5566         	lw	a0, 0x78(sp)
    4196: 00050063     	beqz	a0, 0x4196 <w2c_aes_InvCipher+0x1458>
    419a: 4b81         	li	s7, 0x0
    419c: a815         	j	0x41d0 <w2c_aes_InvCipher+0x1492>
    419e: 552a         	lw	a0, 0xa8(sp)
    41a0: 8d21         	xor	a0, a0, s0
    41a2: 55ca         	lw	a1, 0xb0(sp)
    41a4: 561a         	lw	a2, 0xa4(sp)
    41a6: 8db1         	xor	a1, a1, a2
    41a8: 4090         	lw	a2, 0x0(s1)
    41aa: 017d06b3     	add	a3, s10, s7
    41ae: 470e         	lw	a4, 0xc0(sp)
    41b0: 8db9         	xor	a1, a1, a4
    41b2: 0125c5b3     	xor	a1, a1, s2
    41b6: 0135c5b3     	xor	a1, a1, s3
    41ba: 8d2d         	xor	a0, a0, a1
    41bc: 9636         	add	a2, a2, a3
    41be: 01b54533     	xor	a0, a0, s11
    41c2: 0b91         	addi	s7, s7, 0x4
    41c4: 00a60123     	sb	a0, 0x2(a2)
    41c8: 4dae         	lw	s11, 0xc8(sp)
    41ca: 4541         	li	a0, 0x10
    41cc: 00ab8063     	beq	s7, a0, 0x41cc <w2c_aes_InvCipher+0x148e>
    41d0: 000da403     	lw	s0, 0x0(s11)
    41d4: 4408         	lw	a0, 0x8(s0)
    41d6: 444c         	lw	a1, 0xc(s0)
    41d8: 017d0933     	add	s2, s10, s7
    41dc: 00290613     	addi	a2, s2, 0x2
    41e0: db32         	sw	a2, 0xb4(sp)
    41e2: 00a63533     	sltu	a0, a2, a0
    41e6: 00b035b3     	snez	a1, a1
    41ea: 8d4d         	or	a0, a0, a1
    41ec: e101         	bnez	a0, 0x41ec <w2c_aes_InvCipher+0x14ae>
    41ee: 00000097     	auipc	ra, 0x0
    41f2: 000080e7     	jalr	ra <w2c_aes_InvCipher+0x14b0>
    41f6: 4008         	lw	a0, 0x0(s0)
    41f8: 017d05b3     	add	a1, s10, s7
    41fc: 952e         	add	a0, a0, a1
    41fe: 00250503     	lb	a0, 0x2(a0)
    4202: c3aa         	sw	a0, 0xc4(sp)
    4204: 0ff57513     	zext.b	a0, a0
    4208: 000da403     	lw	s0, 0x0(s11)
    420c: 4408         	lw	a0, 0x8(s0)
    420e: 444c         	lw	a1, 0xc(s0)
    4210: 00a93533     	sltu	a0, s2, a0
    4214: 00b035b3     	snez	a1, a1
    4218: 8d4d         	or	a0, a0, a1
    421a: e101         	bnez	a0, 0x421a <w2c_aes_InvCipher+0x14dc>
    421c: 00000097     	auipc	ra, 0x0
    4220: 000080e7     	jalr	ra <w2c_aes_InvCipher+0x14de>
    4224: 4008         	lw	a0, 0x0(s0)
    4226: 954a         	add	a0, a0, s2
    4228: 00050503     	lb	a0, 0x0(a0)
    422c: df2a         	sw	a0, 0xbc(sp)
    422e: 0ff57513     	zext.b	a0, a0
    4232: 000da403     	lw	s0, 0x0(s11)
    4236: 4408         	lw	a0, 0x8(s0)
    4238: 444c         	lw	a1, 0xc(s0)
    423a: 00390613     	addi	a2, s2, 0x3
    423e: d732         	sw	a2, 0xac(sp)
    4240: 00a63533     	sltu	a0, a2, a0
    4244: 00b035b3     	snez	a1, a1
    4248: 8d4d         	or	a0, a0, a1
    424a: e101         	bnez	a0, 0x424a <w2c_aes_InvCipher+0x150c>
    424c: 00000097     	auipc	ra, 0x0
    4250: 000080e7     	jalr	ra <w2c_aes_InvCipher+0x150e>
    4254: 4008         	lw	a0, 0x0(s0)
    4256: 017d05b3     	add	a1, s10, s7
    425a: 952e         	add	a0, a0, a1
    425c: 00350503     	lb	a0, 0x3(a0)
    4260: c1aa         	sw	a0, 0xc0(sp)
    4262: 0ff57513     	zext.b	a0, a0
    4266: 000da483     	lw	s1, 0x0(s11)
    426a: 4488         	lw	a0, 0x8(s1)
    426c: 44cc         	lw	a1, 0xc(s1)
    426e: 00190413     	addi	s0, s2, 0x1
    4272: 00a43533     	sltu	a0, s0, a0
    4276: 00b035b3     	snez	a1, a1
    427a: 8d4d         	or	a0, a0, a1
    427c: e101         	bnez	a0, 0x427c <w2c_aes_InvCipher+0x153e>
    427e: 00000097     	auipc	ra, 0x0
    4282: 000080e7     	jalr	ra <w2c_aes_InvCipher+0x1540>
    4286: d94a         	sw	s2, 0xb0(sp)
    4288: 4088         	lw	a0, 0x0(s1)
    428a: 017d05b3     	add	a1, s10, s7
    428e: 952e         	add	a0, a0, a1
    4290: 00150483     	lb	s1, 0x1(a0)
    4294: 0ff4f513     	zext.b	a0, s1
    4298: 000daa03     	lw	s4, 0x0(s11)
    429c: 008a2503     	lw	a0, 0x8(s4)
    42a0: 00ca2583     	lw	a1, 0xc(s4)
    42a4: 00a43533     	sltu	a0, s0, a0
    42a8: 00b035b3     	snez	a1, a1
    42ac: 8d4d         	or	a0, a0, a1
    42ae: e101         	bnez	a0, 0x42ae <w2c_aes_InvCipher+0x1570>
    42b0: 00000097     	auipc	ra, 0x0
    42b4: 000080e7     	jalr	ra <w2c_aes_InvCipher+0x1572>
    42b8: 0074d713     	srli	a4, s1, 0x7
    42bc: 00149793     	slli	a5, s1, 0x1
    42c0: 4c1e         	lw	s8, 0xc4(sp)
    42c2: 007c5413     	srli	s0, s8, 0x7
    42c6: 001c1513     	slli	a0, s8, 0x1
    42ca: 01949813     	slli	a6, s1, 0x19
    42ce: 408e         	lw	ra, 0xc0(sp)
    42d0: 00109313     	slli	t1, ra, 0x1
    42d4: 01909893     	slli	a7, ra, 0x19
    42d8: 0070d593     	srli	a1, ra, 0x7
    42dc: 5dfa         	lw	s11, 0xbc(sp)
    42de: 007dde13     	srli	t3, s11, 0x7
    42e2: 001d9c93     	slli	s9, s11, 0x1
    42e6: 01ad9e93     	slli	t4, s11, 0x1a
    42ea: 019d9f13     	slli	t5, s11, 0x19
    42ee: d126         	sw	s1, 0xa0(sp)
    42f0: 01a49f93     	slli	t6, s1, 0x1a
    42f4: 01ac1913     	slli	s2, s8, 0x1a
    42f8: 8b6d         	andi	a4, a4, 0x1b
    42fa: 00f743b3     	xor	t2, a4, a5
    42fe: 019c1993     	slli	s3, s8, 0x19
    4302: 886d         	andi	s0, s0, 0x1b
    4304: 00a442b3     	xor	t0, s0, a0
    4308: 01a09b13     	slli	s6, ra, 0x1a
    430c: 000a2a03     	lw	s4, 0x0(s4)
    4310: 01b5f493     	andi	s1, a1, 0x1b
    4314: 0064cab3     	xor	s5, s1, t1
    4318: 017d0333     	add	t1, s10, s7
    431c: 41f85413     	srai	s0, a6, 0x1f
    4320: 41f8d593     	srai	a1, a7, 0x1f
    4324: 01be7613     	andi	a2, t3, 0x1b
    4328: 41fed693     	srai	a3, t4, 0x1f
    432c: 41ff5713     	srai	a4, t5, 0x1f
    4330: 41ffd793     	srai	a5, t6, 0x1f
    4334: 41f95493     	srai	s1, s2, 0x1f
    4338: 41f9d513     	srai	a0, s3, 0x1f
    433c: 41fb5813     	srai	a6, s6, 0x1f
    4340: 886d         	andi	s0, s0, 0x1b
    4342: 89ed         	andi	a1, a1, 0x1b
    4344: 01964d33     	xor	s10, a2, s9
    4348: 8cd6         	mv	s9, s5
    434a: 8aed         	andi	a3, a3, 0x1b
    434c: 8b6d         	andi	a4, a4, 0x1b
    434e: 8bed         	andi	a5, a5, 0x1b
    4350: 01b4f893     	andi	a7, s1, 0x1b
    4354: 896d         	andi	a0, a0, 0x1b
    4356: 01b87813     	andi	a6, a6, 0x1b
    435a: 00139613     	slli	a2, t2, 0x1
    435e: 00c44ab3     	xor	s5, s0, a2
    4362: 001c9613     	slli	a2, s9, 0x1
    4366: 00c5cb33     	xor	s6, a1, a2
    436a: 001d1593     	slli	a1, s10, 0x1
    436e: 00b749b3     	xor	s3, a4, a1
    4372: 00129593     	slli	a1, t0, 0x1
    4376: 00b544b3     	xor	s1, a0, a1
    437a: d516         	sw	t0, 0xa8(sp)
    437c: 0182c533     	xor	a0, t0, s8
    4380: 01b54533     	xor	a0, a0, s11
    4384: 9352         	add	t1, t1, s4
    4386: 00199593     	slli	a1, s3, 0x1
    438a: 00d5cc33     	xor	s8, a1, a3
    438e: 001a9593     	slli	a1, s5, 0x1
    4392: 00f5cdb3     	xor	s11, a1, a5
    4396: 00149593     	slli	a1, s1, 0x1
    439a: 0115ca33     	xor	s4, a1, a7
    439e: 001b1593     	slli	a1, s6, 0x1
    43a2: 0105c933     	xor	s2, a1, a6
    43a6: 01454533     	xor	a0, a0, s4
    43aa: 001c45b3     	xor	a1, s8, ra
    43ae: 8d2d         	xor	a0, a0, a1
    43b0: 012b45b3     	xor	a1, s6, s2
    43b4: 0075c5b3     	xor	a1, a1, t2
    43b8: 8d2d         	xor	a0, a0, a1
    43ba: 01bac5b3     	xor	a1, s5, s11
    43be: 8d2d         	xor	a0, a0, a1
    43c0: 00a300a3     	sb	a0, 0x1(t1)
    43c4: 452e         	lw	a0, 0xc8(sp)
    43c6: 4100         	lw	s0, 0x0(a0)
    43c8: 4408         	lw	a0, 0x8(s0)
    43ca: 444c         	lw	a1, 0xc(s0)
    43cc: 564a         	lw	a2, 0xb0(sp)
    43ce: 00a63533     	sltu	a0, a2, a0
    43d2: 00b035b3     	snez	a1, a1
    43d6: 8d4d         	or	a0, a0, a1
    43d8: e101         	bnez	a0, 0x43d8 <w2c_aes_InvCipher+0x169a>
    43da: d956         	sw	s5, 0xb0(sp)
    43dc: 8ae6         	mv	s5, s9
    43de: 8c9e         	mv	s9, t2
    43e0: 00000097     	auipc	ra, 0x0
    43e4: 000080e7     	jalr	ra <w2c_aes_InvCipher+0x16a2>
    43e8: 83e6         	mv	t2, s9
    43ea: 8cd6         	mv	s9, s5
    43ec: 5aca         	lw	s5, 0xb0(sp)
    43ee: 451e         	lw	a0, 0xc4(sp)
    43f0: d326         	sw	s1, 0xa4(sp)
    43f2: 8d25         	xor	a0, a0, s1
    43f4: d94e         	sw	s3, 0xb0(sp)
    43f6: 0189c5b3     	xor	a1, s3, s8
    43fa: 01a54533     	xor	a0, a0, s10
    43fe: 01454533     	xor	a0, a0, s4
    4402: 8d2d         	xor	a0, a0, a1
    4404: 458e         	lw	a1, 0xc0(sp)
    4406: 0125c5b3     	xor	a1, a1, s2
    440a: 01b3c633     	xor	a2, t2, s11
    440e: 4014         	lw	a3, 0x0(s0)
    4410: 548a         	lw	s1, 0xa0(sp)
    4412: 8da5         	xor	a1, a1, s1
    4414: 8d2d         	xor	a0, a0, a1
    4416: 55ea         	lw	a1, 0xb8(sp)
    4418: 95de         	add	a1, a1, s7
    441a: 95b6         	add	a1, a1, a3
    441c: 8d31         	xor	a0, a0, a2
    441e: 00a58023     	sb	a0, 0x0(a1)
    4422: 452e         	lw	a0, 0xc8(sp)
    4424: 00052983     	lw	s3, 0x0(a0)
    4428: 0089a503     	lw	a0, 0x8(s3)
    442c: 00c9a583     	lw	a1, 0xc(s3)
    4430: 563a         	lw	a2, 0xac(sp)
    4432: 00a63533     	sltu	a0, a2, a0
    4436: 00b035b3     	snez	a1, a1
    443a: 8d4d         	or	a0, a0, a1
    443c: e101         	bnez	a0, 0x443c <w2c_aes_InvCipher+0x16fe>
    443e: 00000097     	auipc	ra, 0x0
    4442: 000080e7     	jalr	ra <w2c_aes_InvCipher+0x1700>
    4446: 557a         	lw	a0, 0xbc(sp)
    4448: 00acc533     	xor	a0, s9, a0
    444c: 014c4433     	xor	s0, s8, s4
    4450: 459e         	lw	a1, 0xc4(sp)
    4452: 01a5c5b3     	xor	a1, a1, s10
    4456: 0009a603     	lw	a2, 0x0(s3)
    445a: 5d6a         	lw	s10, 0xb8(sp)
    445c: 017d06b3     	add	a3, s10, s7
    4460: 009549b3     	xor	s3, a0, s1
    4464: 0165c533     	xor	a0, a1, s6
    4468: 01254533     	xor	a0, a0, s2
    446c: 0159c5b3     	xor	a1, s3, s5
    4470: 8d21         	xor	a0, a0, s0
    4472: 01b5c5b3     	xor	a1, a1, s11
    4476: 8d2d         	xor	a0, a0, a1
    4478: 9636         	add	a2, a2, a3
    447a: 00a601a3     	sb	a0, 0x3(a2)
    447e: 452e         	lw	a0, 0xc8(sp)
    4480: 4104         	lw	s1, 0x0(a0)
    4482: 4488         	lw	a0, 0x8(s1)
    4484: 44cc         	lw	a1, 0xc(s1)
    4486: 565a         	lw	a2, 0xb4(sp)
    4488: 00a63533     	sltu	a0, a2, a0
    448c: 00b035b3     	snez	a1, a1
    4490: 8d4d         	or	a0, a0, a1
    4492: 00051063     	bnez	a0, 0x4492 <w2c_aes_InvCipher+0x1754>
    4496: 00000097     	auipc	ra, 0x0
    449a: 000080e7     	jalr	ra <w2c_aes_InvCipher+0x1758>
    449e: a001         	j	0x449e <w2c_aes_InvCipher+0x1760>
    44a0: 000da403     	lw	s0, 0x0(s11)
    44a4: 4448         	lw	a0, 0xc(s0)
    44a6: 55c6         	lw	a1, 0x70(sp)
    44a8: 00a59463     	bne	a1, a0, 0x44b0 <w2c_aes_InvCipher+0x1772>
    44ac: 4408         	lw	a0, 0x8(s0)
    44ae: 45fa         	lw	a1, 0x9c(sp)
    44b0: 00b53533     	sltu	a0, a0, a1
    44b4: 4ab6         	lw	s5, 0x4c(sp)
    44b6: 4b26         	lw	s6, 0x48(sp)
    44b8: 49e6         	lw	s3, 0x58(sp)
    44ba: 5bd6         	lw	s7, 0x74(sp)
    44bc: c101         	beqz	a0, 0x44bc <w2c_aes_InvCipher+0x177e>
    44be: 00000097     	auipc	ra, 0x0
    44c2: 000080e7     	jalr	ra <w2c_aes_InvCipher+0x1780>
    44c6: 4008         	lw	a0, 0x0(s0)
    44c8: 956a         	add	a0, a0, s10
    44ca: 00c54483     	lbu	s1, 0xc(a0)
    44ce: 000da403     	lw	s0, 0x0(s11)
    44d2: 4448         	lw	a0, 0xc(s0)
    44d4: 45c6         	lw	a1, 0x50(sp)
    44d6: 00a59463     	bne	a1, a0, 0x44de <w2c_aes_InvCipher+0x17a0>
    44da: 4408         	lw	a0, 0x8(s0)
    44dc: 458a         	lw	a1, 0x80(sp)
    44de: 00b53533     	sltu	a0, a0, a1
    44e2: c101         	beqz	a0, 0x44e2 <w2c_aes_InvCipher+0x17a4>
    44e4: 00000097     	auipc	ra, 0x0
    44e8: 000080e7     	jalr	ra <w2c_aes_InvCipher+0x17a6>
    44ec: 4008         	lw	a0, 0x0(s0)
    44ee: 956a         	add	a0, a0, s10
    44f0: 00854903     	lbu	s2, 0x8(a0)
    44f4: 000da403     	lw	s0, 0x0(s11)
    44f8: 4448         	lw	a0, 0xc(s0)
    44fa: 45d6         	lw	a1, 0x54(sp)
    44fc: db26         	sw	s1, 0xb4(sp)
    44fe: 00a58663     	beq	a1, a0, 0x450a <w2c_aes_InvCipher+0x17cc>
    4502: 00b53533     	sltu	a0, a0, a1
    4506: e511         	bnez	a0, 0x4512 <w2c_aes_InvCipher+0x17d4>
    4508: a001         	j	0x4508 <w2c_aes_InvCipher+0x17ca>
    450a: 4408         	lw	a0, 0x8(s0)
    450c: 01753533     	sltu	a0, a0, s7
    4510: c101         	beqz	a0, 0x4510 <w2c_aes_InvCipher+0x17d2>
    4512: 00000097     	auipc	ra, 0x0
    4516: 000080e7     	jalr	ra <w2c_aes_InvCipher+0x17d4>
    451a: 4008         	lw	a0, 0x0(s0)
    451c: 956a         	add	a0, a0, s10
    451e: 00454503     	lbu	a0, 0x4(a0)
    4522: 8a2a         	mv	s4, a0
    4524: 000da403     	lw	s0, 0x0(s11)
    4528: 4408         	lw	a0, 0x8(s0)
    452a: 444c         	lw	a1, 0xc(s0)
    452c: 00ad3533     	sltu	a0, s10, a0
    4530: 00b035b3     	snez	a1, a1
    4534: 8d4d         	or	a0, a0, a1
    4536: e101         	bnez	a0, 0x4536 <w2c_aes_InvCipher+0x17f8>
    4538: 00000097     	auipc	ra, 0x0
    453c: 000080e7     	jalr	ra <w2c_aes_InvCipher+0x17fa>
    4540: 4008         	lw	a0, 0x0(s0)
    4542: 956a         	add	a0, a0, s10
    4544: 00054c03     	lbu	s8, 0x0(a0)
    4548: 000da403     	lw	s0, 0x0(s11)
    454c: 4448         	lw	a0, 0xc(s0)
    454e: 5596         	lw	a1, 0x64(sp)
    4550: 00a59463     	bne	a1, a0, 0x4558 <w2c_aes_InvCipher+0x181a>
    4554: 4408         	lw	a0, 0x8(s0)
    4556: 45d2         	lw	a1, 0x14(sp)
    4558: 00b53533     	sltu	a0, a0, a1
    455c: c101         	beqz	a0, 0x455c <w2c_aes_InvCipher+0x181e>
    455e: 00000097     	auipc	ra, 0x0
    4562: 000080e7     	jalr	ra <w2c_aes_InvCipher+0x1820>
    4566: 4008         	lw	a0, 0x0(s0)
    4568: 459a         	lw	a1, 0x84(sp)
    456a: 952e         	add	a0, a0, a1
    456c: 00054503     	lbu	a0, 0x0(a0)
    4570: da2a         	sw	a0, 0x34(sp)
    4572: 000da403     	lw	s0, 0x0(s11)
    4576: 4448         	lw	a0, 0xc(s0)
    4578: 5586         	lw	a1, 0x60(sp)
    457a: 00a59463     	bne	a1, a0, 0x4582 <w2c_aes_InvCipher+0x1844>
    457e: 4408         	lw	a0, 0x8(s0)
    4580: 45c2         	lw	a1, 0x10(sp)
    4582: 00b53533     	sltu	a0, a0, a1
    4586: c101         	beqz	a0, 0x4586 <w2c_aes_InvCipher+0x1848>
    4588: 00000097     	auipc	ra, 0x0
    458c: 000080e7     	jalr	ra <w2c_aes_InvCipher+0x184a>
    4590: 4008         	lw	a0, 0x0(s0)
    4592: 45ba         	lw	a1, 0x8c(sp)
    4594: 952e         	add	a0, a0, a1
    4596: 00054503     	lbu	a0, 0x0(a0)
    459a: d72a         	sw	a0, 0xac(sp)
    459c: 000da403     	lw	s0, 0x0(s11)
    45a0: 4448         	lw	a0, 0xc(s0)
    45a2: 45f6         	lw	a1, 0x5c(sp)
    45a4: 00a59463     	bne	a1, a0, 0x45ac <w2c_aes_InvCipher+0x186e>
    45a8: 4408         	lw	a0, 0x8(s0)
    45aa: 45b2         	lw	a1, 0xc(sp)
    45ac: 00b53533     	sltu	a0, a0, a1
    45b0: c101         	beqz	a0, 0x45b0 <w2c_aes_InvCipher+0x1872>
    45b2: 00000097     	auipc	ra, 0x0
    45b6: 000080e7     	jalr	ra <w2c_aes_InvCipher+0x1874>
    45ba: 4008         	lw	a0, 0x0(s0)
    45bc: 45da         	lw	a1, 0x94(sp)
    45be: 952e         	add	a0, a0, a1
    45c0: 00054503     	lbu	a0, 0x0(a0)
    45c4: c1aa         	sw	a0, 0xc0(sp)
    45c6: 000da403     	lw	s0, 0x0(s11)
    45ca: 4448         	lw	a0, 0xc(s0)
    45cc: 00a98563     	beq	s3, a0, 0x45d6 <w2c_aes_InvCipher+0x1898>
    45d0: 01353533     	sltu	a0, a0, s3
    45d4: a029         	j	0x45de <w2c_aes_InvCipher+0x18a0>
    45d6: 4408         	lw	a0, 0x8(s0)
    45d8: 45e2         	lw	a1, 0x18(sp)
    45da: 00b53533     	sltu	a0, a0, a1
    45de: 4996         	lw	s3, 0x44(sp)
    45e0: 54f2         	lw	s1, 0x3c(sp)
    45e2: 55f6         	lw	a1, 0x7c(sp)
    45e4: c101         	beqz	a0, 0x45e4 <w2c_aes_InvCipher+0x18a6>
    45e6: 00000097     	auipc	ra, 0x0
    45ea: 000080e7     	jalr	ra <w2c_aes_InvCipher+0x18a8>
    45ee: 55f6         	lw	a1, 0x7c(sp)
    45f0: 4008         	lw	a0, 0x0(s0)
    45f2: 956a         	add	a0, a0, s10
    45f4: 00354503     	lbu	a0, 0x3(a0)
    45f8: c3aa         	sw	a0, 0xc4(sp)
    45fa: 000da403     	lw	s0, 0x0(s11)
    45fe: 4448         	lw	a0, 0xc(s0)
    4600: 00a59463     	bne	a1, a0, 0x4608 <w2c_aes_InvCipher+0x18ca>
    4604: 4408         	lw	a0, 0x8(s0)
    4606: 459a         	lw	a1, 0x84(sp)
    4608: 00b53533     	sltu	a0, a0, a1
    460c: c101         	beqz	a0, 0x460c <w2c_aes_InvCipher+0x18ce>
    460e: 00000097     	auipc	ra, 0x0
    4612: 000080e7     	jalr	ra <w2c_aes_InvCipher+0x18d0>
    4616: 4008         	lw	a0, 0x0(s0)
    4618: 45aa         	lw	a1, 0x88(sp)
    461a: 952e         	add	a0, a0, a1
    461c: 00054503     	lbu	a0, 0x0(a0)
    4620: 8caa         	mv	s9, a0
    4622: 000da403     	lw	s0, 0x0(s11)
    4626: 4448         	lw	a0, 0xc(s0)
    4628: 55a6         	lw	a1, 0x68(sp)
    462a: 00a59463     	bne	a1, a0, 0x4632 <w2c_aes_InvCipher+0x18f4>
    462e: 4408         	lw	a0, 0x8(s0)
    4630: 45da         	lw	a1, 0x94(sp)
    4632: 00b53533     	sltu	a0, a0, a1
    4636: c101         	beqz	a0, 0x4636 <w2c_aes_InvCipher+0x18f8>
    4638: 00000097     	auipc	ra, 0x0
    463c: 000080e7     	jalr	ra <w2c_aes_InvCipher+0x18fa>
    4640: 4008         	lw	a0, 0x0(s0)
    4642: 45ea         	lw	a1, 0x98(sp)
    4644: 952e         	add	a0, a0, a1
    4646: 00054503     	lbu	a0, 0x0(a0)
    464a: d32a         	sw	a0, 0xa4(sp)
    464c: 000da403     	lw	s0, 0x0(s11)
    4650: 4448         	lw	a0, 0xc(s0)
    4652: 55b6         	lw	a1, 0x6c(sp)
    4654: 00a59463     	bne	a1, a0, 0x465c <w2c_aes_InvCipher+0x191e>
    4658: 4408         	lw	a0, 0x8(s0)
    465a: 45ba         	lw	a1, 0x8c(sp)
    465c: 00b53533     	sltu	a0, a0, a1
    4660: c101         	beqz	a0, 0x4660 <w2c_aes_InvCipher+0x1922>
    4662: 00000097     	auipc	ra, 0x0
    4666: 000080e7     	jalr	ra <w2c_aes_InvCipher+0x1924>
    466a: 4008         	lw	a0, 0x0(s0)
    466c: 45ca         	lw	a1, 0x90(sp)
    466e: 952e         	add	a0, a0, a1
    4670: 00054503     	lbu	a0, 0x0(a0)
    4674: dc2a         	sw	a0, 0x38(sp)
    4676: 000da403     	lw	s0, 0x0(s11)
    467a: 4448         	lw	a0, 0xc(s0)
    467c: 00ab0663     	beq	s6, a0, 0x4688 <w2c_aes_InvCipher+0x194a>
    4680: 01653533     	sltu	a0, a0, s6
    4684: e519         	bnez	a0, 0x4692 <w2c_aes_InvCipher+0x1954>
    4686: a001         	j	0x4686 <w2c_aes_InvCipher+0x1948>
    4688: 4408         	lw	a0, 0x8(s0)
    468a: 45f2         	lw	a1, 0x1c(sp)
    468c: 00b53533     	sltu	a0, a0, a1
    4690: c101         	beqz	a0, 0x4690 <w2c_aes_InvCipher+0x1952>
    4692: 00000097     	auipc	ra, 0x0
    4696: 000080e7     	jalr	ra <w2c_aes_InvCipher+0x1954>
    469a: 4008         	lw	a0, 0x0(s0)
    469c: 956a         	add	a0, a0, s10
    469e: 00254503     	lbu	a0, 0x2(a0)
    46a2: df2a         	sw	a0, 0xbc(sp)
    46a4: 000da403     	lw	s0, 0x0(s11)
    46a8: 4448         	lw	a0, 0xc(s0)
    46aa: 00aa8763     	beq	s5, a0, 0x46b8 <w2c_aes_InvCipher+0x197a>
    46ae: 01553533     	sltu	a0, a0, s5
    46b2: 4a8a         	lw	s5, 0x80(sp)
    46b4: e901         	bnez	a0, 0x46c4 <w2c_aes_InvCipher+0x1986>
    46b6: a001         	j	0x46b6 <w2c_aes_InvCipher+0x1978>
    46b8: 4408         	lw	a0, 0x8(s0)
    46ba: 5582         	lw	a1, 0x20(sp)
    46bc: 00b53533     	sltu	a0, a0, a1
    46c0: 4a8a         	lw	s5, 0x80(sp)
    46c2: c101         	beqz	a0, 0x46c2 <w2c_aes_InvCipher+0x1984>
    46c4: 00000097     	auipc	ra, 0x0
    46c8: 000080e7     	jalr	ra <w2c_aes_InvCipher+0x1986>
    46cc: 4008         	lw	a0, 0x0(s0)
    46ce: 956a         	add	a0, a0, s10
    46d0: 00154503     	lbu	a0, 0x1(a0)
    46d4: d92a         	sw	a0, 0xb0(sp)
    46d6: 000da403     	lw	s0, 0x0(s11)
    46da: 4448         	lw	a0, 0xc(s0)
    46dc: 00a48763     	beq	s1, a0, 0x46ea <w2c_aes_InvCipher+0x19ac>
    46e0: 00953533     	sltu	a0, a0, s1
    46e4: 4486         	lw	s1, 0x40(sp)
    46e6: e901         	bnez	a0, 0x46f6 <w2c_aes_InvCipher+0x19b8>
    46e8: a001         	j	0x46e8 <w2c_aes_InvCipher+0x19aa>
    46ea: 4408         	lw	a0, 0x8(s0)
    46ec: 45ea         	lw	a1, 0x98(sp)
    46ee: 00b53533     	sltu	a0, a0, a1
    46f2: 4486         	lw	s1, 0x40(sp)
    46f4: c101         	beqz	a0, 0x46f4 <w2c_aes_InvCipher+0x19b6>
    46f6: 00000097     	auipc	ra, 0x0
    46fa: 000080e7     	jalr	ra <w2c_aes_InvCipher+0x19b8>
    46fe: 4008         	lw	a0, 0x0(s0)
    4700: 955e         	add	a0, a0, s7
    4702: 00054b83     	lbu	s7, 0x0(a0)
    4706: 000da403     	lw	s0, 0x0(s11)
    470a: 4448         	lw	a0, 0xc(s0)
    470c: 00a48663     	beq	s1, a0, 0x4718 <w2c_aes_InvCipher+0x19da>
    4710: 00953533     	sltu	a0, a0, s1
    4714: e519         	bnez	a0, 0x4722 <w2c_aes_InvCipher+0x19e4>
    4716: a001         	j	0x4716 <w2c_aes_InvCipher+0x19d8>
    4718: 4408         	lw	a0, 0x8(s0)
    471a: 45ca         	lw	a1, 0x90(sp)
    471c: 00b53533     	sltu	a0, a0, a1
    4720: c101         	beqz	a0, 0x4720 <w2c_aes_InvCipher+0x19e2>
    4722: 00000097     	auipc	ra, 0x0
    4726: 000080e7     	jalr	ra <w2c_aes_InvCipher+0x19e4>
    472a: 4008         	lw	a0, 0x0(s0)
    472c: 9556         	add	a0, a0, s5
    472e: 00054d03     	lbu	s10, 0x0(a0)
    4732: 000da403     	lw	s0, 0x0(s11)
    4736: 4448         	lw	a0, 0xc(s0)
    4738: 00a98563     	beq	s3, a0, 0x4742 <w2c_aes_InvCipher+0x1a04>
    473c: 01353533     	sltu	a0, a0, s3
    4740: a029         	j	0x474a <w2c_aes_InvCipher+0x1a0c>
    4742: 4408         	lw	a0, 0x8(s0)
    4744: 45aa         	lw	a1, 0x88(sp)
    4746: 00b53533     	sltu	a0, a0, a1
    474a: 89e2         	mv	s3, s8
    474c: 8c52         	mv	s8, s4
    474e: e119         	bnez	a0, 0x4754 <w2c_aes_InvCipher+0x1a16>
    4750: 0000006f     	j	0x4750 <w2c_aes_InvCipher+0x1a12>
    4754: 00000097     	auipc	ra, 0x0
    4758: 000080e7     	jalr	ra <w2c_aes_InvCipher+0x1a16>
    475c: 0000006f     	j	0x475c <w2c_aes_InvCipher+0x1a1e>
    4760: 50fe         	lw	ra, 0xfc(sp)
    4762: 546e         	lw	s0, 0xf8(sp)
    4764: 54de         	lw	s1, 0xf4(sp)
    4766: 594e         	lw	s2, 0xf0(sp)
    4768: 59be         	lw	s3, 0xec(sp)
    476a: 5a2e         	lw	s4, 0xe8(sp)
    476c: 5a9e         	lw	s5, 0xe4(sp)
    476e: 5b0e         	lw	s6, 0xe0(sp)
    4770: 4bfe         	lw	s7, 0xdc(sp)
    4772: 4c6e         	lw	s8, 0xd8(sp)
    4774: 4cde         	lw	s9, 0xd4(sp)
    4776: 4d4e         	lw	s10, 0xd0(sp)
    4778: 4dbe         	lw	s11, 0xcc(sp)
    477a: 6111         	addi	sp, sp, 0x100
    477c: 8082         	ret

0000477e <w2c_aes_AES_CBC_encrypt_buffer>:
    477e: 7139         	addi	sp, sp, -0x40
    4780: de06         	sw	ra, 0x3c(sp)
    4782: dc22         	sw	s0, 0x38(sp)
    4784: da26         	sw	s1, 0x34(sp)
    4786: d84a         	sw	s2, 0x30(sp)
    4788: d64e         	sw	s3, 0x2c(sp)
    478a: d452         	sw	s4, 0x28(sp)
    478c: d256         	sw	s5, 0x24(sp)
    478e: d05a         	sw	s6, 0x20(sp)
    4790: ce5e         	sw	s7, 0x1c(sp)
    4792: cc62         	sw	s8, 0x18(sp)
    4794: ca66         	sw	s9, 0x14(sp)
    4796: c86a         	sw	s10, 0x10(sp)
    4798: c66e         	sw	s11, 0xc(sp)
    479a: 892e         	mv	s2, a1
    479c: 8caa         	mv	s9, a0
    479e: 0b058b93     	addi	s7, a1, 0xb0
    47a2: 00068063     	beqz	a3, 0x47a2 <w2c_aes_AES_CBC_encrypt_buffer+0x24>
    47a6: 8a36         	mv	s4, a3
    47a8: 89b2         	mv	s3, a2
    47aa: 4b01         	li	s6, 0x0
    47ac: c45e         	sw	s7, 0x8(sp)
    47ae: 8ab2         	mv	s5, a2
    47b0: a001         	j	0x47b0 <w2c_aes_AES_CBC_encrypt_buffer+0x32>
    47b2: 4088         	lw	a0, 0x0(s1)
    47b4: 01b445b3     	xor	a1, s0, s11
    47b8: 01698633     	add	a2, s3, s6
    47bc: 9532         	add	a0, a0, a2
    47be: 00b507a3     	sb	a1, 0xf(a0)
    47c2: 8566         	mv	a0, s9
    47c4: 85e2         	mv	a1, s8
    47c6: 864a         	mv	a2, s2
    47c8: 00000097     	auipc	ra, 0x0
    47cc: 000080e7     	jalr	ra <w2c_aes_AES_CBC_encrypt_buffer+0x4a>
    47d0: 010a8513     	addi	a0, s5, 0x10
    47d4: 0b41         	addi	s6, s6, 0x10
    47d6: 8bd6         	mv	s7, s5
    47d8: 8aaa         	mv	s5, a0
    47da: 014b7063     	bgeu	s6, s4, 0x47da <w2c_aes_AES_CBC_encrypt_buffer+0x5c>
    47de: 000ca403     	lw	s0, 0x0(s9)
    47e2: 4408         	lw	a0, 0x8(s0)
    47e4: 444c         	lw	a1, 0xc(s0)
    47e6: 01698c33     	add	s8, s3, s6
    47ea: 00ac3533     	sltu	a0, s8, a0
    47ee: 00b035b3     	snez	a1, a1
    47f2: 8d4d         	or	a0, a0, a1
    47f4: e101         	bnez	a0, 0x47f4 <w2c_aes_AES_CBC_encrypt_buffer+0x76>
    47f6: 00000097     	auipc	ra, 0x0
    47fa: 000080e7     	jalr	ra <w2c_aes_AES_CBC_encrypt_buffer+0x78>
    47fe: 4008         	lw	a0, 0x0(s0)
    4800: 016985b3     	add	a1, s3, s6
    4804: 952e         	add	a0, a0, a1
    4806: 00054d03     	lbu	s10, 0x0(a0)
    480a: 000ca403     	lw	s0, 0x0(s9)
    480e: 4408         	lw	a0, 0x8(s0)
    4810: 444c         	lw	a1, 0xc(s0)
    4812: 00abb533     	sltu	a0, s7, a0
    4816: 00b035b3     	snez	a1, a1
    481a: 8d4d         	or	a0, a0, a1
    481c: e101         	bnez	a0, 0x481c <w2c_aes_AES_CBC_encrypt_buffer+0x9e>
    481e: 00000097     	auipc	ra, 0x0
    4822: 000080e7     	jalr	ra <w2c_aes_AES_CBC_encrypt_buffer+0xa0>
    4826: 4008         	lw	a0, 0x0(s0)
    4828: 955e         	add	a0, a0, s7
    482a: 00054483     	lbu	s1, 0x0(a0)
    482e: 000ca403     	lw	s0, 0x0(s9)
    4832: 4408         	lw	a0, 0x8(s0)
    4834: 444c         	lw	a1, 0xc(s0)
    4836: 00ac3533     	sltu	a0, s8, a0
    483a: 00b035b3     	snez	a1, a1
    483e: 8d4d         	or	a0, a0, a1
    4840: e101         	bnez	a0, 0x4840 <w2c_aes_AES_CBC_encrypt_buffer+0xc2>
    4842: 00000097     	auipc	ra, 0x0
    4846: 000080e7     	jalr	ra <w2c_aes_AES_CBC_encrypt_buffer+0xc4>
    484a: 4008         	lw	a0, 0x0(s0)
    484c: 01a4c5b3     	xor	a1, s1, s10
    4850: 9562         	add	a0, a0, s8
    4852: 00b50023     	sb	a1, 0x0(a0)
    4856: 000ca403     	lw	s0, 0x0(s9)
    485a: 4408         	lw	a0, 0x8(s0)
    485c: 444c         	lw	a1, 0xc(s0)
    485e: 001c0d13     	addi	s10, s8, 0x1
    4862: 00ad3533     	sltu	a0, s10, a0
    4866: 00b035b3     	snez	a1, a1
    486a: 8d4d         	or	a0, a0, a1
    486c: e101         	bnez	a0, 0x486c <w2c_aes_AES_CBC_encrypt_buffer+0xee>
    486e: 00000097     	auipc	ra, 0x0
    4872: 000080e7     	jalr	ra <w2c_aes_AES_CBC_encrypt_buffer+0xf0>
    4876: 4008         	lw	a0, 0x0(s0)
    4878: 016985b3     	add	a1, s3, s6
    487c: 952e         	add	a0, a0, a1
    487e: 00154d83     	lbu	s11, 0x1(a0)
    4882: 000ca403     	lw	s0, 0x0(s9)
    4886: 444c         	lw	a1, 0xc(s0)
    4888: 002b8513     	addi	a0, s7, 0x2
    488c: 01753633     	sltu	a2, a0, s7
    4890: 00b60063     	beq	a2, a1, 0x4890 <w2c_aes_AES_CBC_encrypt_buffer+0x112>
    4894: 00c5b533     	sltu	a0, a1, a2
    4898: c101         	beqz	a0, 0x4898 <w2c_aes_AES_CBC_encrypt_buffer+0x11a>
    489a: 00000097     	auipc	ra, 0x0
    489e: 000080e7     	jalr	ra <w2c_aes_AES_CBC_encrypt_buffer+0x11c>
    48a2: 4008         	lw	a0, 0x0(s0)
    48a4: 955e         	add	a0, a0, s7
    48a6: 00154403     	lbu	s0, 0x1(a0)
    48aa: 000ca483     	lw	s1, 0x0(s9)
    48ae: 4488         	lw	a0, 0x8(s1)
    48b0: 44cc         	lw	a1, 0xc(s1)
    48b2: 00ad3533     	sltu	a0, s10, a0
    48b6: 00b035b3     	snez	a1, a1
    48ba: 8d4d         	or	a0, a0, a1
    48bc: e101         	bnez	a0, 0x48bc <w2c_aes_AES_CBC_encrypt_buffer+0x13e>
    48be: 00000097     	auipc	ra, 0x0
    48c2: 000080e7     	jalr	ra <w2c_aes_AES_CBC_encrypt_buffer+0x140>
    48c6: 4088         	lw	a0, 0x0(s1)
    48c8: 01b445b3     	xor	a1, s0, s11
    48cc: 9562         	add	a0, a0, s8
    48ce: 00b500a3     	sb	a1, 0x1(a0)
    48d2: 000ca403     	lw	s0, 0x0(s9)
    48d6: 4408         	lw	a0, 0x8(s0)
    48d8: 444c         	lw	a1, 0xc(s0)
    48da: 002c0d13     	addi	s10, s8, 0x2
    48de: 00ad3533     	sltu	a0, s10, a0
    48e2: 00b035b3     	snez	a1, a1
    48e6: 8d4d         	or	a0, a0, a1
    48e8: e101         	bnez	a0, 0x48e8 <w2c_aes_AES_CBC_encrypt_buffer+0x16a>
    48ea: 00000097     	auipc	ra, 0x0
    48ee: 000080e7     	jalr	ra <w2c_aes_AES_CBC_encrypt_buffer+0x16c>
    48f2: 4008         	lw	a0, 0x0(s0)
    48f4: 016985b3     	add	a1, s3, s6
    48f8: 952e         	add	a0, a0, a1
    48fa: 00254d83     	lbu	s11, 0x2(a0)
    48fe: 000ca403     	lw	s0, 0x0(s9)
    4902: 444c         	lw	a1, 0xc(s0)
    4904: 003b8513     	addi	a0, s7, 0x3
    4908: 01753633     	sltu	a2, a0, s7
    490c: 00b60063     	beq	a2, a1, 0x490c <w2c_aes_AES_CBC_encrypt_buffer+0x18e>
    4910: 00c5b533     	sltu	a0, a1, a2
    4914: c101         	beqz	a0, 0x4914 <w2c_aes_AES_CBC_encrypt_buffer+0x196>
    4916: 00000097     	auipc	ra, 0x0
    491a: 000080e7     	jalr	ra <w2c_aes_AES_CBC_encrypt_buffer+0x198>
    491e: 4008         	lw	a0, 0x0(s0)
    4920: 955e         	add	a0, a0, s7
    4922: 00254403     	lbu	s0, 0x2(a0)
    4926: 000ca483     	lw	s1, 0x0(s9)
    492a: 4488         	lw	a0, 0x8(s1)
    492c: 44cc         	lw	a1, 0xc(s1)
    492e: 00ad3533     	sltu	a0, s10, a0
    4932: 00b035b3     	snez	a1, a1
    4936: 8d4d         	or	a0, a0, a1
    4938: e101         	bnez	a0, 0x4938 <w2c_aes_AES_CBC_encrypt_buffer+0x1ba>
    493a: 00000097     	auipc	ra, 0x0
    493e: 000080e7     	jalr	ra <w2c_aes_AES_CBC_encrypt_buffer+0x1bc>
    4942: 4088         	lw	a0, 0x0(s1)
    4944: 01b445b3     	xor	a1, s0, s11
    4948: 9562         	add	a0, a0, s8
    494a: 00b50123     	sb	a1, 0x2(a0)
    494e: 000ca403     	lw	s0, 0x0(s9)
    4952: 4408         	lw	a0, 0x8(s0)
    4954: 444c         	lw	a1, 0xc(s0)
    4956: 003c0d13     	addi	s10, s8, 0x3
    495a: 00ad3533     	sltu	a0, s10, a0
    495e: 00b035b3     	snez	a1, a1
    4962: 8d4d         	or	a0, a0, a1
    4964: e101         	bnez	a0, 0x4964 <w2c_aes_AES_CBC_encrypt_buffer+0x1e6>
    4966: 00000097     	auipc	ra, 0x0
    496a: 000080e7     	jalr	ra <w2c_aes_AES_CBC_encrypt_buffer+0x1e8>
    496e: 4008         	lw	a0, 0x0(s0)
    4970: 016985b3     	add	a1, s3, s6
    4974: 952e         	add	a0, a0, a1
    4976: 00354d83     	lbu	s11, 0x3(a0)
    497a: 000ca403     	lw	s0, 0x0(s9)
    497e: 444c         	lw	a1, 0xc(s0)
    4980: 004b8513     	addi	a0, s7, 0x4
    4984: 01753633     	sltu	a2, a0, s7
    4988: 00b60063     	beq	a2, a1, 0x4988 <w2c_aes_AES_CBC_encrypt_buffer+0x20a>
    498c: 00c5b533     	sltu	a0, a1, a2
    4990: c101         	beqz	a0, 0x4990 <w2c_aes_AES_CBC_encrypt_buffer+0x212>
    4992: 00000097     	auipc	ra, 0x0
    4996: 000080e7     	jalr	ra <w2c_aes_AES_CBC_encrypt_buffer+0x214>
    499a: 4008         	lw	a0, 0x0(s0)
    499c: 955e         	add	a0, a0, s7
    499e: 00354403     	lbu	s0, 0x3(a0)
    49a2: 000ca483     	lw	s1, 0x0(s9)
    49a6: 4488         	lw	a0, 0x8(s1)
    49a8: 44cc         	lw	a1, 0xc(s1)
    49aa: 00ad3533     	sltu	a0, s10, a0
    49ae: 00b035b3     	snez	a1, a1
    49b2: 8d4d         	or	a0, a0, a1
    49b4: e101         	bnez	a0, 0x49b4 <w2c_aes_AES_CBC_encrypt_buffer+0x236>
    49b6: 00000097     	auipc	ra, 0x0
    49ba: 000080e7     	jalr	ra <w2c_aes_AES_CBC_encrypt_buffer+0x238>
    49be: 4088         	lw	a0, 0x0(s1)
    49c0: 01b445b3     	xor	a1, s0, s11
    49c4: 9562         	add	a0, a0, s8
    49c6: 00b501a3     	sb	a1, 0x3(a0)
    49ca: 000ca403     	lw	s0, 0x0(s9)
    49ce: 4408         	lw	a0, 0x8(s0)
    49d0: 444c         	lw	a1, 0xc(s0)
    49d2: 004c0d13     	addi	s10, s8, 0x4
    49d6: 00ad3533     	sltu	a0, s10, a0
    49da: 00b035b3     	snez	a1, a1
    49de: 8d4d         	or	a0, a0, a1
    49e0: e101         	bnez	a0, 0x49e0 <w2c_aes_AES_CBC_encrypt_buffer+0x262>
    49e2: 00000097     	auipc	ra, 0x0
    49e6: 000080e7     	jalr	ra <w2c_aes_AES_CBC_encrypt_buffer+0x264>
    49ea: 4008         	lw	a0, 0x0(s0)
    49ec: 016985b3     	add	a1, s3, s6
    49f0: 952e         	add	a0, a0, a1
    49f2: 00454d83     	lbu	s11, 0x4(a0)
    49f6: 000ca403     	lw	s0, 0x0(s9)
    49fa: 444c         	lw	a1, 0xc(s0)
    49fc: 005b8513     	addi	a0, s7, 0x5
    4a00: 01753633     	sltu	a2, a0, s7
    4a04: 00b60063     	beq	a2, a1, 0x4a04 <w2c_aes_AES_CBC_encrypt_buffer+0x286>
    4a08: 00c5b533     	sltu	a0, a1, a2
    4a0c: c101         	beqz	a0, 0x4a0c <w2c_aes_AES_CBC_encrypt_buffer+0x28e>
    4a0e: 00000097     	auipc	ra, 0x0
    4a12: 000080e7     	jalr	ra <w2c_aes_AES_CBC_encrypt_buffer+0x290>
    4a16: 4008         	lw	a0, 0x0(s0)
    4a18: 955e         	add	a0, a0, s7
    4a1a: 00454403     	lbu	s0, 0x4(a0)
    4a1e: 000ca483     	lw	s1, 0x0(s9)
    4a22: 4488         	lw	a0, 0x8(s1)
    4a24: 44cc         	lw	a1, 0xc(s1)
    4a26: 00ad3533     	sltu	a0, s10, a0
    4a2a: 00b035b3     	snez	a1, a1
    4a2e: 8d4d         	or	a0, a0, a1
    4a30: e101         	bnez	a0, 0x4a30 <w2c_aes_AES_CBC_encrypt_buffer+0x2b2>
    4a32: 00000097     	auipc	ra, 0x0
    4a36: 000080e7     	jalr	ra <w2c_aes_AES_CBC_encrypt_buffer+0x2b4>
    4a3a: 4088         	lw	a0, 0x0(s1)
    4a3c: 01b445b3     	xor	a1, s0, s11
    4a40: 9562         	add	a0, a0, s8
    4a42: 00b50223     	sb	a1, 0x4(a0)
    4a46: 000ca403     	lw	s0, 0x0(s9)
    4a4a: 4408         	lw	a0, 0x8(s0)
    4a4c: 444c         	lw	a1, 0xc(s0)
    4a4e: 005c0d13     	addi	s10, s8, 0x5
    4a52: 00ad3533     	sltu	a0, s10, a0
    4a56: 00b035b3     	snez	a1, a1
    4a5a: 8d4d         	or	a0, a0, a1
    4a5c: e101         	bnez	a0, 0x4a5c <w2c_aes_AES_CBC_encrypt_buffer+0x2de>
    4a5e: 00000097     	auipc	ra, 0x0
    4a62: 000080e7     	jalr	ra <w2c_aes_AES_CBC_encrypt_buffer+0x2e0>
    4a66: 4008         	lw	a0, 0x0(s0)
    4a68: 016985b3     	add	a1, s3, s6
    4a6c: 952e         	add	a0, a0, a1
    4a6e: 00554d83     	lbu	s11, 0x5(a0)
    4a72: 000ca403     	lw	s0, 0x0(s9)
    4a76: 444c         	lw	a1, 0xc(s0)
    4a78: 006b8513     	addi	a0, s7, 0x6
    4a7c: 01753633     	sltu	a2, a0, s7
    4a80: 00b60063     	beq	a2, a1, 0x4a80 <w2c_aes_AES_CBC_encrypt_buffer+0x302>
    4a84: 00c5b533     	sltu	a0, a1, a2
    4a88: c101         	beqz	a0, 0x4a88 <w2c_aes_AES_CBC_encrypt_buffer+0x30a>
    4a8a: 00000097     	auipc	ra, 0x0
    4a8e: 000080e7     	jalr	ra <w2c_aes_AES_CBC_encrypt_buffer+0x30c>
    4a92: 4008         	lw	a0, 0x0(s0)
    4a94: 955e         	add	a0, a0, s7
    4a96: 00554403     	lbu	s0, 0x5(a0)
    4a9a: 000ca483     	lw	s1, 0x0(s9)
    4a9e: 4488         	lw	a0, 0x8(s1)
    4aa0: 44cc         	lw	a1, 0xc(s1)
    4aa2: 00ad3533     	sltu	a0, s10, a0
    4aa6: 00b035b3     	snez	a1, a1
    4aaa: 8d4d         	or	a0, a0, a1
    4aac: e101         	bnez	a0, 0x4aac <w2c_aes_AES_CBC_encrypt_buffer+0x32e>
    4aae: 00000097     	auipc	ra, 0x0
    4ab2: 000080e7     	jalr	ra <w2c_aes_AES_CBC_encrypt_buffer+0x330>
    4ab6: 4088         	lw	a0, 0x0(s1)
    4ab8: 01b445b3     	xor	a1, s0, s11
    4abc: 9562         	add	a0, a0, s8
    4abe: 00b502a3     	sb	a1, 0x5(a0)
    4ac2: 000ca403     	lw	s0, 0x0(s9)
    4ac6: 4408         	lw	a0, 0x8(s0)
    4ac8: 444c         	lw	a1, 0xc(s0)
    4aca: 006c0d13     	addi	s10, s8, 0x6
    4ace: 00ad3533     	sltu	a0, s10, a0
    4ad2: 00b035b3     	snez	a1, a1
    4ad6: 8d4d         	or	a0, a0, a1
    4ad8: e101         	bnez	a0, 0x4ad8 <w2c_aes_AES_CBC_encrypt_buffer+0x35a>
    4ada: 00000097     	auipc	ra, 0x0
    4ade: 000080e7     	jalr	ra <w2c_aes_AES_CBC_encrypt_buffer+0x35c>
    4ae2: 4008         	lw	a0, 0x0(s0)
    4ae4: 016985b3     	add	a1, s3, s6
    4ae8: 952e         	add	a0, a0, a1
    4aea: 00654d83     	lbu	s11, 0x6(a0)
    4aee: 000ca403     	lw	s0, 0x0(s9)
    4af2: 444c         	lw	a1, 0xc(s0)
    4af4: 007b8513     	addi	a0, s7, 0x7
    4af8: 01753633     	sltu	a2, a0, s7
    4afc: 00b60063     	beq	a2, a1, 0x4afc <w2c_aes_AES_CBC_encrypt_buffer+0x37e>
    4b00: 00c5b533     	sltu	a0, a1, a2
    4b04: c101         	beqz	a0, 0x4b04 <w2c_aes_AES_CBC_encrypt_buffer+0x386>
    4b06: 00000097     	auipc	ra, 0x0
    4b0a: 000080e7     	jalr	ra <w2c_aes_AES_CBC_encrypt_buffer+0x388>
    4b0e: 4008         	lw	a0, 0x0(s0)
    4b10: 955e         	add	a0, a0, s7
    4b12: 00654403     	lbu	s0, 0x6(a0)
    4b16: 000ca483     	lw	s1, 0x0(s9)
    4b1a: 4488         	lw	a0, 0x8(s1)
    4b1c: 44cc         	lw	a1, 0xc(s1)
    4b1e: 00ad3533     	sltu	a0, s10, a0
    4b22: 00b035b3     	snez	a1, a1
    4b26: 8d4d         	or	a0, a0, a1
    4b28: e101         	bnez	a0, 0x4b28 <w2c_aes_AES_CBC_encrypt_buffer+0x3aa>
    4b2a: 00000097     	auipc	ra, 0x0
    4b2e: 000080e7     	jalr	ra <w2c_aes_AES_CBC_encrypt_buffer+0x3ac>
    4b32: 4088         	lw	a0, 0x0(s1)
    4b34: 01b445b3     	xor	a1, s0, s11
    4b38: 9562         	add	a0, a0, s8
    4b3a: 00b50323     	sb	a1, 0x6(a0)
    4b3e: 000ca403     	lw	s0, 0x0(s9)
    4b42: 4408         	lw	a0, 0x8(s0)
    4b44: 444c         	lw	a1, 0xc(s0)
    4b46: 007c0d13     	addi	s10, s8, 0x7
    4b4a: 00ad3533     	sltu	a0, s10, a0
    4b4e: 00b035b3     	snez	a1, a1
    4b52: 8d4d         	or	a0, a0, a1
    4b54: e101         	bnez	a0, 0x4b54 <w2c_aes_AES_CBC_encrypt_buffer+0x3d6>
    4b56: 00000097     	auipc	ra, 0x0
    4b5a: 000080e7     	jalr	ra <w2c_aes_AES_CBC_encrypt_buffer+0x3d8>
    4b5e: 4008         	lw	a0, 0x0(s0)
    4b60: 016985b3     	add	a1, s3, s6
    4b64: 952e         	add	a0, a0, a1
    4b66: 00754d83     	lbu	s11, 0x7(a0)
    4b6a: 000ca403     	lw	s0, 0x0(s9)
    4b6e: 444c         	lw	a1, 0xc(s0)
    4b70: 008b8513     	addi	a0, s7, 0x8
    4b74: 01753633     	sltu	a2, a0, s7
    4b78: 00b60063     	beq	a2, a1, 0x4b78 <w2c_aes_AES_CBC_encrypt_buffer+0x3fa>
    4b7c: 00c5b533     	sltu	a0, a1, a2
    4b80: c101         	beqz	a0, 0x4b80 <w2c_aes_AES_CBC_encrypt_buffer+0x402>
    4b82: 00000097     	auipc	ra, 0x0
    4b86: 000080e7     	jalr	ra <w2c_aes_AES_CBC_encrypt_buffer+0x404>
    4b8a: 4008         	lw	a0, 0x0(s0)
    4b8c: 955e         	add	a0, a0, s7
    4b8e: 00754403     	lbu	s0, 0x7(a0)
    4b92: 000ca483     	lw	s1, 0x0(s9)
    4b96: 4488         	lw	a0, 0x8(s1)
    4b98: 44cc         	lw	a1, 0xc(s1)
    4b9a: 00ad3533     	sltu	a0, s10, a0
    4b9e: 00b035b3     	snez	a1, a1
    4ba2: 8d4d         	or	a0, a0, a1
    4ba4: e101         	bnez	a0, 0x4ba4 <w2c_aes_AES_CBC_encrypt_buffer+0x426>
    4ba6: 00000097     	auipc	ra, 0x0
    4baa: 000080e7     	jalr	ra <w2c_aes_AES_CBC_encrypt_buffer+0x428>
    4bae: 4088         	lw	a0, 0x0(s1)
    4bb0: 01b445b3     	xor	a1, s0, s11
    4bb4: 9562         	add	a0, a0, s8
    4bb6: 00b503a3     	sb	a1, 0x7(a0)
    4bba: 000ca403     	lw	s0, 0x0(s9)
    4bbe: 4408         	lw	a0, 0x8(s0)
    4bc0: 444c         	lw	a1, 0xc(s0)
    4bc2: 008c0d13     	addi	s10, s8, 0x8
    4bc6: 00ad3533     	sltu	a0, s10, a0
    4bca: 00b035b3     	snez	a1, a1
    4bce: 8d4d         	or	a0, a0, a1
    4bd0: e101         	bnez	a0, 0x4bd0 <w2c_aes_AES_CBC_encrypt_buffer+0x452>
    4bd2: 00000097     	auipc	ra, 0x0
    4bd6: 000080e7     	jalr	ra <w2c_aes_AES_CBC_encrypt_buffer+0x454>
    4bda: 4008         	lw	a0, 0x0(s0)
    4bdc: 016985b3     	add	a1, s3, s6
    4be0: 952e         	add	a0, a0, a1
    4be2: 00854d83     	lbu	s11, 0x8(a0)
    4be6: 000ca403     	lw	s0, 0x0(s9)
    4bea: 444c         	lw	a1, 0xc(s0)
    4bec: 009b8513     	addi	a0, s7, 0x9
    4bf0: 01753633     	sltu	a2, a0, s7
    4bf4: 00b60063     	beq	a2, a1, 0x4bf4 <w2c_aes_AES_CBC_encrypt_buffer+0x476>
    4bf8: 00c5b533     	sltu	a0, a1, a2
    4bfc: c101         	beqz	a0, 0x4bfc <w2c_aes_AES_CBC_encrypt_buffer+0x47e>
    4bfe: 00000097     	auipc	ra, 0x0
    4c02: 000080e7     	jalr	ra <w2c_aes_AES_CBC_encrypt_buffer+0x480>
    4c06: 4008         	lw	a0, 0x0(s0)
    4c08: 955e         	add	a0, a0, s7
    4c0a: 00854403     	lbu	s0, 0x8(a0)
    4c0e: 000ca483     	lw	s1, 0x0(s9)
    4c12: 4488         	lw	a0, 0x8(s1)
    4c14: 44cc         	lw	a1, 0xc(s1)
    4c16: 00ad3533     	sltu	a0, s10, a0
    4c1a: 00b035b3     	snez	a1, a1
    4c1e: 8d4d         	or	a0, a0, a1
    4c20: e101         	bnez	a0, 0x4c20 <w2c_aes_AES_CBC_encrypt_buffer+0x4a2>
    4c22: 00000097     	auipc	ra, 0x0
    4c26: 000080e7     	jalr	ra <w2c_aes_AES_CBC_encrypt_buffer+0x4a4>
    4c2a: 4088         	lw	a0, 0x0(s1)
    4c2c: 01b445b3     	xor	a1, s0, s11
    4c30: 9562         	add	a0, a0, s8
    4c32: 00b50423     	sb	a1, 0x8(a0)
    4c36: 000ca403     	lw	s0, 0x0(s9)
    4c3a: 4408         	lw	a0, 0x8(s0)
    4c3c: 444c         	lw	a1, 0xc(s0)
    4c3e: 009c0d13     	addi	s10, s8, 0x9
    4c42: 00ad3533     	sltu	a0, s10, a0
    4c46: 00b035b3     	snez	a1, a1
    4c4a: 8d4d         	or	a0, a0, a1
    4c4c: e101         	bnez	a0, 0x4c4c <w2c_aes_AES_CBC_encrypt_buffer+0x4ce>
    4c4e: 00000097     	auipc	ra, 0x0
    4c52: 000080e7     	jalr	ra <w2c_aes_AES_CBC_encrypt_buffer+0x4d0>
    4c56: 4008         	lw	a0, 0x0(s0)
    4c58: 016985b3     	add	a1, s3, s6
    4c5c: 952e         	add	a0, a0, a1
    4c5e: 00954d83     	lbu	s11, 0x9(a0)
    4c62: 000ca403     	lw	s0, 0x0(s9)
    4c66: 444c         	lw	a1, 0xc(s0)
    4c68: 00ab8513     	addi	a0, s7, 0xa
    4c6c: 01753633     	sltu	a2, a0, s7
    4c70: 00b60063     	beq	a2, a1, 0x4c70 <w2c_aes_AES_CBC_encrypt_buffer+0x4f2>
    4c74: 00c5b533     	sltu	a0, a1, a2
    4c78: c101         	beqz	a0, 0x4c78 <w2c_aes_AES_CBC_encrypt_buffer+0x4fa>
    4c7a: 00000097     	auipc	ra, 0x0
    4c7e: 000080e7     	jalr	ra <w2c_aes_AES_CBC_encrypt_buffer+0x4fc>
    4c82: 4008         	lw	a0, 0x0(s0)
    4c84: 955e         	add	a0, a0, s7
    4c86: 00954403     	lbu	s0, 0x9(a0)
    4c8a: 000ca483     	lw	s1, 0x0(s9)
    4c8e: 4488         	lw	a0, 0x8(s1)
    4c90: 44cc         	lw	a1, 0xc(s1)
    4c92: 00ad3533     	sltu	a0, s10, a0
    4c96: 00b035b3     	snez	a1, a1
    4c9a: 8d4d         	or	a0, a0, a1
    4c9c: e101         	bnez	a0, 0x4c9c <w2c_aes_AES_CBC_encrypt_buffer+0x51e>
    4c9e: 00000097     	auipc	ra, 0x0
    4ca2: 000080e7     	jalr	ra <w2c_aes_AES_CBC_encrypt_buffer+0x520>
    4ca6: 4088         	lw	a0, 0x0(s1)
    4ca8: 01b445b3     	xor	a1, s0, s11
    4cac: 9562         	add	a0, a0, s8
    4cae: 00b504a3     	sb	a1, 0x9(a0)
    4cb2: 000ca403     	lw	s0, 0x0(s9)
    4cb6: 4408         	lw	a0, 0x8(s0)
    4cb8: 444c         	lw	a1, 0xc(s0)
    4cba: 00ac0d13     	addi	s10, s8, 0xa
    4cbe: 00ad3533     	sltu	a0, s10, a0
    4cc2: 00b035b3     	snez	a1, a1
    4cc6: 8d4d         	or	a0, a0, a1
    4cc8: e101         	bnez	a0, 0x4cc8 <w2c_aes_AES_CBC_encrypt_buffer+0x54a>
    4cca: 00000097     	auipc	ra, 0x0
    4cce: 000080e7     	jalr	ra <w2c_aes_AES_CBC_encrypt_buffer+0x54c>
    4cd2: 4008         	lw	a0, 0x0(s0)
    4cd4: 016985b3     	add	a1, s3, s6
    4cd8: 952e         	add	a0, a0, a1
    4cda: 00a54d83     	lbu	s11, 0xa(a0)
    4cde: 000ca403     	lw	s0, 0x0(s9)
    4ce2: 444c         	lw	a1, 0xc(s0)
    4ce4: 00bb8513     	addi	a0, s7, 0xb
    4ce8: 01753633     	sltu	a2, a0, s7
    4cec: 00b60063     	beq	a2, a1, 0x4cec <w2c_aes_AES_CBC_encrypt_buffer+0x56e>
    4cf0: 00c5b533     	sltu	a0, a1, a2
    4cf4: c101         	beqz	a0, 0x4cf4 <w2c_aes_AES_CBC_encrypt_buffer+0x576>
    4cf6: 00000097     	auipc	ra, 0x0
    4cfa: 000080e7     	jalr	ra <w2c_aes_AES_CBC_encrypt_buffer+0x578>
    4cfe: 4008         	lw	a0, 0x0(s0)
    4d00: 955e         	add	a0, a0, s7
    4d02: 00a54403     	lbu	s0, 0xa(a0)
    4d06: 000ca483     	lw	s1, 0x0(s9)
    4d0a: 4488         	lw	a0, 0x8(s1)
    4d0c: 44cc         	lw	a1, 0xc(s1)
    4d0e: 00ad3533     	sltu	a0, s10, a0
    4d12: 00b035b3     	snez	a1, a1
    4d16: 8d4d         	or	a0, a0, a1
    4d18: e101         	bnez	a0, 0x4d18 <w2c_aes_AES_CBC_encrypt_buffer+0x59a>
    4d1a: 00000097     	auipc	ra, 0x0
    4d1e: 000080e7     	jalr	ra <w2c_aes_AES_CBC_encrypt_buffer+0x59c>
    4d22: 4088         	lw	a0, 0x0(s1)
    4d24: 01b445b3     	xor	a1, s0, s11
    4d28: 9562         	add	a0, a0, s8
    4d2a: 00b50523     	sb	a1, 0xa(a0)
    4d2e: 000ca403     	lw	s0, 0x0(s9)
    4d32: 4408         	lw	a0, 0x8(s0)
    4d34: 444c         	lw	a1, 0xc(s0)
    4d36: 00bc0d13     	addi	s10, s8, 0xb
    4d3a: 00ad3533     	sltu	a0, s10, a0
    4d3e: 00b035b3     	snez	a1, a1
    4d42: 8d4d         	or	a0, a0, a1
    4d44: e101         	bnez	a0, 0x4d44 <w2c_aes_AES_CBC_encrypt_buffer+0x5c6>
    4d46: 00000097     	auipc	ra, 0x0
    4d4a: 000080e7     	jalr	ra <w2c_aes_AES_CBC_encrypt_buffer+0x5c8>
    4d4e: 4008         	lw	a0, 0x0(s0)
    4d50: 016985b3     	add	a1, s3, s6
    4d54: 952e         	add	a0, a0, a1
    4d56: 00b54d83     	lbu	s11, 0xb(a0)
    4d5a: 000ca403     	lw	s0, 0x0(s9)
    4d5e: 444c         	lw	a1, 0xc(s0)
    4d60: 00cb8513     	addi	a0, s7, 0xc
    4d64: 01753633     	sltu	a2, a0, s7
    4d68: 00b60063     	beq	a2, a1, 0x4d68 <w2c_aes_AES_CBC_encrypt_buffer+0x5ea>
    4d6c: 00c5b533     	sltu	a0, a1, a2
    4d70: c101         	beqz	a0, 0x4d70 <w2c_aes_AES_CBC_encrypt_buffer+0x5f2>
    4d72: 00000097     	auipc	ra, 0x0
    4d76: 000080e7     	jalr	ra <w2c_aes_AES_CBC_encrypt_buffer+0x5f4>
    4d7a: 4008         	lw	a0, 0x0(s0)
    4d7c: 955e         	add	a0, a0, s7
    4d7e: 00b54403     	lbu	s0, 0xb(a0)
    4d82: 000ca483     	lw	s1, 0x0(s9)
    4d86: 4488         	lw	a0, 0x8(s1)
    4d88: 44cc         	lw	a1, 0xc(s1)
    4d8a: 00ad3533     	sltu	a0, s10, a0
    4d8e: 00b035b3     	snez	a1, a1
    4d92: 8d4d         	or	a0, a0, a1
    4d94: e101         	bnez	a0, 0x4d94 <w2c_aes_AES_CBC_encrypt_buffer+0x616>
    4d96: 00000097     	auipc	ra, 0x0
    4d9a: 000080e7     	jalr	ra <w2c_aes_AES_CBC_encrypt_buffer+0x618>
    4d9e: 4088         	lw	a0, 0x0(s1)
    4da0: 01b445b3     	xor	a1, s0, s11
    4da4: 9562         	add	a0, a0, s8
    4da6: 00b505a3     	sb	a1, 0xb(a0)
    4daa: 000ca403     	lw	s0, 0x0(s9)
    4dae: 4408         	lw	a0, 0x8(s0)
    4db0: 444c         	lw	a1, 0xc(s0)
    4db2: 00cc0d13     	addi	s10, s8, 0xc
    4db6: 00ad3533     	sltu	a0, s10, a0
    4dba: 00b035b3     	snez	a1, a1
    4dbe: 8d4d         	or	a0, a0, a1
    4dc0: e101         	bnez	a0, 0x4dc0 <w2c_aes_AES_CBC_encrypt_buffer+0x642>
    4dc2: 00000097     	auipc	ra, 0x0
    4dc6: 000080e7     	jalr	ra <w2c_aes_AES_CBC_encrypt_buffer+0x644>
    4dca: 4008         	lw	a0, 0x0(s0)
    4dcc: 016985b3     	add	a1, s3, s6
    4dd0: 952e         	add	a0, a0, a1
    4dd2: 00c54d83     	lbu	s11, 0xc(a0)
    4dd6: 000ca403     	lw	s0, 0x0(s9)
    4dda: 444c         	lw	a1, 0xc(s0)
    4ddc: 00db8513     	addi	a0, s7, 0xd
    4de0: 01753633     	sltu	a2, a0, s7
    4de4: 00b60063     	beq	a2, a1, 0x4de4 <w2c_aes_AES_CBC_encrypt_buffer+0x666>
    4de8: 00c5b533     	sltu	a0, a1, a2
    4dec: c101         	beqz	a0, 0x4dec <w2c_aes_AES_CBC_encrypt_buffer+0x66e>
    4dee: 00000097     	auipc	ra, 0x0
    4df2: 000080e7     	jalr	ra <w2c_aes_AES_CBC_encrypt_buffer+0x670>
    4df6: 4008         	lw	a0, 0x0(s0)
    4df8: 955e         	add	a0, a0, s7
    4dfa: 00c54403     	lbu	s0, 0xc(a0)
    4dfe: 000ca483     	lw	s1, 0x0(s9)
    4e02: 4488         	lw	a0, 0x8(s1)
    4e04: 44cc         	lw	a1, 0xc(s1)
    4e06: 00ad3533     	sltu	a0, s10, a0
    4e0a: 00b035b3     	snez	a1, a1
    4e0e: 8d4d         	or	a0, a0, a1
    4e10: e101         	bnez	a0, 0x4e10 <w2c_aes_AES_CBC_encrypt_buffer+0x692>
    4e12: 00000097     	auipc	ra, 0x0
    4e16: 000080e7     	jalr	ra <w2c_aes_AES_CBC_encrypt_buffer+0x694>
    4e1a: 4088         	lw	a0, 0x0(s1)
    4e1c: 01b445b3     	xor	a1, s0, s11
    4e20: 9562         	add	a0, a0, s8
    4e22: 00b50623     	sb	a1, 0xc(a0)
    4e26: 000ca403     	lw	s0, 0x0(s9)
    4e2a: 4408         	lw	a0, 0x8(s0)
    4e2c: 444c         	lw	a1, 0xc(s0)
    4e2e: 00dc0d13     	addi	s10, s8, 0xd
    4e32: 00ad3533     	sltu	a0, s10, a0
    4e36: 00b035b3     	snez	a1, a1
    4e3a: 8d4d         	or	a0, a0, a1
    4e3c: e101         	bnez	a0, 0x4e3c <w2c_aes_AES_CBC_encrypt_buffer+0x6be>
    4e3e: 00000097     	auipc	ra, 0x0
    4e42: 000080e7     	jalr	ra <w2c_aes_AES_CBC_encrypt_buffer+0x6c0>
    4e46: 4008         	lw	a0, 0x0(s0)
    4e48: 016985b3     	add	a1, s3, s6
    4e4c: 952e         	add	a0, a0, a1
    4e4e: 00d54d83     	lbu	s11, 0xd(a0)
    4e52: 000ca403     	lw	s0, 0x0(s9)
    4e56: 444c         	lw	a1, 0xc(s0)
    4e58: 00eb8513     	addi	a0, s7, 0xe
    4e5c: 01753633     	sltu	a2, a0, s7
    4e60: 00b60063     	beq	a2, a1, 0x4e60 <w2c_aes_AES_CBC_encrypt_buffer+0x6e2>
    4e64: 00c5b533     	sltu	a0, a1, a2
    4e68: c101         	beqz	a0, 0x4e68 <w2c_aes_AES_CBC_encrypt_buffer+0x6ea>
    4e6a: 00000097     	auipc	ra, 0x0
    4e6e: 000080e7     	jalr	ra <w2c_aes_AES_CBC_encrypt_buffer+0x6ec>
    4e72: 4008         	lw	a0, 0x0(s0)
    4e74: 955e         	add	a0, a0, s7
    4e76: 00d54403     	lbu	s0, 0xd(a0)
    4e7a: 000ca483     	lw	s1, 0x0(s9)
    4e7e: 4488         	lw	a0, 0x8(s1)
    4e80: 44cc         	lw	a1, 0xc(s1)
    4e82: 00ad3533     	sltu	a0, s10, a0
    4e86: 00b035b3     	snez	a1, a1
    4e8a: 8d4d         	or	a0, a0, a1
    4e8c: e101         	bnez	a0, 0x4e8c <w2c_aes_AES_CBC_encrypt_buffer+0x70e>
    4e8e: 00000097     	auipc	ra, 0x0
    4e92: 000080e7     	jalr	ra <w2c_aes_AES_CBC_encrypt_buffer+0x710>
    4e96: 4088         	lw	a0, 0x0(s1)
    4e98: 01b445b3     	xor	a1, s0, s11
    4e9c: 9562         	add	a0, a0, s8
    4e9e: 00b506a3     	sb	a1, 0xd(a0)
    4ea2: 000ca403     	lw	s0, 0x0(s9)
    4ea6: 4408         	lw	a0, 0x8(s0)
    4ea8: 444c         	lw	a1, 0xc(s0)
    4eaa: 00ec0d13     	addi	s10, s8, 0xe
    4eae: 00ad3533     	sltu	a0, s10, a0
    4eb2: 00b035b3     	snez	a1, a1
    4eb6: 8d4d         	or	a0, a0, a1
    4eb8: e101         	bnez	a0, 0x4eb8 <w2c_aes_AES_CBC_encrypt_buffer+0x73a>
    4eba: 00000097     	auipc	ra, 0x0
    4ebe: 000080e7     	jalr	ra <w2c_aes_AES_CBC_encrypt_buffer+0x73c>
    4ec2: 4008         	lw	a0, 0x0(s0)
    4ec4: 016985b3     	add	a1, s3, s6
    4ec8: 952e         	add	a0, a0, a1
    4eca: 00e54d83     	lbu	s11, 0xe(a0)
    4ece: 000ca403     	lw	s0, 0x0(s9)
    4ed2: 444c         	lw	a1, 0xc(s0)
    4ed4: 00fb8513     	addi	a0, s7, 0xf
    4ed8: 01753633     	sltu	a2, a0, s7
    4edc: 00b60063     	beq	a2, a1, 0x4edc <w2c_aes_AES_CBC_encrypt_buffer+0x75e>
    4ee0: 00c5b533     	sltu	a0, a1, a2
    4ee4: c101         	beqz	a0, 0x4ee4 <w2c_aes_AES_CBC_encrypt_buffer+0x766>
    4ee6: 00000097     	auipc	ra, 0x0
    4eea: 000080e7     	jalr	ra <w2c_aes_AES_CBC_encrypt_buffer+0x768>
    4eee: 4008         	lw	a0, 0x0(s0)
    4ef0: 955e         	add	a0, a0, s7
    4ef2: 00e54403     	lbu	s0, 0xe(a0)
    4ef6: 000ca483     	lw	s1, 0x0(s9)
    4efa: 4488         	lw	a0, 0x8(s1)
    4efc: 44cc         	lw	a1, 0xc(s1)
    4efe: 00ad3533     	sltu	a0, s10, a0
    4f02: 00b035b3     	snez	a1, a1
    4f06: 8d4d         	or	a0, a0, a1
    4f08: e101         	bnez	a0, 0x4f08 <w2c_aes_AES_CBC_encrypt_buffer+0x78a>
    4f0a: 00000097     	auipc	ra, 0x0
    4f0e: 000080e7     	jalr	ra <w2c_aes_AES_CBC_encrypt_buffer+0x78c>
    4f12: 4088         	lw	a0, 0x0(s1)
    4f14: 01b445b3     	xor	a1, s0, s11
    4f18: 9562         	add	a0, a0, s8
    4f1a: 00b50723     	sb	a1, 0xe(a0)
    4f1e: 000ca403     	lw	s0, 0x0(s9)
    4f22: 4408         	lw	a0, 0x8(s0)
    4f24: 444c         	lw	a1, 0xc(s0)
    4f26: 00fc0d13     	addi	s10, s8, 0xf
    4f2a: 00ad3533     	sltu	a0, s10, a0
    4f2e: 00b035b3     	snez	a1, a1
    4f32: 8d4d         	or	a0, a0, a1
    4f34: e101         	bnez	a0, 0x4f34 <w2c_aes_AES_CBC_encrypt_buffer+0x7b6>
    4f36: 00000097     	auipc	ra, 0x0
    4f3a: 000080e7     	jalr	ra <w2c_aes_AES_CBC_encrypt_buffer+0x7b8>
    4f3e: 4008         	lw	a0, 0x0(s0)
    4f40: 016985b3     	add	a1, s3, s6
    4f44: 952e         	add	a0, a0, a1
    4f46: 00f54d83     	lbu	s11, 0xf(a0)
    4f4a: 000ca403     	lw	s0, 0x0(s9)
    4f4e: 444c         	lw	a1, 0xc(s0)
    4f50: 010b8513     	addi	a0, s7, 0x10
    4f54: 01753633     	sltu	a2, a0, s7
    4f58: 00b60063     	beq	a2, a1, 0x4f58 <w2c_aes_AES_CBC_encrypt_buffer+0x7da>
    4f5c: 00c5b533     	sltu	a0, a1, a2
    4f60: c101         	beqz	a0, 0x4f60 <w2c_aes_AES_CBC_encrypt_buffer+0x7e2>
    4f62: 00000097     	auipc	ra, 0x0
    4f66: 000080e7     	jalr	ra <w2c_aes_AES_CBC_encrypt_buffer+0x7e4>
    4f6a: 4008         	lw	a0, 0x0(s0)
    4f6c: 955e         	add	a0, a0, s7
    4f6e: 00f54403     	lbu	s0, 0xf(a0)
    4f72: 000ca483     	lw	s1, 0x0(s9)
    4f76: 4488         	lw	a0, 0x8(s1)
    4f78: 44cc         	lw	a1, 0xc(s1)
    4f7a: 00ad3533     	sltu	a0, s10, a0
    4f7e: 00b035b3     	snez	a1, a1
    4f82: 8d4d         	or	a0, a0, a1
    4f84: 00051063     	bnez	a0, 0x4f84 <w2c_aes_AES_CBC_encrypt_buffer+0x806>
    4f88: 00000097     	auipc	ra, 0x0
    4f8c: 000080e7     	jalr	ra <w2c_aes_AES_CBC_encrypt_buffer+0x80a>
    4f90: a001         	j	0x4f90 <w2c_aes_AES_CBC_encrypt_buffer+0x812>
    4f92: 440c         	lw	a1, 0x8(s0)
    4f94: 00a5b533     	sltu	a0, a1, a0
    4f98: 00051063     	bnez	a0, 0x4f98 <w2c_aes_AES_CBC_encrypt_buffer+0x81a>
    4f9c: a001         	j	0x4f9c <w2c_aes_AES_CBC_encrypt_buffer+0x81e>
    4f9e: 440c         	lw	a1, 0x8(s0)
    4fa0: 00a5b533     	sltu	a0, a1, a0
    4fa4: 00051063     	bnez	a0, 0x4fa4 <w2c_aes_AES_CBC_encrypt_buffer+0x826>
    4fa8: a001         	j	0x4fa8 <w2c_aes_AES_CBC_encrypt_buffer+0x82a>
    4faa: 440c         	lw	a1, 0x8(s0)
    4fac: 00a5b533     	sltu	a0, a1, a0
    4fb0: 00051063     	bnez	a0, 0x4fb0 <w2c_aes_AES_CBC_encrypt_buffer+0x832>
    4fb4: a001         	j	0x4fb4 <w2c_aes_AES_CBC_encrypt_buffer+0x836>
    4fb6: 440c         	lw	a1, 0x8(s0)
    4fb8: 00a5b533     	sltu	a0, a1, a0
    4fbc: 00051063     	bnez	a0, 0x4fbc <w2c_aes_AES_CBC_encrypt_buffer+0x83e>
    4fc0: a001         	j	0x4fc0 <w2c_aes_AES_CBC_encrypt_buffer+0x842>
    4fc2: 440c         	lw	a1, 0x8(s0)
    4fc4: 00a5b533     	sltu	a0, a1, a0
    4fc8: 00051063     	bnez	a0, 0x4fc8 <w2c_aes_AES_CBC_encrypt_buffer+0x84a>
    4fcc: a001         	j	0x4fcc <w2c_aes_AES_CBC_encrypt_buffer+0x84e>
    4fce: 440c         	lw	a1, 0x8(s0)
    4fd0: 00a5b533     	sltu	a0, a1, a0
    4fd4: 00051063     	bnez	a0, 0x4fd4 <w2c_aes_AES_CBC_encrypt_buffer+0x856>
    4fd8: a001         	j	0x4fd8 <w2c_aes_AES_CBC_encrypt_buffer+0x85a>
    4fda: 440c         	lw	a1, 0x8(s0)
    4fdc: 00a5b533     	sltu	a0, a1, a0
    4fe0: 00051063     	bnez	a0, 0x4fe0 <w2c_aes_AES_CBC_encrypt_buffer+0x862>
    4fe4: a001         	j	0x4fe4 <w2c_aes_AES_CBC_encrypt_buffer+0x866>
    4fe6: 440c         	lw	a1, 0x8(s0)
    4fe8: 00a5b533     	sltu	a0, a1, a0
    4fec: 00051063     	bnez	a0, 0x4fec <w2c_aes_AES_CBC_encrypt_buffer+0x86e>
    4ff0: a001         	j	0x4ff0 <w2c_aes_AES_CBC_encrypt_buffer+0x872>
    4ff2: 440c         	lw	a1, 0x8(s0)
    4ff4: 00a5b533     	sltu	a0, a1, a0
    4ff8: 00051063     	bnez	a0, 0x4ff8 <w2c_aes_AES_CBC_encrypt_buffer+0x87a>
    4ffc: a001         	j	0x4ffc <w2c_aes_AES_CBC_encrypt_buffer+0x87e>
    4ffe: 440c         	lw	a1, 0x8(s0)
    5000: 00a5b533     	sltu	a0, a1, a0
    5004: 00051063     	bnez	a0, 0x5004 <w2c_aes_AES_CBC_encrypt_buffer+0x886>
    5008: a001         	j	0x5008 <w2c_aes_AES_CBC_encrypt_buffer+0x88a>
    500a: 440c         	lw	a1, 0x8(s0)
    500c: 00a5b533     	sltu	a0, a1, a0
    5010: 00051063     	bnez	a0, 0x5010 <w2c_aes_AES_CBC_encrypt_buffer+0x892>
    5014: a001         	j	0x5014 <w2c_aes_AES_CBC_encrypt_buffer+0x896>
    5016: 440c         	lw	a1, 0x8(s0)
    5018: 00a5b533     	sltu	a0, a1, a0
    501c: 00051063     	bnez	a0, 0x501c <w2c_aes_AES_CBC_encrypt_buffer+0x89e>
    5020: a001         	j	0x5020 <w2c_aes_AES_CBC_encrypt_buffer+0x8a2>
    5022: 440c         	lw	a1, 0x8(s0)
    5024: 00a5b533     	sltu	a0, a1, a0
    5028: 00051063     	bnez	a0, 0x5028 <w2c_aes_AES_CBC_encrypt_buffer+0x8aa>
    502c: a001         	j	0x502c <w2c_aes_AES_CBC_encrypt_buffer+0x8ae>
    502e: 440c         	lw	a1, 0x8(s0)
    5030: 00a5b533     	sltu	a0, a1, a0
    5034: 00051063     	bnez	a0, 0x5034 <w2c_aes_AES_CBC_encrypt_buffer+0x8b6>
    5038: a001         	j	0x5038 <w2c_aes_AES_CBC_encrypt_buffer+0x8ba>
    503a: 440c         	lw	a1, 0x8(s0)
    503c: 00a5b533     	sltu	a0, a1, a0
    5040: e101         	bnez	a0, 0x5040 <w2c_aes_AES_CBC_encrypt_buffer+0x8c2>
    5042: a001         	j	0x5042 <w2c_aes_AES_CBC_encrypt_buffer+0x8c4>
    5044: 4501         	li	a0, 0x0
    5046: 99da         	add	s3, s3, s6
    5048: 19c1         	addi	s3, s3, -0x10
    504a: 4ba2         	lw	s7, 0x8(sp)
    504c: a021         	j	0x5054 <w2c_aes_AES_CBC_encrypt_buffer+0x8d6>
    504e: 4501         	li	a0, 0x0
    5050: 8c5e         	mv	s8, s7
    5052: 89de         	mv	s3, s7
    5054: 000ca403     	lw	s0, 0x0(s9)
    5058: 4450         	lw	a2, 0xc(s0)
    505a: 008c0593     	addi	a1, s8, 0x8
    505e: 0185b6b3     	sltu	a3, a1, s8
    5062: 9536         	add	a0, a0, a3
    5064: 00c50663     	beq	a0, a2, 0x5070 <w2c_aes_AES_CBC_encrypt_buffer+0x8f2>
    5068: 00a63533     	sltu	a0, a2, a0
    506c: e511         	bnez	a0, 0x5078 <w2c_aes_AES_CBC_encrypt_buffer+0x8fa>
    506e: a001         	j	0x506e <w2c_aes_AES_CBC_encrypt_buffer+0x8f0>
    5070: 4408         	lw	a0, 0x8(s0)
    5072: 00b53533     	sltu	a0, a0, a1
    5076: c101         	beqz	a0, 0x5076 <w2c_aes_AES_CBC_encrypt_buffer+0x8f8>
    5078: 00000097     	auipc	ra, 0x0
    507c: 000080e7     	jalr	ra <w2c_aes_AES_CBC_encrypt_buffer+0x8fa>
    5080: 4008         	lw	a0, 0x0(s0)
    5082: 954e         	add	a0, a0, s3
    5084: 00554583     	lbu	a1, 0x5(a0)
    5088: 00454603     	lbu	a2, 0x4(a0)
    508c: 00654683     	lbu	a3, 0x6(a0)
    5090: 00754703     	lbu	a4, 0x7(a0)
    5094: 05a2         	slli	a1, a1, 0x8
    5096: 8dd1         	or	a1, a1, a2
    5098: 00054603     	lbu	a2, 0x0(a0)
    509c: 00154783     	lbu	a5, 0x1(a0)
    50a0: 00254483     	lbu	s1, 0x2(a0)
    50a4: 00354503     	lbu	a0, 0x3(a0)
    50a8: 06c2         	slli	a3, a3, 0x10
    50aa: 0762         	slli	a4, a4, 0x18
    50ac: 8ed9         	or	a3, a3, a4
    50ae: 07a2         	slli	a5, a5, 0x8
    50b0: 04c2         	slli	s1, s1, 0x10
    50b2: 0562         	slli	a0, a0, 0x18
    50b4: 8e5d         	or	a2, a2, a5
    50b6: 8d45         	or	a0, a0, s1
    50b8: 00b6e4b3     	or	s1, a3, a1
    50bc: 00c56433     	or	s0, a0, a2
    50c0: 000caa03     	lw	s4, 0x0(s9)
    50c4: 00ca2583     	lw	a1, 0xc(s4)
    50c8: 008b8513     	addi	a0, s7, 0x8
    50cc: 01753633     	sltu	a2, a0, s7
    50d0: 00b60663     	beq	a2, a1, 0x50dc <w2c_aes_AES_CBC_encrypt_buffer+0x95e>
    50d4: 00c5b533     	sltu	a0, a1, a2
    50d8: e519         	bnez	a0, 0x50e6 <w2c_aes_AES_CBC_encrypt_buffer+0x968>
    50da: a001         	j	0x50da <w2c_aes_AES_CBC_encrypt_buffer+0x95c>
    50dc: 008a2583     	lw	a1, 0x8(s4)
    50e0: 00a5b533     	sltu	a0, a1, a0
    50e4: c101         	beqz	a0, 0x50e4 <w2c_aes_AES_CBC_encrypt_buffer+0x966>
    50e6: 00000097     	auipc	ra, 0x0
    50ea: 000080e7     	jalr	ra <w2c_aes_AES_CBC_encrypt_buffer+0x968>
    50ee: 000a2503     	lw	a0, 0x0(s4)
    50f2: 0184d593     	srli	a1, s1, 0x18
    50f6: 0104d613     	srli	a2, s1, 0x10
    50fa: 0084d693     	srli	a3, s1, 0x8
    50fe: 01845713     	srli	a4, s0, 0x18
    5102: 955e         	add	a0, a0, s7
    5104: 01045793     	srli	a5, s0, 0x10
    5108: 00950223     	sb	s1, 0x4(a0)
    510c: 00d502a3     	sb	a3, 0x5(a0)
    5110: 00c50323     	sb	a2, 0x6(a0)
    5114: 00b503a3     	sb	a1, 0x7(a0)
    5118: 00845593     	srli	a1, s0, 0x8
    511c: 00850023     	sb	s0, 0x0(a0)
    5120: 00b500a3     	sb	a1, 0x1(a0)
    5124: 00f50123     	sb	a5, 0x2(a0)
    5128: 00e501a3     	sb	a4, 0x3(a0)
    512c: 000ca403     	lw	s0, 0x0(s9)
    5130: 4448         	lw	a0, 0xc(s0)
    5132: 00898493     	addi	s1, s3, 0x8
    5136: 09c1         	addi	s3, s3, 0x10
    5138: 0099b5b3     	sltu	a1, s3, s1
    513c: 00a58863     	beq	a1, a0, 0x514c <w2c_aes_AES_CBC_encrypt_buffer+0x9ce>
    5140: 00b53533     	sltu	a0, a0, a1
    5144: 0b890913     	addi	s2, s2, 0xb8
    5148: e901         	bnez	a0, 0x5158 <w2c_aes_AES_CBC_encrypt_buffer+0x9da>
    514a: a001         	j	0x514a <w2c_aes_AES_CBC_encrypt_buffer+0x9cc>
    514c: 4408         	lw	a0, 0x8(s0)
    514e: 01353533     	sltu	a0, a0, s3
    5152: 0b890913     	addi	s2, s2, 0xb8
    5156: c101         	beqz	a0, 0x5156 <w2c_aes_AES_CBC_encrypt_buffer+0x9d8>
    5158: 00000097     	auipc	ra, 0x0
    515c: 000080e7     	jalr	ra <w2c_aes_AES_CBC_encrypt_buffer+0x9da>
    5160: 4008         	lw	a0, 0x0(s0)
    5162: 9526         	add	a0, a0, s1
    5164: 00554583     	lbu	a1, 0x5(a0)
    5168: 00654603     	lbu	a2, 0x6(a0)
    516c: 00754683     	lbu	a3, 0x7(a0)
    5170: 00454703     	lbu	a4, 0x4(a0)
    5174: 05a2         	slli	a1, a1, 0x8
    5176: 0642         	slli	a2, a2, 0x10
    5178: 06e2         	slli	a3, a3, 0x18
    517a: 8dd9         	or	a1, a1, a4
    517c: 8e55         	or	a2, a2, a3
    517e: 00154683     	lbu	a3, 0x1(a0)
    5182: 00054703     	lbu	a4, 0x0(a0)
    5186: 00254783     	lbu	a5, 0x2(a0)
    518a: 00354503     	lbu	a0, 0x3(a0)
    518e: 06a2         	slli	a3, a3, 0x8
    5190: 8ed9         	or	a3, a3, a4
    5192: 07c2         	slli	a5, a5, 0x10
    5194: 0562         	slli	a0, a0, 0x18
    5196: 8d5d         	or	a0, a0, a5
    5198: 00b664b3     	or	s1, a2, a1
    519c: 00d56433     	or	s0, a0, a3
    51a0: 000ca983     	lw	s3, 0x0(s9)
    51a4: 00c9a583     	lw	a1, 0xc(s3)
    51a8: 00890513     	addi	a0, s2, 0x8
    51ac: 01253633     	sltu	a2, a0, s2
    51b0: 00b60663     	beq	a2, a1, 0x51bc <w2c_aes_AES_CBC_encrypt_buffer+0xa3e>
    51b4: 00c5b533     	sltu	a0, a1, a2
    51b8: e519         	bnez	a0, 0x51c6 <w2c_aes_AES_CBC_encrypt_buffer+0xa48>
    51ba: a001         	j	0x51ba <w2c_aes_AES_CBC_encrypt_buffer+0xa3c>
    51bc: 0089a583     	lw	a1, 0x8(s3)
    51c0: 00a5b533     	sltu	a0, a1, a0
    51c4: c101         	beqz	a0, 0x51c4 <w2c_aes_AES_CBC_encrypt_buffer+0xa46>
    51c6: 00000097     	auipc	ra, 0x0
    51ca: 000080e7     	jalr	ra <w2c_aes_AES_CBC_encrypt_buffer+0xa48>
    51ce: 0009a503     	lw	a0, 0x0(s3)
    51d2: 0184d593     	srli	a1, s1, 0x18
    51d6: 0104d613     	srli	a2, s1, 0x10
    51da: 0084d693     	srli	a3, s1, 0x8
    51de: 01845713     	srli	a4, s0, 0x18
    51e2: 954a         	add	a0, a0, s2
    51e4: 01045793     	srli	a5, s0, 0x10
    51e8: 00950223     	sb	s1, 0x4(a0)
    51ec: 00d502a3     	sb	a3, 0x5(a0)
    51f0: 00c50323     	sb	a2, 0x6(a0)
    51f4: 00b503a3     	sb	a1, 0x7(a0)
    51f8: 00845593     	srli	a1, s0, 0x8
    51fc: 00850023     	sb	s0, 0x0(a0)
    5200: 00b500a3     	sb	a1, 0x1(a0)
    5204: 00f50123     	sb	a5, 0x2(a0)
    5208: 00e501a3     	sb	a4, 0x3(a0)
    520c: 50f2         	lw	ra, 0x3c(sp)
    520e: 5462         	lw	s0, 0x38(sp)
    5210: 54d2         	lw	s1, 0x34(sp)
    5212: 5942         	lw	s2, 0x30(sp)
    5214: 59b2         	lw	s3, 0x2c(sp)
    5216: 5a22         	lw	s4, 0x28(sp)
    5218: 5a92         	lw	s5, 0x24(sp)
    521a: 5b02         	lw	s6, 0x20(sp)
    521c: 4bf2         	lw	s7, 0x1c(sp)
    521e: 4c62         	lw	s8, 0x18(sp)
    5220: 4cd2         	lw	s9, 0x14(sp)
    5222: 4d42         	lw	s10, 0x10(sp)
    5224: 4db2         	lw	s11, 0xc(sp)
    5226: 6121         	addi	sp, sp, 0x40
    5228: 8082         	ret

0000522a <w2c_aes_AES_CBC_decrypt_buffer>:
    522a: 7115         	addi	sp, sp, -0xe0
    522c: cf86         	sw	ra, 0xdc(sp)
    522e: cda2         	sw	s0, 0xd8(sp)
    5230: cba6         	sw	s1, 0xd4(sp)
    5232: c9ca         	sw	s2, 0xd0(sp)
    5234: c7ce         	sw	s3, 0xcc(sp)
    5236: c5d2         	sw	s4, 0xc8(sp)
    5238: c3d6         	sw	s5, 0xc4(sp)
    523a: c1da         	sw	s6, 0xc0(sp)
    523c: df5e         	sw	s7, 0xbc(sp)
    523e: dd62         	sw	s8, 0xb8(sp)
    5240: db66         	sw	s9, 0xb4(sp)
    5242: d96a         	sw	s10, 0xb0(sp)
    5244: d76e         	sw	s11, 0xac(sp)
    5246: 89ae         	mv	s3, a1
    5248: 8b2a         	mv	s6, a0
    524a: 4148         	lw	a0, 0x4(a0)
    524c: 410c         	lw	a1, 0x0(a0)
    524e: ff058c13     	addi	s8, a1, -0x10
    5252: 01852023     	sw	s8, 0x0(a0)
    5256: d136         	sw	a3, 0xa0(sp)
    5258: 00068063     	beqz	a3, 0x5258 <w2c_aes_AES_CBC_decrypt_buffer+0x2e>
    525c: 8a32         	mv	s4, a2
    525e: c62e         	sw	a1, 0xc(sp)
    5260: 4b81         	li	s7, 0x0
    5262: 0b098813     	addi	a6, s3, 0xb0
    5266: 008c0d13     	addi	s10, s8, 0x8
    526a: 010c0893     	addi	a7, s8, 0x10
    526e: 0b198293     	addi	t0, s3, 0xb1
    5272: 0b298313     	addi	t1, s3, 0xb2
    5276: 0b398393     	addi	t2, s3, 0xb3
    527a: 0b498e13     	addi	t3, s3, 0xb4
    527e: 0b598e93     	addi	t4, s3, 0xb5
    5282: 0b698f13     	addi	t5, s3, 0xb6
    5286: 0b798f93     	addi	t6, s3, 0xb7
    528a: 0b898593     	addi	a1, s3, 0xb8
    528e: 0b998913     	addi	s2, s3, 0xb9
    5292: 0ba98a93     	addi	s5, s3, 0xba
    5296: 0bb98713     	addi	a4, s3, 0xbb
    529a: 0bc98793     	addi	a5, s3, 0xbc
    529e: 0bd98493     	addi	s1, s3, 0xbd
    52a2: 0be98413     	addi	s0, s3, 0xbe
    52a6: 0bf98513     	addi	a0, s3, 0xbf
    52aa: 0c098613     	addi	a2, s3, 0xc0
    52ae: 018d3cb3     	sltu	s9, s10, s8
    52b2: cd46         	sw	a7, 0x98(sp)
    52b4: 0188b6b3     	sltu	a3, a7, s8
    52b8: d336         	sw	a3, 0xa4(sp)
    52ba: c296         	sw	t0, 0x44(sp)
    52bc: 0132b6b3     	sltu	a3, t0, s3
    52c0: c736         	sw	a3, 0x8c(sp)
    52c2: c09a         	sw	t1, 0x40(sp)
    52c4: 013336b3     	sltu	a3, t1, s3
    52c8: c536         	sw	a3, 0x88(sp)
    52ca: de1e         	sw	t2, 0x3c(sp)
    52cc: 0133b6b3     	sltu	a3, t2, s3
    52d0: c336         	sw	a3, 0x84(sp)
    52d2: dc72         	sw	t3, 0x38(sp)
    52d4: 013e36b3     	sltu	a3, t3, s3
    52d8: c136         	sw	a3, 0x80(sp)
    52da: da76         	sw	t4, 0x34(sp)
    52dc: 013eb6b3     	sltu	a3, t4, s3
    52e0: deb6         	sw	a3, 0x7c(sp)
    52e2: d87a         	sw	t5, 0x30(sp)
    52e4: 013f36b3     	sltu	a3, t5, s3
    52e8: dcb6         	sw	a3, 0x78(sp)
    52ea: d67e         	sw	t6, 0x2c(sp)
    52ec: 013fb6b3     	sltu	a3, t6, s3
    52f0: dab6         	sw	a3, 0x74(sp)
    52f2: 0135b6b3     	sltu	a3, a1, s3
    52f6: d8b6         	sw	a3, 0x70(sp)
    52f8: d44a         	sw	s2, 0x28(sp)
    52fa: 013936b3     	sltu	a3, s2, s3
    52fe: d6b6         	sw	a3, 0x6c(sp)
    5300: d256         	sw	s5, 0x24(sp)
    5302: 013abdb3     	sltu	s11, s5, s3
    5306: d03a         	sw	a4, 0x20(sp)
    5308: 013736b3     	sltu	a3, a4, s3
    530c: d2b6         	sw	a3, 0x64(sp)
    530e: ce3e         	sw	a5, 0x1c(sp)
    5310: 0137b6b3     	sltu	a3, a5, s3
    5314: d0b6         	sw	a3, 0x60(sp)
    5316: cc26         	sw	s1, 0x18(sp)
    5318: 0134b6b3     	sltu	a3, s1, s3
    531c: ceb6         	sw	a3, 0x5c(sp)
    531e: ca22         	sw	s0, 0x14(sp)
    5320: 013436b3     	sltu	a3, s0, s3
    5324: ccb6         	sw	a3, 0x58(sp)
    5326: c82a         	sw	a0, 0x10(sp)
    5328: 01353533     	sltu	a0, a0, s3
    532c: caaa         	sw	a0, 0x54(sp)
    532e: 01363533     	sltu	a0, a2, s3
    5332: c8aa         	sw	a0, 0x50(sp)
    5334: cb32         	sw	a2, 0x94(sp)
    5336: 00b63ab3     	sltu	s5, a2, a1
    533a: cf42         	sw	a6, 0x9c(sp)
    533c: d52e         	sw	a1, 0xa8(sp)
    533e: 0105b533     	sltu	a0, a1, a6
    5342: c4aa         	sw	a0, 0x48(sp)
    5344: c966         	sw	s9, 0x90(sp)
    5346: d4ee         	sw	s11, 0x68(sp)
    5348: c6d6         	sw	s5, 0x4c(sp)
    534a: a0a9         	j	0x5394 <w2c_aes_AES_CBC_decrypt_buffer+0x16a>
    534c: 00092703     	lw	a4, 0x0(s2)
    5350: 01845593     	srli	a1, s0, 0x18
    5354: 01045613     	srli	a2, s0, 0x10
    5358: 00845693     	srli	a3, s0, 0x8
    535c: 0184d813     	srli	a6, s1, 0x18
    5360: 0104d793     	srli	a5, s1, 0x10
    5364: 457a         	lw	a0, 0x9c(sp)
    5366: 953a         	add	a0, a0, a4
    5368: 00850223     	sb	s0, 0x4(a0)
    536c: 00d502a3     	sb	a3, 0x5(a0)
    5370: 00c50323     	sb	a2, 0x6(a0)
    5374: 00b503a3     	sb	a1, 0x7(a0)
    5378: 0084d593     	srli	a1, s1, 0x8
    537c: 0bc1         	addi	s7, s7, 0x10
    537e: 00950023     	sb	s1, 0x0(a0)
    5382: 00b500a3     	sb	a1, 0x1(a0)
    5386: 00f50123     	sb	a5, 0x2(a0)
    538a: 010501a3     	sb	a6, 0x3(a0)
    538e: 550a         	lw	a0, 0xa0(sp)
    5390: 00abf063     	bgeu	s7, a0, 0x5390 <w2c_aes_AES_CBC_decrypt_buffer+0x166>
    5394: 000b2403     	lw	s0, 0x0(s6)
    5398: 4448         	lw	a0, 0xc(s0)
    539a: 017a0933     	add	s2, s4, s7
    539e: 00890d93     	addi	s11, s2, 0x8
    53a2: 012db5b3     	sltu	a1, s11, s2
    53a6: 00a58063     	beq	a1, a0, 0x53a6 <w2c_aes_AES_CBC_decrypt_buffer+0x17c>
    53aa: 00b53533     	sltu	a0, a0, a1
    53ae: c101         	beqz	a0, 0x53ae <w2c_aes_AES_CBC_decrypt_buffer+0x184>
    53b0: 00000097     	auipc	ra, 0x0
    53b4: 000080e7     	jalr	ra <w2c_aes_AES_CBC_decrypt_buffer+0x186>
    53b8: 4008         	lw	a0, 0x0(s0)
    53ba: 017a05b3     	add	a1, s4, s7
    53be: 952e         	add	a0, a0, a1
    53c0: 00554583     	lbu	a1, 0x5(a0)
    53c4: 00654603     	lbu	a2, 0x6(a0)
    53c8: 00754683     	lbu	a3, 0x7(a0)
    53cc: 00454703     	lbu	a4, 0x4(a0)
    53d0: 05a2         	slli	a1, a1, 0x8
    53d2: 0642         	slli	a2, a2, 0x10
    53d4: 06e2         	slli	a3, a3, 0x18
    53d6: 8dd9         	or	a1, a1, a4
    53d8: 8e55         	or	a2, a2, a3
    53da: 00154683     	lbu	a3, 0x1(a0)
    53de: 00054703     	lbu	a4, 0x0(a0)
    53e2: 00254783     	lbu	a5, 0x2(a0)
    53e6: 00354503     	lbu	a0, 0x3(a0)
    53ea: 06a2         	slli	a3, a3, 0x8
    53ec: 8ed9         	or	a3, a3, a4
    53ee: 07c2         	slli	a5, a5, 0x10
    53f0: 0562         	slli	a0, a0, 0x18
    53f2: 8d5d         	or	a0, a0, a5
    53f4: 00b66433     	or	s0, a2, a1
    53f8: 00d564b3     	or	s1, a0, a3
    53fc: 000b2a83     	lw	s5, 0x0(s6)
    5400: 00caa503     	lw	a0, 0xc(s5)
    5404: 00ac8063     	beq	s9, a0, 0x5404 <w2c_aes_AES_CBC_decrypt_buffer+0x1da>
    5408: 01953533     	sltu	a0, a0, s9
    540c: c101         	beqz	a0, 0x540c <w2c_aes_AES_CBC_decrypt_buffer+0x1e2>
    540e: 00000097     	auipc	ra, 0x0
    5412: 000080e7     	jalr	ra <w2c_aes_AES_CBC_decrypt_buffer+0x1e4>
    5416: 000aa503     	lw	a0, 0x0(s5)
    541a: 01845593     	srli	a1, s0, 0x18
    541e: 01045613     	srli	a2, s0, 0x10
    5422: 00845693     	srli	a3, s0, 0x8
    5426: 0184d713     	srli	a4, s1, 0x18
    542a: 0104d793     	srli	a5, s1, 0x10
    542e: 9562         	add	a0, a0, s8
    5430: 00850223     	sb	s0, 0x4(a0)
    5434: 00d502a3     	sb	a3, 0x5(a0)
    5438: 00c50323     	sb	a2, 0x6(a0)
    543c: 00b503a3     	sb	a1, 0x7(a0)
    5440: 0084d593     	srli	a1, s1, 0x8
    5444: 00950023     	sb	s1, 0x0(a0)
    5448: 00b500a3     	sb	a1, 0x1(a0)
    544c: 00f50123     	sb	a5, 0x2(a0)
    5450: 00e501a3     	sb	a4, 0x3(a0)
    5454: 000b2403     	lw	s0, 0x0(s6)
    5458: 444c         	lw	a1, 0xc(s0)
    545a: 01090513     	addi	a0, s2, 0x10
    545e: 01b53633     	sltu	a2, a0, s11
    5462: 00b60063     	beq	a2, a1, 0x5462 <w2c_aes_AES_CBC_decrypt_buffer+0x238>
    5466: 00c5b533     	sltu	a0, a1, a2
    546a: c101         	beqz	a0, 0x546a <w2c_aes_AES_CBC_decrypt_buffer+0x240>
    546c: 00000097     	auipc	ra, 0x0
    5470: 000080e7     	jalr	ra <w2c_aes_AES_CBC_decrypt_buffer+0x242>
    5474: 4008         	lw	a0, 0x0(s0)
    5476: 017a05b3     	add	a1, s4, s7
    547a: 952e         	add	a0, a0, a1
    547c: 00d54583     	lbu	a1, 0xd(a0)
    5480: 00e54603     	lbu	a2, 0xe(a0)
    5484: 00f54683     	lbu	a3, 0xf(a0)
    5488: 00c54703     	lbu	a4, 0xc(a0)
    548c: 05a2         	slli	a1, a1, 0x8
    548e: 0642         	slli	a2, a2, 0x10
    5490: 06e2         	slli	a3, a3, 0x18
    5492: 8dd9         	or	a1, a1, a4
    5494: 8e55         	or	a2, a2, a3
    5496: 00954683     	lbu	a3, 0x9(a0)
    549a: 00854703     	lbu	a4, 0x8(a0)
    549e: 00a54783     	lbu	a5, 0xa(a0)
    54a2: 00b54503     	lbu	a0, 0xb(a0)
    54a6: 06a2         	slli	a3, a3, 0x8
    54a8: 8ed9         	or	a3, a3, a4
    54aa: 07c2         	slli	a5, a5, 0x10
    54ac: 0562         	slli	a0, a0, 0x18
    54ae: 8d5d         	or	a0, a0, a5
    54b0: 00b66433     	or	s0, a2, a1
    54b4: 00d564b3     	or	s1, a0, a3
    54b8: 000b2a83     	lw	s5, 0x0(s6)
    54bc: 00caa503     	lw	a0, 0xc(s5)
    54c0: 559a         	lw	a1, 0xa4(sp)
    54c2: 00a59563     	bne	a1, a0, 0x54cc <w2c_aes_AES_CBC_decrypt_buffer+0x2a2>
    54c6: 008aa503     	lw	a0, 0x8(s5)
    54ca: 45ea         	lw	a1, 0x98(sp)
    54cc: 00b53533     	sltu	a0, a0, a1
    54d0: c101         	beqz	a0, 0x54d0 <w2c_aes_AES_CBC_decrypt_buffer+0x2a6>
    54d2: 00000097     	auipc	ra, 0x0
    54d6: 000080e7     	jalr	ra <w2c_aes_AES_CBC_decrypt_buffer+0x2a8>
    54da: 000aa503     	lw	a0, 0x0(s5)
    54de: 01845593     	srli	a1, s0, 0x18
    54e2: 01045613     	srli	a2, s0, 0x10
    54e6: 00845693     	srli	a3, s0, 0x8
    54ea: 0184d713     	srli	a4, s1, 0x18
    54ee: 0104d793     	srli	a5, s1, 0x10
    54f2: 956a         	add	a0, a0, s10
    54f4: 00850223     	sb	s0, 0x4(a0)
    54f8: 00d502a3     	sb	a3, 0x5(a0)
    54fc: 00c50323     	sb	a2, 0x6(a0)
    5500: 00b503a3     	sb	a1, 0x7(a0)
    5504: 0084d593     	srli	a1, s1, 0x8
    5508: 00950023     	sb	s1, 0x0(a0)
    550c: 00b500a3     	sb	a1, 0x1(a0)
    5510: 00f50123     	sb	a5, 0x2(a0)
    5514: 00e501a3     	sb	a4, 0x3(a0)
    5518: 855a         	mv	a0, s6
    551a: 85ca         	mv	a1, s2
    551c: 864e         	mv	a2, s3
    551e: 00000097     	auipc	ra, 0x0
    5522: 000080e7     	jalr	ra <w2c_aes_AES_CBC_decrypt_buffer+0x2f4>
    5526: 000b2403     	lw	s0, 0x0(s6)
    552a: 4408         	lw	a0, 0x8(s0)
    552c: 444c         	lw	a1, 0xc(s0)
    552e: 00a93533     	sltu	a0, s2, a0
    5532: 00b035b3     	snez	a1, a1
    5536: 8d4d         	or	a0, a0, a1
    5538: e101         	bnez	a0, 0x5538 <w2c_aes_AES_CBC_decrypt_buffer+0x30e>
    553a: 00000097     	auipc	ra, 0x0
    553e: 000080e7     	jalr	ra <w2c_aes_AES_CBC_decrypt_buffer+0x310>
    5542: 4008         	lw	a0, 0x0(s0)
    5544: 017a05b3     	add	a1, s4, s7
    5548: 952e         	add	a0, a0, a1
    554a: 00054a83     	lbu	s5, 0x0(a0)
    554e: 000b2403     	lw	s0, 0x0(s6)
    5552: 4448         	lw	a0, 0xc(s0)
    5554: 45ba         	lw	a1, 0x8c(sp)
    5556: 00a59463     	bne	a1, a0, 0x555e <w2c_aes_AES_CBC_decrypt_buffer+0x334>
    555a: 4408         	lw	a0, 0x8(s0)
    555c: 4596         	lw	a1, 0x44(sp)
    555e: 00b53533     	sltu	a0, a0, a1
    5562: c101         	beqz	a0, 0x5562 <w2c_aes_AES_CBC_decrypt_buffer+0x338>
    5564: 00000097     	auipc	ra, 0x0
    5568: 000080e7     	jalr	ra <w2c_aes_AES_CBC_decrypt_buffer+0x33a>
    556c: 4008         	lw	a0, 0x0(s0)
    556e: 954e         	add	a0, a0, s3
    5570: 0b054403     	lbu	s0, 0xb0(a0)
    5574: 000b2483     	lw	s1, 0x0(s6)
    5578: 4488         	lw	a0, 0x8(s1)
    557a: 44cc         	lw	a1, 0xc(s1)
    557c: 00a93533     	sltu	a0, s2, a0
    5580: 00b035b3     	snez	a1, a1
    5584: 8d4d         	or	a0, a0, a1
    5586: e101         	bnez	a0, 0x5586 <w2c_aes_AES_CBC_decrypt_buffer+0x35c>
    5588: 00000097     	auipc	ra, 0x0
    558c: 000080e7     	jalr	ra <w2c_aes_AES_CBC_decrypt_buffer+0x35e>
    5590: 4088         	lw	a0, 0x0(s1)
    5592: 015445b3     	xor	a1, s0, s5
    5596: 954a         	add	a0, a0, s2
    5598: 00b50023     	sb	a1, 0x0(a0)
    559c: 000b2403     	lw	s0, 0x0(s6)
    55a0: 4408         	lw	a0, 0x8(s0)
    55a2: 444c         	lw	a1, 0xc(s0)
    55a4: 00190493     	addi	s1, s2, 0x1
    55a8: 00a4b533     	sltu	a0, s1, a0
    55ac: 00b035b3     	snez	a1, a1
    55b0: 8d4d         	or	a0, a0, a1
    55b2: e101         	bnez	a0, 0x55b2 <w2c_aes_AES_CBC_decrypt_buffer+0x388>
    55b4: 00000097     	auipc	ra, 0x0
    55b8: 000080e7     	jalr	ra <w2c_aes_AES_CBC_decrypt_buffer+0x38a>
    55bc: 4008         	lw	a0, 0x0(s0)
    55be: 017a05b3     	add	a1, s4, s7
    55c2: 952e         	add	a0, a0, a1
    55c4: 00154a83     	lbu	s5, 0x1(a0)
    55c8: 000b2403     	lw	s0, 0x0(s6)
    55cc: 4448         	lw	a0, 0xc(s0)
    55ce: 45aa         	lw	a1, 0x88(sp)
    55d0: 00a59463     	bne	a1, a0, 0x55d8 <w2c_aes_AES_CBC_decrypt_buffer+0x3ae>
    55d4: 4408         	lw	a0, 0x8(s0)
    55d6: 4586         	lw	a1, 0x40(sp)
    55d8: 00b53533     	sltu	a0, a0, a1
    55dc: c101         	beqz	a0, 0x55dc <w2c_aes_AES_CBC_decrypt_buffer+0x3b2>
    55de: 00000097     	auipc	ra, 0x0
    55e2: 000080e7     	jalr	ra <w2c_aes_AES_CBC_decrypt_buffer+0x3b4>
    55e6: 4008         	lw	a0, 0x0(s0)
    55e8: 954e         	add	a0, a0, s3
    55ea: 0b154403     	lbu	s0, 0xb1(a0)
    55ee: 000b2c83     	lw	s9, 0x0(s6)
    55f2: 008ca503     	lw	a0, 0x8(s9)
    55f6: 00cca583     	lw	a1, 0xc(s9)
    55fa: 00a4b533     	sltu	a0, s1, a0
    55fe: 00b035b3     	snez	a1, a1
    5602: 8d4d         	or	a0, a0, a1
    5604: e101         	bnez	a0, 0x5604 <w2c_aes_AES_CBC_decrypt_buffer+0x3da>
    5606: 00000097     	auipc	ra, 0x0
    560a: 000080e7     	jalr	ra <w2c_aes_AES_CBC_decrypt_buffer+0x3dc>
    560e: 000ca503     	lw	a0, 0x0(s9)
    5612: 015445b3     	xor	a1, s0, s5
    5616: 954a         	add	a0, a0, s2
    5618: 00b500a3     	sb	a1, 0x1(a0)
    561c: 000b2403     	lw	s0, 0x0(s6)
    5620: 4408         	lw	a0, 0x8(s0)
    5622: 444c         	lw	a1, 0xc(s0)
    5624: 00290a93     	addi	s5, s2, 0x2
    5628: 00aab533     	sltu	a0, s5, a0
    562c: 00b035b3     	snez	a1, a1
    5630: 8d4d         	or	a0, a0, a1
    5632: e101         	bnez	a0, 0x5632 <w2c_aes_AES_CBC_decrypt_buffer+0x408>
    5634: 00000097     	auipc	ra, 0x0
    5638: 000080e7     	jalr	ra <w2c_aes_AES_CBC_decrypt_buffer+0x40a>
    563c: 4008         	lw	a0, 0x0(s0)
    563e: 017a05b3     	add	a1, s4, s7
    5642: 952e         	add	a0, a0, a1
    5644: 00254c83     	lbu	s9, 0x2(a0)
    5648: 000b2483     	lw	s1, 0x0(s6)
    564c: 44c8         	lw	a0, 0xc(s1)
    564e: 459a         	lw	a1, 0x84(sp)
    5650: 00a59463     	bne	a1, a0, 0x5658 <w2c_aes_AES_CBC_decrypt_buffer+0x42e>
    5654: 4488         	lw	a0, 0x8(s1)
    5656: 55f2         	lw	a1, 0x3c(sp)
    5658: 00b53533     	sltu	a0, a0, a1
    565c: c101         	beqz	a0, 0x565c <w2c_aes_AES_CBC_decrypt_buffer+0x432>
    565e: 00000097     	auipc	ra, 0x0
    5662: 000080e7     	jalr	ra <w2c_aes_AES_CBC_decrypt_buffer+0x434>
    5666: 4088         	lw	a0, 0x0(s1)
    5668: 954e         	add	a0, a0, s3
    566a: 0b254483     	lbu	s1, 0xb2(a0)
    566e: 000b2403     	lw	s0, 0x0(s6)
    5672: 4408         	lw	a0, 0x8(s0)
    5674: 444c         	lw	a1, 0xc(s0)
    5676: 00aab533     	sltu	a0, s5, a0
    567a: 00b035b3     	snez	a1, a1
    567e: 8d4d         	or	a0, a0, a1
    5680: e101         	bnez	a0, 0x5680 <w2c_aes_AES_CBC_decrypt_buffer+0x456>
    5682: 00000097     	auipc	ra, 0x0
    5686: 000080e7     	jalr	ra <w2c_aes_AES_CBC_decrypt_buffer+0x458>
    568a: 4008         	lw	a0, 0x0(s0)
    568c: 0194c5b3     	xor	a1, s1, s9
    5690: 954a         	add	a0, a0, s2
    5692: 00b50123     	sb	a1, 0x2(a0)
    5696: 000b2403     	lw	s0, 0x0(s6)
    569a: 4408         	lw	a0, 0x8(s0)
    569c: 444c         	lw	a1, 0xc(s0)
    569e: 00390a93     	addi	s5, s2, 0x3
    56a2: 00aab533     	sltu	a0, s5, a0
    56a6: 00b035b3     	snez	a1, a1
    56aa: 8d4d         	or	a0, a0, a1
    56ac: e101         	bnez	a0, 0x56ac <w2c_aes_AES_CBC_decrypt_buffer+0x482>
    56ae: 00000097     	auipc	ra, 0x0
    56b2: 000080e7     	jalr	ra <w2c_aes_AES_CBC_decrypt_buffer+0x484>
    56b6: 4008         	lw	a0, 0x0(s0)
    56b8: 017a05b3     	add	a1, s4, s7
    56bc: 952e         	add	a0, a0, a1
    56be: 00354c83     	lbu	s9, 0x3(a0)
    56c2: 000b2483     	lw	s1, 0x0(s6)
    56c6: 44c8         	lw	a0, 0xc(s1)
    56c8: 458a         	lw	a1, 0x80(sp)
    56ca: 00a59463     	bne	a1, a0, 0x56d2 <w2c_aes_AES_CBC_decrypt_buffer+0x4a8>
    56ce: 4488         	lw	a0, 0x8(s1)
    56d0: 55e2         	lw	a1, 0x38(sp)
    56d2: 00b53533     	sltu	a0, a0, a1
    56d6: c101         	beqz	a0, 0x56d6 <w2c_aes_AES_CBC_decrypt_buffer+0x4ac>
    56d8: 00000097     	auipc	ra, 0x0
    56dc: 000080e7     	jalr	ra <w2c_aes_AES_CBC_decrypt_buffer+0x4ae>
    56e0: 4088         	lw	a0, 0x0(s1)
    56e2: 954e         	add	a0, a0, s3
    56e4: 0b354483     	lbu	s1, 0xb3(a0)
    56e8: 000b2403     	lw	s0, 0x0(s6)
    56ec: 4408         	lw	a0, 0x8(s0)
    56ee: 444c         	lw	a1, 0xc(s0)
    56f0: 00aab533     	sltu	a0, s5, a0
    56f4: 00b035b3     	snez	a1, a1
    56f8: 8d4d         	or	a0, a0, a1
    56fa: e101         	bnez	a0, 0x56fa <w2c_aes_AES_CBC_decrypt_buffer+0x4d0>
    56fc: 00000097     	auipc	ra, 0x0
    5700: 000080e7     	jalr	ra <w2c_aes_AES_CBC_decrypt_buffer+0x4d2>
    5704: 4008         	lw	a0, 0x0(s0)
    5706: 0194c5b3     	xor	a1, s1, s9
    570a: 954a         	add	a0, a0, s2
    570c: 00b501a3     	sb	a1, 0x3(a0)
    5710: 000b2403     	lw	s0, 0x0(s6)
    5714: 4408         	lw	a0, 0x8(s0)
    5716: 444c         	lw	a1, 0xc(s0)
    5718: 00490a93     	addi	s5, s2, 0x4
    571c: 00aab533     	sltu	a0, s5, a0
    5720: 00b035b3     	snez	a1, a1
    5724: 8d4d         	or	a0, a0, a1
    5726: e101         	bnez	a0, 0x5726 <w2c_aes_AES_CBC_decrypt_buffer+0x4fc>
    5728: 00000097     	auipc	ra, 0x0
    572c: 000080e7     	jalr	ra <w2c_aes_AES_CBC_decrypt_buffer+0x4fe>
    5730: 4008         	lw	a0, 0x0(s0)
    5732: 017a05b3     	add	a1, s4, s7
    5736: 952e         	add	a0, a0, a1
    5738: 00454c83     	lbu	s9, 0x4(a0)
    573c: 000b2483     	lw	s1, 0x0(s6)
    5740: 44c8         	lw	a0, 0xc(s1)
    5742: 55f6         	lw	a1, 0x7c(sp)
    5744: 00a59463     	bne	a1, a0, 0x574c <w2c_aes_AES_CBC_decrypt_buffer+0x522>
    5748: 4488         	lw	a0, 0x8(s1)
    574a: 55d2         	lw	a1, 0x34(sp)
    574c: 00b53533     	sltu	a0, a0, a1
    5750: c101         	beqz	a0, 0x5750 <w2c_aes_AES_CBC_decrypt_buffer+0x526>
    5752: 00000097     	auipc	ra, 0x0
    5756: 000080e7     	jalr	ra <w2c_aes_AES_CBC_decrypt_buffer+0x528>
    575a: 4088         	lw	a0, 0x0(s1)
    575c: 954e         	add	a0, a0, s3
    575e: 0b454483     	lbu	s1, 0xb4(a0)
    5762: 000b2403     	lw	s0, 0x0(s6)
    5766: 4408         	lw	a0, 0x8(s0)
    5768: 444c         	lw	a1, 0xc(s0)
    576a: 00aab533     	sltu	a0, s5, a0
    576e: 00b035b3     	snez	a1, a1
    5772: 8d4d         	or	a0, a0, a1
    5774: e101         	bnez	a0, 0x5774 <w2c_aes_AES_CBC_decrypt_buffer+0x54a>
    5776: 00000097     	auipc	ra, 0x0
    577a: 000080e7     	jalr	ra <w2c_aes_AES_CBC_decrypt_buffer+0x54c>
    577e: 4008         	lw	a0, 0x0(s0)
    5780: 0194c5b3     	xor	a1, s1, s9
    5784: 954a         	add	a0, a0, s2
    5786: 00b50223     	sb	a1, 0x4(a0)
    578a: 000b2403     	lw	s0, 0x0(s6)
    578e: 4408         	lw	a0, 0x8(s0)
    5790: 444c         	lw	a1, 0xc(s0)
    5792: 00590a93     	addi	s5, s2, 0x5
    5796: 00aab533     	sltu	a0, s5, a0
    579a: 00b035b3     	snez	a1, a1
    579e: 8d4d         	or	a0, a0, a1
    57a0: e101         	bnez	a0, 0x57a0 <w2c_aes_AES_CBC_decrypt_buffer+0x576>
    57a2: 00000097     	auipc	ra, 0x0
    57a6: 000080e7     	jalr	ra <w2c_aes_AES_CBC_decrypt_buffer+0x578>
    57aa: 4008         	lw	a0, 0x0(s0)
    57ac: 017a05b3     	add	a1, s4, s7
    57b0: 952e         	add	a0, a0, a1
    57b2: 00554c83     	lbu	s9, 0x5(a0)
    57b6: 000b2483     	lw	s1, 0x0(s6)
    57ba: 44c8         	lw	a0, 0xc(s1)
    57bc: 55e6         	lw	a1, 0x78(sp)
    57be: 00a59463     	bne	a1, a0, 0x57c6 <w2c_aes_AES_CBC_decrypt_buffer+0x59c>
    57c2: 4488         	lw	a0, 0x8(s1)
    57c4: 55c2         	lw	a1, 0x30(sp)
    57c6: 00b53533     	sltu	a0, a0, a1
    57ca: c101         	beqz	a0, 0x57ca <w2c_aes_AES_CBC_decrypt_buffer+0x5a0>
    57cc: 00000097     	auipc	ra, 0x0
    57d0: 000080e7     	jalr	ra <w2c_aes_AES_CBC_decrypt_buffer+0x5a2>
    57d4: 4088         	lw	a0, 0x0(s1)
    57d6: 954e         	add	a0, a0, s3
    57d8: 0b554483     	lbu	s1, 0xb5(a0)
    57dc: 000b2403     	lw	s0, 0x0(s6)
    57e0: 4408         	lw	a0, 0x8(s0)
    57e2: 444c         	lw	a1, 0xc(s0)
    57e4: 00aab533     	sltu	a0, s5, a0
    57e8: 00b035b3     	snez	a1, a1
    57ec: 8d4d         	or	a0, a0, a1
    57ee: e101         	bnez	a0, 0x57ee <w2c_aes_AES_CBC_decrypt_buffer+0x5c4>
    57f0: 00000097     	auipc	ra, 0x0
    57f4: 000080e7     	jalr	ra <w2c_aes_AES_CBC_decrypt_buffer+0x5c6>
    57f8: 4008         	lw	a0, 0x0(s0)
    57fa: 0194c5b3     	xor	a1, s1, s9
    57fe: 954a         	add	a0, a0, s2
    5800: 00b502a3     	sb	a1, 0x5(a0)
    5804: 000b2403     	lw	s0, 0x0(s6)
    5808: 4408         	lw	a0, 0x8(s0)
    580a: 444c         	lw	a1, 0xc(s0)
    580c: 00690a93     	addi	s5, s2, 0x6
    5810: 00aab533     	sltu	a0, s5, a0
    5814: 00b035b3     	snez	a1, a1
    5818: 8d4d         	or	a0, a0, a1
    581a: e101         	bnez	a0, 0x581a <w2c_aes_AES_CBC_decrypt_buffer+0x5f0>
    581c: 00000097     	auipc	ra, 0x0
    5820: 000080e7     	jalr	ra <w2c_aes_AES_CBC_decrypt_buffer+0x5f2>
    5824: 4008         	lw	a0, 0x0(s0)
    5826: 017a05b3     	add	a1, s4, s7
    582a: 952e         	add	a0, a0, a1
    582c: 00654c83     	lbu	s9, 0x6(a0)
    5830: 000b2483     	lw	s1, 0x0(s6)
    5834: 44c8         	lw	a0, 0xc(s1)
    5836: 55d6         	lw	a1, 0x74(sp)
    5838: 00a59463     	bne	a1, a0, 0x5840 <w2c_aes_AES_CBC_decrypt_buffer+0x616>
    583c: 4488         	lw	a0, 0x8(s1)
    583e: 55b2         	lw	a1, 0x2c(sp)
    5840: 00b53533     	sltu	a0, a0, a1
    5844: c101         	beqz	a0, 0x5844 <w2c_aes_AES_CBC_decrypt_buffer+0x61a>
    5846: 00000097     	auipc	ra, 0x0
    584a: 000080e7     	jalr	ra <w2c_aes_AES_CBC_decrypt_buffer+0x61c>
    584e: 4088         	lw	a0, 0x0(s1)
    5850: 954e         	add	a0, a0, s3
    5852: 0b654483     	lbu	s1, 0xb6(a0)
    5856: 000b2403     	lw	s0, 0x0(s6)
    585a: 4408         	lw	a0, 0x8(s0)
    585c: 444c         	lw	a1, 0xc(s0)
    585e: 00aab533     	sltu	a0, s5, a0
    5862: 00b035b3     	snez	a1, a1
    5866: 8d4d         	or	a0, a0, a1
    5868: e101         	bnez	a0, 0x5868 <w2c_aes_AES_CBC_decrypt_buffer+0x63e>
    586a: 00000097     	auipc	ra, 0x0
    586e: 000080e7     	jalr	ra <w2c_aes_AES_CBC_decrypt_buffer+0x640>
    5872: 4008         	lw	a0, 0x0(s0)
    5874: 0194c5b3     	xor	a1, s1, s9
    5878: 954a         	add	a0, a0, s2
    587a: 00b50323     	sb	a1, 0x6(a0)
    587e: 000b2403     	lw	s0, 0x0(s6)
    5882: 4408         	lw	a0, 0x8(s0)
    5884: 444c         	lw	a1, 0xc(s0)
    5886: 00790a93     	addi	s5, s2, 0x7
    588a: 00aab533     	sltu	a0, s5, a0
    588e: 00b035b3     	snez	a1, a1
    5892: 8d4d         	or	a0, a0, a1
    5894: e101         	bnez	a0, 0x5894 <w2c_aes_AES_CBC_decrypt_buffer+0x66a>
    5896: 00000097     	auipc	ra, 0x0
    589a: 000080e7     	jalr	ra <w2c_aes_AES_CBC_decrypt_buffer+0x66c>
    589e: 4008         	lw	a0, 0x0(s0)
    58a0: 017a05b3     	add	a1, s4, s7
    58a4: 952e         	add	a0, a0, a1
    58a6: 00754c83     	lbu	s9, 0x7(a0)
    58aa: 000b2483     	lw	s1, 0x0(s6)
    58ae: 44c8         	lw	a0, 0xc(s1)
    58b0: 55c6         	lw	a1, 0x70(sp)
    58b2: 00a59463     	bne	a1, a0, 0x58ba <w2c_aes_AES_CBC_decrypt_buffer+0x690>
    58b6: 4488         	lw	a0, 0x8(s1)
    58b8: 55aa         	lw	a1, 0xa8(sp)
    58ba: 00b53533     	sltu	a0, a0, a1
    58be: c101         	beqz	a0, 0x58be <w2c_aes_AES_CBC_decrypt_buffer+0x694>
    58c0: 00000097     	auipc	ra, 0x0
    58c4: 000080e7     	jalr	ra <w2c_aes_AES_CBC_decrypt_buffer+0x696>
    58c8: 4088         	lw	a0, 0x0(s1)
    58ca: 954e         	add	a0, a0, s3
    58cc: 0b754483     	lbu	s1, 0xb7(a0)
    58d0: 000b2403     	lw	s0, 0x0(s6)
    58d4: 4408         	lw	a0, 0x8(s0)
    58d6: 444c         	lw	a1, 0xc(s0)
    58d8: 00aab533     	sltu	a0, s5, a0
    58dc: 00b035b3     	snez	a1, a1
    58e0: 8d4d         	or	a0, a0, a1
    58e2: e101         	bnez	a0, 0x58e2 <w2c_aes_AES_CBC_decrypt_buffer+0x6b8>
    58e4: 00000097     	auipc	ra, 0x0
    58e8: 000080e7     	jalr	ra <w2c_aes_AES_CBC_decrypt_buffer+0x6ba>
    58ec: 4008         	lw	a0, 0x0(s0)
    58ee: 0194c5b3     	xor	a1, s1, s9
    58f2: 017a0633     	add	a2, s4, s7
    58f6: 9532         	add	a0, a0, a2
    58f8: 00b503a3     	sb	a1, 0x7(a0)
    58fc: 000b2403     	lw	s0, 0x0(s6)
    5900: 4408         	lw	a0, 0x8(s0)
    5902: 444c         	lw	a1, 0xc(s0)
    5904: 00adb533     	sltu	a0, s11, a0
    5908: 00b035b3     	snez	a1, a1
    590c: 8d4d         	or	a0, a0, a1
    590e: e101         	bnez	a0, 0x590e <w2c_aes_AES_CBC_decrypt_buffer+0x6e4>
    5910: 00000097     	auipc	ra, 0x0
    5914: 000080e7     	jalr	ra <w2c_aes_AES_CBC_decrypt_buffer+0x6e6>
    5918: 4008         	lw	a0, 0x0(s0)
    591a: 017a05b3     	add	a1, s4, s7
    591e: 952e         	add	a0, a0, a1
    5920: 00854a83     	lbu	s5, 0x8(a0)
    5924: 000b2483     	lw	s1, 0x0(s6)
    5928: 44c8         	lw	a0, 0xc(s1)
    592a: 55b6         	lw	a1, 0x6c(sp)
    592c: 00a59463     	bne	a1, a0, 0x5934 <w2c_aes_AES_CBC_decrypt_buffer+0x70a>
    5930: 4488         	lw	a0, 0x8(s1)
    5932: 55a2         	lw	a1, 0x28(sp)
    5934: 00b53533     	sltu	a0, a0, a1
    5938: c101         	beqz	a0, 0x5938 <w2c_aes_AES_CBC_decrypt_buffer+0x70e>
    593a: 00000097     	auipc	ra, 0x0
    593e: 000080e7     	jalr	ra <w2c_aes_AES_CBC_decrypt_buffer+0x710>
    5942: 4088         	lw	a0, 0x0(s1)
    5944: 954e         	add	a0, a0, s3
    5946: 0b854483     	lbu	s1, 0xb8(a0)
    594a: 000b2403     	lw	s0, 0x0(s6)
    594e: 4408         	lw	a0, 0x8(s0)
    5950: 444c         	lw	a1, 0xc(s0)
    5952: 00adb533     	sltu	a0, s11, a0
    5956: 00b035b3     	snez	a1, a1
    595a: 8d4d         	or	a0, a0, a1
    595c: e101         	bnez	a0, 0x595c <w2c_aes_AES_CBC_decrypt_buffer+0x732>
    595e: 00000097     	auipc	ra, 0x0
    5962: 000080e7     	jalr	ra <w2c_aes_AES_CBC_decrypt_buffer+0x734>
    5966: 4008         	lw	a0, 0x0(s0)
    5968: 0154c5b3     	xor	a1, s1, s5
    596c: 954a         	add	a0, a0, s2
    596e: 00b50423     	sb	a1, 0x8(a0)
    5972: 000b2403     	lw	s0, 0x0(s6)
    5976: 4408         	lw	a0, 0x8(s0)
    5978: 444c         	lw	a1, 0xc(s0)
    597a: 00990a93     	addi	s5, s2, 0x9
    597e: 00aab533     	sltu	a0, s5, a0
    5982: 00b035b3     	snez	a1, a1
    5986: 8d4d         	or	a0, a0, a1
    5988: 5da6         	lw	s11, 0x68(sp)
    598a: e101         	bnez	a0, 0x598a <w2c_aes_AES_CBC_decrypt_buffer+0x760>
    598c: 00000097     	auipc	ra, 0x0
    5990: 000080e7     	jalr	ra <w2c_aes_AES_CBC_decrypt_buffer+0x762>
    5994: 4008         	lw	a0, 0x0(s0)
    5996: 017a05b3     	add	a1, s4, s7
    599a: 952e         	add	a0, a0, a1
    599c: 00954c83     	lbu	s9, 0x9(a0)
    59a0: 000b2483     	lw	s1, 0x0(s6)
    59a4: 44c8         	lw	a0, 0xc(s1)
    59a6: 00ad8063     	beq	s11, a0, 0x59a6 <w2c_aes_AES_CBC_decrypt_buffer+0x77c>
    59aa: 01b53533     	sltu	a0, a0, s11
    59ae: c101         	beqz	a0, 0x59ae <w2c_aes_AES_CBC_decrypt_buffer+0x784>
    59b0: 00000097     	auipc	ra, 0x0
    59b4: 000080e7     	jalr	ra <w2c_aes_AES_CBC_decrypt_buffer+0x786>
    59b8: 4088         	lw	a0, 0x0(s1)
    59ba: 954e         	add	a0, a0, s3
    59bc: 0b954483     	lbu	s1, 0xb9(a0)
    59c0: 000b2403     	lw	s0, 0x0(s6)
    59c4: 4408         	lw	a0, 0x8(s0)
    59c6: 444c         	lw	a1, 0xc(s0)
    59c8: 00aab533     	sltu	a0, s5, a0
    59cc: 00b035b3     	snez	a1, a1
    59d0: 8d4d         	or	a0, a0, a1
    59d2: e101         	bnez	a0, 0x59d2 <w2c_aes_AES_CBC_decrypt_buffer+0x7a8>
    59d4: 00000097     	auipc	ra, 0x0
    59d8: 000080e7     	jalr	ra <w2c_aes_AES_CBC_decrypt_buffer+0x7aa>
    59dc: 4008         	lw	a0, 0x0(s0)
    59de: 0194c5b3     	xor	a1, s1, s9
    59e2: 954a         	add	a0, a0, s2
    59e4: 00b504a3     	sb	a1, 0x9(a0)
    59e8: 000b2403     	lw	s0, 0x0(s6)
    59ec: 4408         	lw	a0, 0x8(s0)
    59ee: 444c         	lw	a1, 0xc(s0)
    59f0: 00a90a93     	addi	s5, s2, 0xa
    59f4: 00aab533     	sltu	a0, s5, a0
    59f8: 00b035b3     	snez	a1, a1
    59fc: 8d4d         	or	a0, a0, a1
    59fe: e101         	bnez	a0, 0x59fe <w2c_aes_AES_CBC_decrypt_buffer+0x7d4>
    5a00: 00000097     	auipc	ra, 0x0
    5a04: 000080e7     	jalr	ra <w2c_aes_AES_CBC_decrypt_buffer+0x7d6>
    5a08: 4008         	lw	a0, 0x0(s0)
    5a0a: 017a05b3     	add	a1, s4, s7
    5a0e: 952e         	add	a0, a0, a1
    5a10: 00a54c83     	lbu	s9, 0xa(a0)
    5a14: 000b2483     	lw	s1, 0x0(s6)
    5a18: 44c8         	lw	a0, 0xc(s1)
    5a1a: 5596         	lw	a1, 0x64(sp)
    5a1c: 00a59463     	bne	a1, a0, 0x5a24 <w2c_aes_AES_CBC_decrypt_buffer+0x7fa>
    5a20: 4488         	lw	a0, 0x8(s1)
    5a22: 5582         	lw	a1, 0x20(sp)
    5a24: 00b53533     	sltu	a0, a0, a1
    5a28: c101         	beqz	a0, 0x5a28 <w2c_aes_AES_CBC_decrypt_buffer+0x7fe>
    5a2a: 00000097     	auipc	ra, 0x0
    5a2e: 000080e7     	jalr	ra <w2c_aes_AES_CBC_decrypt_buffer+0x800>
    5a32: 4088         	lw	a0, 0x0(s1)
    5a34: 954e         	add	a0, a0, s3
    5a36: 0ba54483     	lbu	s1, 0xba(a0)
    5a3a: 000b2403     	lw	s0, 0x0(s6)
    5a3e: 4408         	lw	a0, 0x8(s0)
    5a40: 444c         	lw	a1, 0xc(s0)
    5a42: 00aab533     	sltu	a0, s5, a0
    5a46: 00b035b3     	snez	a1, a1
    5a4a: 8d4d         	or	a0, a0, a1
    5a4c: e101         	bnez	a0, 0x5a4c <w2c_aes_AES_CBC_decrypt_buffer+0x822>
    5a4e: 00000097     	auipc	ra, 0x0
    5a52: 000080e7     	jalr	ra <w2c_aes_AES_CBC_decrypt_buffer+0x824>
    5a56: 4008         	lw	a0, 0x0(s0)
    5a58: 0194c5b3     	xor	a1, s1, s9
    5a5c: 954a         	add	a0, a0, s2
    5a5e: 00b50523     	sb	a1, 0xa(a0)
    5a62: 000b2403     	lw	s0, 0x0(s6)
    5a66: 4408         	lw	a0, 0x8(s0)
    5a68: 444c         	lw	a1, 0xc(s0)
    5a6a: 00b90a93     	addi	s5, s2, 0xb
    5a6e: 00aab533     	sltu	a0, s5, a0
    5a72: 00b035b3     	snez	a1, a1
    5a76: 8d4d         	or	a0, a0, a1
    5a78: e101         	bnez	a0, 0x5a78 <w2c_aes_AES_CBC_decrypt_buffer+0x84e>
    5a7a: 00000097     	auipc	ra, 0x0
    5a7e: 000080e7     	jalr	ra <w2c_aes_AES_CBC_decrypt_buffer+0x850>
    5a82: 4008         	lw	a0, 0x0(s0)
    5a84: 017a05b3     	add	a1, s4, s7
    5a88: 952e         	add	a0, a0, a1
    5a8a: 00b54c83     	lbu	s9, 0xb(a0)
    5a8e: 000b2483     	lw	s1, 0x0(s6)
    5a92: 44c8         	lw	a0, 0xc(s1)
    5a94: 5586         	lw	a1, 0x60(sp)
    5a96: 00a59463     	bne	a1, a0, 0x5a9e <w2c_aes_AES_CBC_decrypt_buffer+0x874>
    5a9a: 4488         	lw	a0, 0x8(s1)
    5a9c: 45f2         	lw	a1, 0x1c(sp)
    5a9e: 00b53533     	sltu	a0, a0, a1
    5aa2: c101         	beqz	a0, 0x5aa2 <w2c_aes_AES_CBC_decrypt_buffer+0x878>
    5aa4: 00000097     	auipc	ra, 0x0
    5aa8: 000080e7     	jalr	ra <w2c_aes_AES_CBC_decrypt_buffer+0x87a>
    5aac: 4088         	lw	a0, 0x0(s1)
    5aae: 954e         	add	a0, a0, s3
    5ab0: 0bb54483     	lbu	s1, 0xbb(a0)
    5ab4: 000b2403     	lw	s0, 0x0(s6)
    5ab8: 4408         	lw	a0, 0x8(s0)
    5aba: 444c         	lw	a1, 0xc(s0)
    5abc: 00aab533     	sltu	a0, s5, a0
    5ac0: 00b035b3     	snez	a1, a1
    5ac4: 8d4d         	or	a0, a0, a1
    5ac6: e101         	bnez	a0, 0x5ac6 <w2c_aes_AES_CBC_decrypt_buffer+0x89c>
    5ac8: 00000097     	auipc	ra, 0x0
    5acc: 000080e7     	jalr	ra <w2c_aes_AES_CBC_decrypt_buffer+0x89e>
    5ad0: 4008         	lw	a0, 0x0(s0)
    5ad2: 0194c5b3     	xor	a1, s1, s9
    5ad6: 954a         	add	a0, a0, s2
    5ad8: 00b505a3     	sb	a1, 0xb(a0)
    5adc: 000b2403     	lw	s0, 0x0(s6)
    5ae0: 4408         	lw	a0, 0x8(s0)
    5ae2: 444c         	lw	a1, 0xc(s0)
    5ae4: 00c90a93     	addi	s5, s2, 0xc
    5ae8: 00aab533     	sltu	a0, s5, a0
    5aec: 00b035b3     	snez	a1, a1
    5af0: 8d4d         	or	a0, a0, a1
    5af2: e101         	bnez	a0, 0x5af2 <w2c_aes_AES_CBC_decrypt_buffer+0x8c8>
    5af4: 00000097     	auipc	ra, 0x0
    5af8: 000080e7     	jalr	ra <w2c_aes_AES_CBC_decrypt_buffer+0x8ca>
    5afc: 4008         	lw	a0, 0x0(s0)
    5afe: 017a05b3     	add	a1, s4, s7
    5b02: 952e         	add	a0, a0, a1
    5b04: 00c54c83     	lbu	s9, 0xc(a0)
    5b08: 000b2483     	lw	s1, 0x0(s6)
    5b0c: 44c8         	lw	a0, 0xc(s1)
    5b0e: 45f6         	lw	a1, 0x5c(sp)
    5b10: 00a59463     	bne	a1, a0, 0x5b18 <w2c_aes_AES_CBC_decrypt_buffer+0x8ee>
    5b14: 4488         	lw	a0, 0x8(s1)
    5b16: 45e2         	lw	a1, 0x18(sp)
    5b18: 00b53533     	sltu	a0, a0, a1
    5b1c: c101         	beqz	a0, 0x5b1c <w2c_aes_AES_CBC_decrypt_buffer+0x8f2>
    5b1e: 00000097     	auipc	ra, 0x0
    5b22: 000080e7     	jalr	ra <w2c_aes_AES_CBC_decrypt_buffer+0x8f4>
    5b26: 4088         	lw	a0, 0x0(s1)
    5b28: 954e         	add	a0, a0, s3
    5b2a: 0bc54483     	lbu	s1, 0xbc(a0)
    5b2e: 000b2403     	lw	s0, 0x0(s6)
    5b32: 4408         	lw	a0, 0x8(s0)
    5b34: 444c         	lw	a1, 0xc(s0)
    5b36: 00aab533     	sltu	a0, s5, a0
    5b3a: 00b035b3     	snez	a1, a1
    5b3e: 8d4d         	or	a0, a0, a1
    5b40: e101         	bnez	a0, 0x5b40 <w2c_aes_AES_CBC_decrypt_buffer+0x916>
    5b42: 00000097     	auipc	ra, 0x0
    5b46: 000080e7     	jalr	ra <w2c_aes_AES_CBC_decrypt_buffer+0x918>
    5b4a: 4008         	lw	a0, 0x0(s0)
    5b4c: 0194c5b3     	xor	a1, s1, s9
    5b50: 954a         	add	a0, a0, s2
    5b52: 00b50623     	sb	a1, 0xc(a0)
    5b56: 000b2403     	lw	s0, 0x0(s6)
    5b5a: 4408         	lw	a0, 0x8(s0)
    5b5c: 444c         	lw	a1, 0xc(s0)
    5b5e: 00d90a93     	addi	s5, s2, 0xd
    5b62: 00aab533     	sltu	a0, s5, a0
    5b66: 00b035b3     	snez	a1, a1
    5b6a: 8d4d         	or	a0, a0, a1
    5b6c: e101         	bnez	a0, 0x5b6c <w2c_aes_AES_CBC_decrypt_buffer+0x942>
    5b6e: 00000097     	auipc	ra, 0x0
    5b72: 000080e7     	jalr	ra <w2c_aes_AES_CBC_decrypt_buffer+0x944>
    5b76: 4008         	lw	a0, 0x0(s0)
    5b78: 017a05b3     	add	a1, s4, s7
    5b7c: 952e         	add	a0, a0, a1
    5b7e: 00d54c83     	lbu	s9, 0xd(a0)
    5b82: 000b2483     	lw	s1, 0x0(s6)
    5b86: 44c8         	lw	a0, 0xc(s1)
    5b88: 45e6         	lw	a1, 0x58(sp)
    5b8a: 00a59463     	bne	a1, a0, 0x5b92 <w2c_aes_AES_CBC_decrypt_buffer+0x968>
    5b8e: 4488         	lw	a0, 0x8(s1)
    5b90: 45d2         	lw	a1, 0x14(sp)
    5b92: 00b53533     	sltu	a0, a0, a1
    5b96: c101         	beqz	a0, 0x5b96 <w2c_aes_AES_CBC_decrypt_buffer+0x96c>
    5b98: 00000097     	auipc	ra, 0x0
    5b9c: 000080e7     	jalr	ra <w2c_aes_AES_CBC_decrypt_buffer+0x96e>
    5ba0: 4088         	lw	a0, 0x0(s1)
    5ba2: 954e         	add	a0, a0, s3
    5ba4: 0bd54483     	lbu	s1, 0xbd(a0)
    5ba8: 000b2403     	lw	s0, 0x0(s6)
    5bac: 4408         	lw	a0, 0x8(s0)
    5bae: 444c         	lw	a1, 0xc(s0)
    5bb0: 00aab533     	sltu	a0, s5, a0
    5bb4: 00b035b3     	snez	a1, a1
    5bb8: 8d4d         	or	a0, a0, a1
    5bba: e101         	bnez	a0, 0x5bba <w2c_aes_AES_CBC_decrypt_buffer+0x990>
    5bbc: 00000097     	auipc	ra, 0x0
    5bc0: 000080e7     	jalr	ra <w2c_aes_AES_CBC_decrypt_buffer+0x992>
    5bc4: 4008         	lw	a0, 0x0(s0)
    5bc6: 0194c5b3     	xor	a1, s1, s9
    5bca: 954a         	add	a0, a0, s2
    5bcc: 00b506a3     	sb	a1, 0xd(a0)
    5bd0: 000b2403     	lw	s0, 0x0(s6)
    5bd4: 4408         	lw	a0, 0x8(s0)
    5bd6: 444c         	lw	a1, 0xc(s0)
    5bd8: 00e90a93     	addi	s5, s2, 0xe
    5bdc: 00aab533     	sltu	a0, s5, a0
    5be0: 00b035b3     	snez	a1, a1
    5be4: 8d4d         	or	a0, a0, a1
    5be6: e101         	bnez	a0, 0x5be6 <w2c_aes_AES_CBC_decrypt_buffer+0x9bc>
    5be8: 00000097     	auipc	ra, 0x0
    5bec: 000080e7     	jalr	ra <w2c_aes_AES_CBC_decrypt_buffer+0x9be>
    5bf0: 4008         	lw	a0, 0x0(s0)
    5bf2: 017a05b3     	add	a1, s4, s7
    5bf6: 952e         	add	a0, a0, a1
    5bf8: 00e54c83     	lbu	s9, 0xe(a0)
    5bfc: 000b2483     	lw	s1, 0x0(s6)
    5c00: 44c8         	lw	a0, 0xc(s1)
    5c02: 45d6         	lw	a1, 0x54(sp)
    5c04: 00a59463     	bne	a1, a0, 0x5c0c <w2c_aes_AES_CBC_decrypt_buffer+0x9e2>
    5c08: 4488         	lw	a0, 0x8(s1)
    5c0a: 45c2         	lw	a1, 0x10(sp)
    5c0c: 00b53533     	sltu	a0, a0, a1
    5c10: c101         	beqz	a0, 0x5c10 <w2c_aes_AES_CBC_decrypt_buffer+0x9e6>
    5c12: 00000097     	auipc	ra, 0x0
    5c16: 000080e7     	jalr	ra <w2c_aes_AES_CBC_decrypt_buffer+0x9e8>
    5c1a: 4088         	lw	a0, 0x0(s1)
    5c1c: 954e         	add	a0, a0, s3
    5c1e: 0be54483     	lbu	s1, 0xbe(a0)
    5c22: 000b2403     	lw	s0, 0x0(s6)
    5c26: 4408         	lw	a0, 0x8(s0)
    5c28: 444c         	lw	a1, 0xc(s0)
    5c2a: 00aab533     	sltu	a0, s5, a0
    5c2e: 00b035b3     	snez	a1, a1
    5c32: 8d4d         	or	a0, a0, a1
    5c34: e101         	bnez	a0, 0x5c34 <w2c_aes_AES_CBC_decrypt_buffer+0xa0a>
    5c36: 00000097     	auipc	ra, 0x0
    5c3a: 000080e7     	jalr	ra <w2c_aes_AES_CBC_decrypt_buffer+0xa0c>
    5c3e: 4008         	lw	a0, 0x0(s0)
    5c40: 0194c5b3     	xor	a1, s1, s9
    5c44: 954a         	add	a0, a0, s2
    5c46: 00b50723     	sb	a1, 0xe(a0)
    5c4a: 000b2403     	lw	s0, 0x0(s6)
    5c4e: 4408         	lw	a0, 0x8(s0)
    5c50: 444c         	lw	a1, 0xc(s0)
    5c52: 093d         	addi	s2, s2, 0xf
    5c54: 00a93533     	sltu	a0, s2, a0
    5c58: 00b035b3     	snez	a1, a1
    5c5c: 8d4d         	or	a0, a0, a1
    5c5e: e101         	bnez	a0, 0x5c5e <w2c_aes_AES_CBC_decrypt_buffer+0xa34>
    5c60: 00000097     	auipc	ra, 0x0
    5c64: 000080e7     	jalr	ra <w2c_aes_AES_CBC_decrypt_buffer+0xa36>
    5c68: 4008         	lw	a0, 0x0(s0)
    5c6a: 017a05b3     	add	a1, s4, s7
    5c6e: 952e         	add	a0, a0, a1
    5c70: 00f54a83     	lbu	s5, 0xf(a0)
    5c74: 000b2483     	lw	s1, 0x0(s6)
    5c78: 44c8         	lw	a0, 0xc(s1)
    5c7a: 4cca         	lw	s9, 0x90(sp)
    5c7c: 45c6         	lw	a1, 0x50(sp)
    5c7e: 00a59463     	bne	a1, a0, 0x5c86 <w2c_aes_AES_CBC_decrypt_buffer+0xa5c>
    5c82: 4488         	lw	a0, 0x8(s1)
    5c84: 45da         	lw	a1, 0x94(sp)
    5c86: 00b53533     	sltu	a0, a0, a1
    5c8a: c101         	beqz	a0, 0x5c8a <w2c_aes_AES_CBC_decrypt_buffer+0xa60>
    5c8c: 00000097     	auipc	ra, 0x0
    5c90: 000080e7     	jalr	ra <w2c_aes_AES_CBC_decrypt_buffer+0xa62>
    5c94: 4088         	lw	a0, 0x0(s1)
    5c96: 954e         	add	a0, a0, s3
    5c98: 0bf54483     	lbu	s1, 0xbf(a0)
    5c9c: 000b2403     	lw	s0, 0x0(s6)
    5ca0: 4408         	lw	a0, 0x8(s0)
    5ca2: 444c         	lw	a1, 0xc(s0)
    5ca4: 00a93533     	sltu	a0, s2, a0
    5ca8: 00b035b3     	snez	a1, a1
    5cac: 8d4d         	or	a0, a0, a1
    5cae: e101         	bnez	a0, 0x5cae <w2c_aes_AES_CBC_decrypt_buffer+0xa84>
    5cb0: 00000097     	auipc	ra, 0x0
    5cb4: 000080e7     	jalr	ra <w2c_aes_AES_CBC_decrypt_buffer+0xa86>
    5cb8: 4008         	lw	a0, 0x0(s0)
    5cba: 0154c5b3     	xor	a1, s1, s5
    5cbe: 017a0633     	add	a2, s4, s7
    5cc2: 9532         	add	a0, a0, a2
    5cc4: 00b507a3     	sb	a1, 0xf(a0)
    5cc8: 000b2403     	lw	s0, 0x0(s6)
    5ccc: 4448         	lw	a0, 0xc(s0)
    5cce: 559a         	lw	a1, 0xa4(sp)
    5cd0: 00a59463     	bne	a1, a0, 0x5cd8 <w2c_aes_AES_CBC_decrypt_buffer+0xaae>
    5cd4: 4408         	lw	a0, 0x8(s0)
    5cd6: 45ea         	lw	a1, 0x98(sp)
    5cd8: 00b53533     	sltu	a0, a0, a1
    5cdc: 4ab6         	lw	s5, 0x4c(sp)
    5cde: c101         	beqz	a0, 0x5cde <w2c_aes_AES_CBC_decrypt_buffer+0xab4>
    5ce0: 00000097     	auipc	ra, 0x0
    5ce4: 000080e7     	jalr	ra <w2c_aes_AES_CBC_decrypt_buffer+0xab6>
    5ce8: 4008         	lw	a0, 0x0(s0)
    5cea: 956a         	add	a0, a0, s10
    5cec: 00554583     	lbu	a1, 0x5(a0)
    5cf0: 00654603     	lbu	a2, 0x6(a0)
    5cf4: 00754683     	lbu	a3, 0x7(a0)
    5cf8: 00454703     	lbu	a4, 0x4(a0)
    5cfc: 05a2         	slli	a1, a1, 0x8
    5cfe: 0642         	slli	a2, a2, 0x10
    5d00: 06e2         	slli	a3, a3, 0x18
    5d02: 8dd9         	or	a1, a1, a4
    5d04: 8e55         	or	a2, a2, a3
    5d06: 00154683     	lbu	a3, 0x1(a0)
    5d0a: 00054703     	lbu	a4, 0x0(a0)
    5d0e: 00254783     	lbu	a5, 0x2(a0)
    5d12: 00354503     	lbu	a0, 0x3(a0)
    5d16: 06a2         	slli	a3, a3, 0x8
    5d18: 8ed9         	or	a3, a3, a4
    5d1a: 07c2         	slli	a5, a5, 0x10
    5d1c: 0562         	slli	a0, a0, 0x18
    5d1e: 8d5d         	or	a0, a0, a5
    5d20: 00b664b3     	or	s1, a2, a1
    5d24: 00d56433     	or	s0, a0, a3
    5d28: 000b2903     	lw	s2, 0x0(s6)
    5d2c: 00c92503     	lw	a0, 0xc(s2)
    5d30: 00aa8063     	beq	s5, a0, 0x5d30 <w2c_aes_AES_CBC_decrypt_buffer+0xb06>
    5d34: 01553533     	sltu	a0, a0, s5
    5d38: c101         	beqz	a0, 0x5d38 <w2c_aes_AES_CBC_decrypt_buffer+0xb0e>
    5d3a: 00000097     	auipc	ra, 0x0
    5d3e: 000080e7     	jalr	ra <w2c_aes_AES_CBC_decrypt_buffer+0xb10>
    5d42: 00092583     	lw	a1, 0x0(s2)
    5d46: 0184d813     	srli	a6, s1, 0x18
    5d4a: 0104d613     	srli	a2, s1, 0x10
    5d4e: 0084d693     	srli	a3, s1, 0x8
    5d52: 01845713     	srli	a4, s0, 0x18
    5d56: 01045793     	srli	a5, s0, 0x10
    5d5a: 552a         	lw	a0, 0xa8(sp)
    5d5c: 952e         	add	a0, a0, a1
    5d5e: 00950223     	sb	s1, 0x4(a0)
    5d62: 00d502a3     	sb	a3, 0x5(a0)
    5d66: 00c50323     	sb	a2, 0x6(a0)
    5d6a: 010503a3     	sb	a6, 0x7(a0)
    5d6e: 00845593     	srli	a1, s0, 0x8
    5d72: 00850023     	sb	s0, 0x0(a0)
    5d76: 00b500a3     	sb	a1, 0x1(a0)
    5d7a: 00f50123     	sb	a5, 0x2(a0)
    5d7e: 00e501a3     	sb	a4, 0x3(a0)
    5d82: 000b2403     	lw	s0, 0x0(s6)
    5d86: 4448         	lw	a0, 0xc(s0)
    5d88: 00ac8063     	beq	s9, a0, 0x5d88 <w2c_aes_AES_CBC_decrypt_buffer+0xb5e>
    5d8c: 01953533     	sltu	a0, a0, s9
    5d90: c101         	beqz	a0, 0x5d90 <w2c_aes_AES_CBC_decrypt_buffer+0xb66>
    5d92: 00000097     	auipc	ra, 0x0
    5d96: 000080e7     	jalr	ra <w2c_aes_AES_CBC_decrypt_buffer+0xb68>
    5d9a: 4008         	lw	a0, 0x0(s0)
    5d9c: 9562         	add	a0, a0, s8
    5d9e: 00554583     	lbu	a1, 0x5(a0)
    5da2: 00654603     	lbu	a2, 0x6(a0)
    5da6: 00754683     	lbu	a3, 0x7(a0)
    5daa: 00454703     	lbu	a4, 0x4(a0)
    5dae: 05a2         	slli	a1, a1, 0x8
    5db0: 0642         	slli	a2, a2, 0x10
    5db2: 06e2         	slli	a3, a3, 0x18
    5db4: 8dd9         	or	a1, a1, a4
    5db6: 8e55         	or	a2, a2, a3
    5db8: 00154683     	lbu	a3, 0x1(a0)
    5dbc: 00054703     	lbu	a4, 0x0(a0)
    5dc0: 00254783     	lbu	a5, 0x2(a0)
    5dc4: 00354503     	lbu	a0, 0x3(a0)
    5dc8: 06a2         	slli	a3, a3, 0x8
    5dca: 8ed9         	or	a3, a3, a4
    5dcc: 07c2         	slli	a5, a5, 0x10
    5dce: 0562         	slli	a0, a0, 0x18
    5dd0: 8d5d         	or	a0, a0, a5
    5dd2: 00b66433     	or	s0, a2, a1
    5dd6: 00d564b3     	or	s1, a0, a3
    5dda: 000b2903     	lw	s2, 0x0(s6)
    5dde: 00c92503     	lw	a0, 0xc(s2)
    5de2: 45a6         	lw	a1, 0x48(sp)
    5de4: 00a59563     	bne	a1, a0, 0x5dee <w2c_aes_AES_CBC_decrypt_buffer+0xbc4>
    5de8: 00892503     	lw	a0, 0x8(s2)
    5dec: 55aa         	lw	a1, 0xa8(sp)
    5dee: 00b53533     	sltu	a0, a0, a1
    5df2: 00050063     	beqz	a0, 0x5df2 <w2c_aes_AES_CBC_decrypt_buffer+0xbc8>
    5df6: 00000097     	auipc	ra, 0x0
    5dfa: 000080e7     	jalr	ra <w2c_aes_AES_CBC_decrypt_buffer+0xbcc>
    5dfe: 0000006f     	j	0x5dfe <w2c_aes_AES_CBC_decrypt_buffer+0xbd4>
    5e02: 4408         	lw	a0, 0x8(s0)
    5e04: 01b53533     	sltu	a0, a0, s11
    5e08: 00051063     	bnez	a0, 0x5e08 <w2c_aes_AES_CBC_decrypt_buffer+0xbde>
    5e0c: 0000006f     	j	0x5e0c <w2c_aes_AES_CBC_decrypt_buffer+0xbe2>
    5e10: 008aa503     	lw	a0, 0x8(s5)
    5e14: 01a53533     	sltu	a0, a0, s10
    5e18: 00051063     	bnez	a0, 0x5e18 <w2c_aes_AES_CBC_decrypt_buffer+0xbee>
    5e1c: 0000006f     	j	0x5e1c <w2c_aes_AES_CBC_decrypt_buffer+0xbf2>
    5e20: 440c         	lw	a1, 0x8(s0)
    5e22: 00a5b533     	sltu	a0, a1, a0
    5e26: 00051063     	bnez	a0, 0x5e26 <w2c_aes_AES_CBC_decrypt_buffer+0xbfc>
    5e2a: 0000006f     	j	0x5e2a <w2c_aes_AES_CBC_decrypt_buffer+0xc00>
    5e2e: 4488         	lw	a0, 0x8(s1)
    5e30: 5592         	lw	a1, 0x24(sp)
    5e32: 00b53533     	sltu	a0, a0, a1
    5e36: 00051063     	bnez	a0, 0x5e36 <w2c_aes_AES_CBC_decrypt_buffer+0xc0c>
    5e3a: a001         	j	0x5e3a <w2c_aes_AES_CBC_decrypt_buffer+0xc10>
    5e3c: 00892503     	lw	a0, 0x8(s2)
    5e40: 45da         	lw	a1, 0x94(sp)
    5e42: 00b53533     	sltu	a0, a0, a1
    5e46: 00051063     	bnez	a0, 0x5e46 <w2c_aes_AES_CBC_decrypt_buffer+0xc1c>
    5e4a: a001         	j	0x5e4a <w2c_aes_AES_CBC_decrypt_buffer+0xc20>
    5e4c: 4408         	lw	a0, 0x8(s0)
    5e4e: 01a53533     	sltu	a0, a0, s10
    5e52: e101         	bnez	a0, 0x5e52 <w2c_aes_AES_CBC_decrypt_buffer+0xc28>
    5e54: a001         	j	0x5e54 <w2c_aes_AES_CBC_decrypt_buffer+0xc2a>
    5e56: 004b2503     	lw	a0, 0x4(s6)
    5e5a: 45b2         	lw	a1, 0xc(sp)
    5e5c: c10c         	sw	a1, 0x0(a0)
    5e5e: 40fe         	lw	ra, 0xdc(sp)
    5e60: 446e         	lw	s0, 0xd8(sp)
    5e62: 44de         	lw	s1, 0xd4(sp)
    5e64: 494e         	lw	s2, 0xd0(sp)
    5e66: 49be         	lw	s3, 0xcc(sp)
    5e68: 4a2e         	lw	s4, 0xc8(sp)
    5e6a: 4a9e         	lw	s5, 0xc4(sp)
    5e6c: 4b0e         	lw	s6, 0xc0(sp)
    5e6e: 5bfa         	lw	s7, 0xbc(sp)
    5e70: 5c6a         	lw	s8, 0xb8(sp)
    5e72: 5cda         	lw	s9, 0xb4(sp)
    5e74: 5d4a         	lw	s10, 0xb0(sp)
    5e76: 5dba         	lw	s11, 0xac(sp)
    5e78: 612d         	addi	sp, sp, 0xe0
    5e7a: 8082         	ret

00005e7c <w2c_aes_AES_CTR_xcrypt_buffer>:
    5e7c: 7175         	addi	sp, sp, -0x90
    5e7e: c706         	sw	ra, 0x8c(sp)
    5e80: c522         	sw	s0, 0x88(sp)
    5e82: c326         	sw	s1, 0x84(sp)
    5e84: c14a         	sw	s2, 0x80(sp)
    5e86: dece         	sw	s3, 0x7c(sp)
    5e88: dcd2         	sw	s4, 0x78(sp)
    5e8a: dad6         	sw	s5, 0x74(sp)
    5e8c: d8da         	sw	s6, 0x70(sp)
    5e8e: d6de         	sw	s7, 0x6c(sp)
    5e90: d4e2         	sw	s8, 0x68(sp)
    5e92: d2e6         	sw	s9, 0x64(sp)
    5e94: d0ea         	sw	s10, 0x60(sp)
    5e96: ceee         	sw	s11, 0x5c(sp)
    5e98: 89ae         	mv	s3, a1
    5e9a: 8b2a         	mv	s6, a0
    5e9c: 4148         	lw	a0, 0x4(a0)
    5e9e: 410c         	lw	a1, 0x0(a0)
    5ea0: ff058a13     	addi	s4, a1, -0x10
    5ea4: 01452023     	sw	s4, 0x0(a0)
    5ea8: 00068063     	beqz	a3, 0x5ea8 <w2c_aes_AES_CTR_xcrypt_buffer+0x2c>
    5eac: 8936         	mv	s2, a3
    5eae: 8db2         	mv	s11, a2
    5eb0: ce2e         	sw	a1, 0x1c(sp)
    5eb2: 0b198513     	addi	a0, s3, 0xb1
    5eb6: c02a         	sw	a0, 0x0(sp)
    5eb8: 0b298513     	addi	a0, s3, 0xb2
    5ebc: c22a         	sw	a0, 0x4(sp)
    5ebe: 0b398513     	addi	a0, s3, 0xb3
    5ec2: c42a         	sw	a0, 0x8(sp)
    5ec4: 0b498c93     	addi	s9, s3, 0xb4
    5ec8: 0b598513     	addi	a0, s3, 0xb5
    5ecc: c6aa         	sw	a0, 0x4c(sp)
    5ece: 0b698513     	addi	a0, s3, 0xb6
    5ed2: c4aa         	sw	a0, 0x48(sp)
    5ed4: 0b798513     	addi	a0, s3, 0xb7
    5ed8: c62a         	sw	a0, 0xc(sp)
    5eda: 0b898b93     	addi	s7, s3, 0xb8
    5ede: 0b998513     	addi	a0, s3, 0xb9
    5ee2: c82a         	sw	a0, 0x10(sp)
    5ee4: 0ba98513     	addi	a0, s3, 0xba
    5ee8: ca2a         	sw	a0, 0x14(sp)
    5eea: 0bb98513     	addi	a0, s3, 0xbb
    5eee: cc2a         	sw	a0, 0x18(sp)
    5ef0: 0bc98513     	addi	a0, s3, 0xbc
    5ef4: d02a         	sw	a0, 0x20(sp)
    5ef6: 0bd98513     	addi	a0, s3, 0xbd
    5efa: d22a         	sw	a0, 0x24(sp)
    5efc: 0be98513     	addi	a0, s3, 0xbe
    5f00: d62a         	sw	a0, 0x2c(sp)
    5f02: 0bf98d13     	addi	s10, s3, 0xbf
    5f06: 0b098513     	addi	a0, s3, 0xb0
    5f0a: 008a0593     	addi	a1, s4, 0x8
    5f0e: 0c098613     	addi	a2, s3, 0xc0
    5f12: 010a0693     	addi	a3, s4, 0x10
    5f16: caaa         	sw	a0, 0x54(sp)
    5f18: 00abb533     	sltu	a0, s7, a0
    5f1c: c0aa         	sw	a0, 0x40(sp)
    5f1e: ccae         	sw	a1, 0x58(sp)
    5f20: 0145b533     	sltu	a0, a1, s4
    5f24: de2a         	sw	a0, 0x3c(sp)
    5f26: 01763533     	sltu	a0, a2, s7
    5f2a: dc2a         	sw	a0, 0x38(sp)
    5f2c: d436         	sw	a3, 0x28(sp)
    5f2e: 0146b533     	sltu	a0, a3, s4
    5f32: da2a         	sw	a0, 0x34(sp)
    5f34: c2b2         	sw	a2, 0x44(sp)
    5f36: 01363533     	sltu	a0, a2, s3
    5f3a: d82a         	sw	a0, 0x30(sp)
    5f3c: 4ac1         	li	s5, 0x10
    5f3e: c8e6         	sw	s9, 0x50(sp)
    5f40: a821         	j	0x5f58 <w2c_aes_AES_CTR_xcrypt_buffer+0xdc>
    5f42: 4008         	lw	a0, 0x0(s0)
    5f44: 0184c5b3     	xor	a1, s1, s8
    5f48: 197d         	addi	s2, s2, -0x1
    5f4a: 956e         	add	a0, a0, s11
    5f4c: 0d85         	addi	s11, s11, 0x1
    5f4e: 00b50023     	sb	a1, 0x0(a0)
    5f52: 0a85         	addi	s5, s5, 0x1
    5f54: 00090063     	beqz	s2, 0x5f54 <w2c_aes_AES_CTR_xcrypt_buffer+0xd8>
    5f58: 4541         	li	a0, 0x10
    5f5a: 00aa9063     	bne	s5, a0, 0x5f5a <w2c_aes_AES_CTR_xcrypt_buffer+0xde>
    5f5e: 000b2403     	lw	s0, 0x0(s6)
    5f62: 4448         	lw	a0, 0xc(s0)
    5f64: 4586         	lw	a1, 0x40(sp)
    5f66: 00a58063     	beq	a1, a0, 0x5f66 <w2c_aes_AES_CTR_xcrypt_buffer+0xea>
    5f6a: 00b53533     	sltu	a0, a0, a1
    5f6e: c101         	beqz	a0, 0x5f6e <w2c_aes_AES_CTR_xcrypt_buffer+0xf2>
    5f70: 00000097     	auipc	ra, 0x0
    5f74: 000080e7     	jalr	ra <w2c_aes_AES_CTR_xcrypt_buffer+0xf4>
    5f78: 4008         	lw	a0, 0x0(s0)
    5f7a: 45d6         	lw	a1, 0x54(sp)
    5f7c: 952e         	add	a0, a0, a1
    5f7e: 00554583     	lbu	a1, 0x5(a0)
    5f82: 00654603     	lbu	a2, 0x6(a0)
    5f86: 00754683     	lbu	a3, 0x7(a0)
    5f8a: 00454703     	lbu	a4, 0x4(a0)
    5f8e: 05a2         	slli	a1, a1, 0x8
    5f90: 0642         	slli	a2, a2, 0x10
    5f92: 06e2         	slli	a3, a3, 0x18
    5f94: 8dd9         	or	a1, a1, a4
    5f96: 8e55         	or	a2, a2, a3
    5f98: 00154683     	lbu	a3, 0x1(a0)
    5f9c: 00054703     	lbu	a4, 0x0(a0)
    5fa0: 00254783     	lbu	a5, 0x2(a0)
    5fa4: 00354503     	lbu	a0, 0x3(a0)
    5fa8: 06a2         	slli	a3, a3, 0x8
    5faa: 8ed9         	or	a3, a3, a4
    5fac: 07c2         	slli	a5, a5, 0x10
    5fae: 0562         	slli	a0, a0, 0x18
    5fb0: 8d5d         	or	a0, a0, a5
    5fb2: 00b664b3     	or	s1, a2, a1
    5fb6: 00d56433     	or	s0, a0, a3
    5fba: 000b2a83     	lw	s5, 0x0(s6)
    5fbe: 00caa503     	lw	a0, 0xc(s5)
    5fc2: 55f2         	lw	a1, 0x3c(sp)
    5fc4: 00a59563     	bne	a1, a0, 0x5fce <w2c_aes_AES_CTR_xcrypt_buffer+0x152>
    5fc8: 008aa503     	lw	a0, 0x8(s5)
    5fcc: 45e6         	lw	a1, 0x58(sp)
    5fce: 00b53533     	sltu	a0, a0, a1
    5fd2: c101         	beqz	a0, 0x5fd2 <w2c_aes_AES_CTR_xcrypt_buffer+0x156>
    5fd4: 00000097     	auipc	ra, 0x0
    5fd8: 000080e7     	jalr	ra <w2c_aes_AES_CTR_xcrypt_buffer+0x158>
    5fdc: 000aa503     	lw	a0, 0x0(s5)
    5fe0: 0184d593     	srli	a1, s1, 0x18
    5fe4: 0104d613     	srli	a2, s1, 0x10
    5fe8: 0084d693     	srli	a3, s1, 0x8
    5fec: 01845713     	srli	a4, s0, 0x18
    5ff0: 01045793     	srli	a5, s0, 0x10
    5ff4: 9552         	add	a0, a0, s4
    5ff6: 00950223     	sb	s1, 0x4(a0)
    5ffa: 00d502a3     	sb	a3, 0x5(a0)
    5ffe: 00c50323     	sb	a2, 0x6(a0)
    6002: 00b503a3     	sb	a1, 0x7(a0)
    6006: 00845593     	srli	a1, s0, 0x8
    600a: 00850023     	sb	s0, 0x0(a0)
    600e: 00b500a3     	sb	a1, 0x1(a0)
    6012: 00f50123     	sb	a5, 0x2(a0)
    6016: 00e501a3     	sb	a4, 0x3(a0)
    601a: 000b2403     	lw	s0, 0x0(s6)
    601e: 4448         	lw	a0, 0xc(s0)
    6020: 55e2         	lw	a1, 0x38(sp)
    6022: 00a59463     	bne	a1, a0, 0x602a <w2c_aes_AES_CTR_xcrypt_buffer+0x1ae>
    6026: 4408         	lw	a0, 0x8(s0)
    6028: 4596         	lw	a1, 0x44(sp)
    602a: 00b53533     	sltu	a0, a0, a1
    602e: c101         	beqz	a0, 0x602e <w2c_aes_AES_CTR_xcrypt_buffer+0x1b2>
    6030: 00000097     	auipc	ra, 0x0
    6034: 000080e7     	jalr	ra <w2c_aes_AES_CTR_xcrypt_buffer+0x1b4>
    6038: 4008         	lw	a0, 0x0(s0)
    603a: 955e         	add	a0, a0, s7
    603c: 00554583     	lbu	a1, 0x5(a0)
    6040: 00654603     	lbu	a2, 0x6(a0)
    6044: 00754683     	lbu	a3, 0x7(a0)
    6048: 00454703     	lbu	a4, 0x4(a0)
    604c: 05a2         	slli	a1, a1, 0x8
    604e: 0642         	slli	a2, a2, 0x10
    6050: 06e2         	slli	a3, a3, 0x18
    6052: 8dd9         	or	a1, a1, a4
    6054: 8e55         	or	a2, a2, a3
    6056: 00154683     	lbu	a3, 0x1(a0)
    605a: 00054703     	lbu	a4, 0x0(a0)
    605e: 00254783     	lbu	a5, 0x2(a0)
    6062: 00354503     	lbu	a0, 0x3(a0)
    6066: 06a2         	slli	a3, a3, 0x8
    6068: 8ed9         	or	a3, a3, a4
    606a: 07c2         	slli	a5, a5, 0x10
    606c: 0562         	slli	a0, a0, 0x18
    606e: 8d5d         	or	a0, a0, a5
    6070: 00b664b3     	or	s1, a2, a1
    6074: 00d56433     	or	s0, a0, a3
    6078: 000b2a83     	lw	s5, 0x0(s6)
    607c: 00caa503     	lw	a0, 0xc(s5)
    6080: 55d2         	lw	a1, 0x34(sp)
    6082: 00a59563     	bne	a1, a0, 0x608c <w2c_aes_AES_CTR_xcrypt_buffer+0x210>
    6086: 008aa503     	lw	a0, 0x8(s5)
    608a: 55a2         	lw	a1, 0x28(sp)
    608c: 00b53533     	sltu	a0, a0, a1
    6090: c101         	beqz	a0, 0x6090 <w2c_aes_AES_CTR_xcrypt_buffer+0x214>
    6092: 00000097     	auipc	ra, 0x0
    6096: 000080e7     	jalr	ra <w2c_aes_AES_CTR_xcrypt_buffer+0x216>
    609a: 000aa583     	lw	a1, 0x0(s5)
    609e: 0184d813     	srli	a6, s1, 0x18
    60a2: 0104d613     	srli	a2, s1, 0x10
    60a6: 0084d693     	srli	a3, s1, 0x8
    60aa: 01845713     	srli	a4, s0, 0x18
    60ae: 01045793     	srli	a5, s0, 0x10
    60b2: 4566         	lw	a0, 0x58(sp)
    60b4: 952e         	add	a0, a0, a1
    60b6: 00950223     	sb	s1, 0x4(a0)
    60ba: 00d502a3     	sb	a3, 0x5(a0)
    60be: 00c50323     	sb	a2, 0x6(a0)
    60c2: 010503a3     	sb	a6, 0x7(a0)
    60c6: 00845593     	srli	a1, s0, 0x8
    60ca: 00850023     	sb	s0, 0x0(a0)
    60ce: 00b500a3     	sb	a1, 0x1(a0)
    60d2: 00f50123     	sb	a5, 0x2(a0)
    60d6: 00e501a3     	sb	a4, 0x3(a0)
    60da: 855a         	mv	a0, s6
    60dc: 85d2         	mv	a1, s4
    60de: 864e         	mv	a2, s3
    60e0: 00000097     	auipc	ra, 0x0
    60e4: 000080e7     	jalr	ra <w2c_aes_AES_CTR_xcrypt_buffer+0x264>
    60e8: 000b2403     	lw	s0, 0x0(s6)
    60ec: 4448         	lw	a0, 0xc(s0)
    60ee: 55c2         	lw	a1, 0x30(sp)
    60f0: 00a59463     	bne	a1, a0, 0x60f8 <w2c_aes_AES_CTR_xcrypt_buffer+0x27c>
    60f4: 4408         	lw	a0, 0x8(s0)
    60f6: 4596         	lw	a1, 0x44(sp)
    60f8: 00b53533     	sltu	a0, a0, a1
    60fc: 4ab6         	lw	s5, 0x4c(sp)
    60fe: 44a6         	lw	s1, 0x48(sp)
    6100: c101         	beqz	a0, 0x6100 <w2c_aes_AES_CTR_xcrypt_buffer+0x284>
    6102: 00000097     	auipc	ra, 0x0
    6106: 000080e7     	jalr	ra <w2c_aes_AES_CTR_xcrypt_buffer+0x286>
    610a: 4008         	lw	a0, 0x0(s0)
    610c: 954e         	add	a0, a0, s3
    610e: 0bf54503     	lbu	a0, 0xbf(a0)
    6112: 0ff00593     	li	a1, 0xff
    6116: 00b50c63     	beq	a0, a1, 0x612e <w2c_aes_AES_CTR_xcrypt_buffer+0x2b2>
    611a: 4581         	li	a1, 0x0
    611c: 866a         	mv	a2, s10
    611e: 8cea         	mv	s9, s10
    6120: a001         	j	0x6120 <w2c_aes_AES_CTR_xcrypt_buffer+0x2a4>
    6122: 4408         	lw	a0, 0x8(s0)
    6124: 01753533     	sltu	a0, a0, s7
    6128: 00051063     	bnez	a0, 0x6128 <w2c_aes_AES_CTR_xcrypt_buffer+0x2ac>
    612c: a001         	j	0x612c <w2c_aes_AES_CTR_xcrypt_buffer+0x2b0>
    612e: 000b2403     	lw	s0, 0x0(s6)
    6132: 4408         	lw	a0, 0x8(s0)
    6134: 444c         	lw	a1, 0xc(s0)
    6136: 00ad3533     	sltu	a0, s10, a0
    613a: 00b035b3     	snez	a1, a1
    613e: 8d4d         	or	a0, a0, a1
    6140: e101         	bnez	a0, 0x6140 <w2c_aes_AES_CTR_xcrypt_buffer+0x2c4>
    6142: 00000097     	auipc	ra, 0x0
    6146: 000080e7     	jalr	ra <w2c_aes_AES_CTR_xcrypt_buffer+0x2c6>
    614a: 4008         	lw	a0, 0x0(s0)
    614c: 956a         	add	a0, a0, s10
    614e: 00050023     	sb	zero, 0x0(a0)
    6152: 000b2403     	lw	s0, 0x0(s6)
    6156: 4408         	lw	a0, 0x8(s0)
    6158: 444c         	lw	a1, 0xc(s0)
    615a: 5632         	lw	a2, 0x2c(sp)
    615c: 00a63533     	sltu	a0, a2, a0
    6160: 00b035b3     	snez	a1, a1
    6164: 8d4d         	or	a0, a0, a1
    6166: e101         	bnez	a0, 0x6166 <w2c_aes_AES_CTR_xcrypt_buffer+0x2ea>
    6168: 00000097     	auipc	ra, 0x0
    616c: 000080e7     	jalr	ra <w2c_aes_AES_CTR_xcrypt_buffer+0x2ec>
    6170: 4008         	lw	a0, 0x0(s0)
    6172: 56b2         	lw	a3, 0x2c(sp)
    6174: 9536         	add	a0, a0, a3
    6176: 00054503     	lbu	a0, 0x0(a0)
    617a: 0ff00593     	li	a1, 0xff
    617e: 00b51063     	bne	a0, a1, 0x617e <w2c_aes_AES_CTR_xcrypt_buffer+0x302>
    6182: 000b2403     	lw	s0, 0x0(s6)
    6186: 4408         	lw	a0, 0x8(s0)
    6188: 444c         	lw	a1, 0xc(s0)
    618a: 00a6b533     	sltu	a0, a3, a0
    618e: 00b035b3     	snez	a1, a1
    6192: 8d4d         	or	a0, a0, a1
    6194: e101         	bnez	a0, 0x6194 <w2c_aes_AES_CTR_xcrypt_buffer+0x318>
    6196: 00000097     	auipc	ra, 0x0
    619a: 000080e7     	jalr	ra <w2c_aes_AES_CTR_xcrypt_buffer+0x31a>
    619e: 4008         	lw	a0, 0x0(s0)
    61a0: 55b2         	lw	a1, 0x2c(sp)
    61a2: 952e         	add	a0, a0, a1
    61a4: 00050023     	sb	zero, 0x0(a0)
    61a8: 000b2403     	lw	s0, 0x0(s6)
    61ac: 4408         	lw	a0, 0x8(s0)
    61ae: 444c         	lw	a1, 0xc(s0)
    61b0: 5612         	lw	a2, 0x24(sp)
    61b2: 00a63533     	sltu	a0, a2, a0
    61b6: 00b035b3     	snez	a1, a1
    61ba: 8d4d         	or	a0, a0, a1
    61bc: e101         	bnez	a0, 0x61bc <w2c_aes_AES_CTR_xcrypt_buffer+0x340>
    61be: 00000097     	auipc	ra, 0x0
    61c2: 000080e7     	jalr	ra <w2c_aes_AES_CTR_xcrypt_buffer+0x342>
    61c6: 4008         	lw	a0, 0x0(s0)
    61c8: 5692         	lw	a3, 0x24(sp)
    61ca: 9536         	add	a0, a0, a3
    61cc: 00054503     	lbu	a0, 0x0(a0)
    61d0: 0ff00593     	li	a1, 0xff
    61d4: 00b51063     	bne	a0, a1, 0x61d4 <w2c_aes_AES_CTR_xcrypt_buffer+0x358>
    61d8: 000b2403     	lw	s0, 0x0(s6)
    61dc: 4408         	lw	a0, 0x8(s0)
    61de: 444c         	lw	a1, 0xc(s0)
    61e0: 00a6b533     	sltu	a0, a3, a0
    61e4: 00b035b3     	snez	a1, a1
    61e8: 8d4d         	or	a0, a0, a1
    61ea: e101         	bnez	a0, 0x61ea <w2c_aes_AES_CTR_xcrypt_buffer+0x36e>
    61ec: 00000097     	auipc	ra, 0x0
    61f0: 000080e7     	jalr	ra <w2c_aes_AES_CTR_xcrypt_buffer+0x370>
    61f4: 4008         	lw	a0, 0x0(s0)
    61f6: 5592         	lw	a1, 0x24(sp)
    61f8: 952e         	add	a0, a0, a1
    61fa: 00050023     	sb	zero, 0x0(a0)
    61fe: 000b2403     	lw	s0, 0x0(s6)
    6202: 4408         	lw	a0, 0x8(s0)
    6204: 444c         	lw	a1, 0xc(s0)
    6206: 5602         	lw	a2, 0x20(sp)
    6208: 00a63533     	sltu	a0, a2, a0
    620c: 00b035b3     	snez	a1, a1
    6210: 8d4d         	or	a0, a0, a1
    6212: e101         	bnez	a0, 0x6212 <w2c_aes_AES_CTR_xcrypt_buffer+0x396>
    6214: 00000097     	auipc	ra, 0x0
    6218: 000080e7     	jalr	ra <w2c_aes_AES_CTR_xcrypt_buffer+0x398>
    621c: 4008         	lw	a0, 0x0(s0)
    621e: 5682         	lw	a3, 0x20(sp)
    6220: 9536         	add	a0, a0, a3
    6222: 00054503     	lbu	a0, 0x0(a0)
    6226: 0ff00593     	li	a1, 0xff
    622a: 00b51063     	bne	a0, a1, 0x622a <w2c_aes_AES_CTR_xcrypt_buffer+0x3ae>
    622e: 000b2403     	lw	s0, 0x0(s6)
    6232: 4408         	lw	a0, 0x8(s0)
    6234: 444c         	lw	a1, 0xc(s0)
    6236: 00a6b533     	sltu	a0, a3, a0
    623a: 00b035b3     	snez	a1, a1
    623e: 8d4d         	or	a0, a0, a1
    6240: e101         	bnez	a0, 0x6240 <w2c_aes_AES_CTR_xcrypt_buffer+0x3c4>
    6242: 00000097     	auipc	ra, 0x0
    6246: 000080e7     	jalr	ra <w2c_aes_AES_CTR_xcrypt_buffer+0x3c6>
    624a: 4008         	lw	a0, 0x0(s0)
    624c: 5582         	lw	a1, 0x20(sp)
    624e: 952e         	add	a0, a0, a1
    6250: 00050023     	sb	zero, 0x0(a0)
    6254: 000b2403     	lw	s0, 0x0(s6)
    6258: 4408         	lw	a0, 0x8(s0)
    625a: 444c         	lw	a1, 0xc(s0)
    625c: 4662         	lw	a2, 0x18(sp)
    625e: 00a63533     	sltu	a0, a2, a0
    6262: 00b035b3     	snez	a1, a1
    6266: 8d4d         	or	a0, a0, a1
    6268: e101         	bnez	a0, 0x6268 <w2c_aes_AES_CTR_xcrypt_buffer+0x3ec>
    626a: 00000097     	auipc	ra, 0x0
    626e: 000080e7     	jalr	ra <w2c_aes_AES_CTR_xcrypt_buffer+0x3ee>
    6272: 4008         	lw	a0, 0x0(s0)
    6274: 46e2         	lw	a3, 0x18(sp)
    6276: 9536         	add	a0, a0, a3
    6278: 00054503     	lbu	a0, 0x0(a0)
    627c: 0ff00593     	li	a1, 0xff
    6280: 00b51063     	bne	a0, a1, 0x6280 <w2c_aes_AES_CTR_xcrypt_buffer+0x404>
    6284: 000b2403     	lw	s0, 0x0(s6)
    6288: 4408         	lw	a0, 0x8(s0)
    628a: 444c         	lw	a1, 0xc(s0)
    628c: 00a6b533     	sltu	a0, a3, a0
    6290: 00b035b3     	snez	a1, a1
    6294: 8d4d         	or	a0, a0, a1
    6296: e101         	bnez	a0, 0x6296 <w2c_aes_AES_CTR_xcrypt_buffer+0x41a>
    6298: 00000097     	auipc	ra, 0x0
    629c: 000080e7     	jalr	ra <w2c_aes_AES_CTR_xcrypt_buffer+0x41c>
    62a0: 4008         	lw	a0, 0x0(s0)
    62a2: 45e2         	lw	a1, 0x18(sp)
    62a4: 952e         	add	a0, a0, a1
    62a6: 00050023     	sb	zero, 0x0(a0)
    62aa: 000b2403     	lw	s0, 0x0(s6)
    62ae: 4408         	lw	a0, 0x8(s0)
    62b0: 444c         	lw	a1, 0xc(s0)
    62b2: 4652         	lw	a2, 0x14(sp)
    62b4: 00a63533     	sltu	a0, a2, a0
    62b8: 00b035b3     	snez	a1, a1
    62bc: 8d4d         	or	a0, a0, a1
    62be: e101         	bnez	a0, 0x62be <w2c_aes_AES_CTR_xcrypt_buffer+0x442>
    62c0: 00000097     	auipc	ra, 0x0
    62c4: 000080e7     	jalr	ra <w2c_aes_AES_CTR_xcrypt_buffer+0x444>
    62c8: 4008         	lw	a0, 0x0(s0)
    62ca: 46d2         	lw	a3, 0x14(sp)
    62cc: 9536         	add	a0, a0, a3
    62ce: 00054503     	lbu	a0, 0x0(a0)
    62d2: 0ff00593     	li	a1, 0xff
    62d6: 00b51063     	bne	a0, a1, 0x62d6 <w2c_aes_AES_CTR_xcrypt_buffer+0x45a>
    62da: 000b2403     	lw	s0, 0x0(s6)
    62de: 4408         	lw	a0, 0x8(s0)
    62e0: 444c         	lw	a1, 0xc(s0)
    62e2: 00a6b533     	sltu	a0, a3, a0
    62e6: 00b035b3     	snez	a1, a1
    62ea: 8d4d         	or	a0, a0, a1
    62ec: e101         	bnez	a0, 0x62ec <w2c_aes_AES_CTR_xcrypt_buffer+0x470>
    62ee: 00000097     	auipc	ra, 0x0
    62f2: 000080e7     	jalr	ra <w2c_aes_AES_CTR_xcrypt_buffer+0x472>
    62f6: 4008         	lw	a0, 0x0(s0)
    62f8: 45d2         	lw	a1, 0x14(sp)
    62fa: 952e         	add	a0, a0, a1
    62fc: 00050023     	sb	zero, 0x0(a0)
    6300: 000b2403     	lw	s0, 0x0(s6)
    6304: 4408         	lw	a0, 0x8(s0)
    6306: 444c         	lw	a1, 0xc(s0)
    6308: 4642         	lw	a2, 0x10(sp)
    630a: 00a63533     	sltu	a0, a2, a0
    630e: 00b035b3     	snez	a1, a1
    6312: 8d4d         	or	a0, a0, a1
    6314: e101         	bnez	a0, 0x6314 <w2c_aes_AES_CTR_xcrypt_buffer+0x498>
    6316: 00000097     	auipc	ra, 0x0
    631a: 000080e7     	jalr	ra <w2c_aes_AES_CTR_xcrypt_buffer+0x49a>
    631e: 4008         	lw	a0, 0x0(s0)
    6320: 46c2         	lw	a3, 0x10(sp)
    6322: 9536         	add	a0, a0, a3
    6324: 00054503     	lbu	a0, 0x0(a0)
    6328: 0ff00593     	li	a1, 0xff
    632c: 00b50063     	beq	a0, a1, 0x632c <w2c_aes_AES_CTR_xcrypt_buffer+0x4b0>
    6330: 4581         	li	a1, 0x0
    6332: 8636         	mv	a2, a3
    6334: 8cb6         	mv	s9, a3
    6336: 000b2c03     	lw	s8, 0x0(s6)
    633a: 00cc2683     	lw	a3, 0xc(s8)
    633e: 00b68063     	beq	a3, a1, 0x633e <w2c_aes_AES_CTR_xcrypt_buffer+0x4c2>
    6342: 00d5b5b3     	sltu	a1, a1, a3
    6346: 00150413     	addi	s0, a0, 0x1
    634a: e181         	bnez	a1, 0x634a <w2c_aes_AES_CTR_xcrypt_buffer+0x4ce>
    634c: 00000097     	auipc	ra, 0x0
    6350: 000080e7     	jalr	ra <w2c_aes_AES_CTR_xcrypt_buffer+0x4d0>
    6354: 4a81         	li	s5, 0x0
    6356: 000c2503     	lw	a0, 0x0(s8)
    635a: 9566         	add	a0, a0, s9
    635c: 00850023     	sb	s0, 0x0(a0)
    6360: 4cc6         	lw	s9, 0x50(sp)
    6362: 000b2403     	lw	s0, 0x0(s6)
    6366: 4408         	lw	a0, 0x8(s0)
    6368: 444c         	lw	a1, 0xc(s0)
    636a: 014a84b3     	add	s1, s5, s4
    636e: 00a4b533     	sltu	a0, s1, a0
    6372: 00b035b3     	snez	a1, a1
    6376: 8d4d         	or	a0, a0, a1
    6378: e101         	bnez	a0, 0x6378 <w2c_aes_AES_CTR_xcrypt_buffer+0x4fc>
    637a: 00000097     	auipc	ra, 0x0
    637e: 000080e7     	jalr	ra <w2c_aes_AES_CTR_xcrypt_buffer+0x4fe>
    6382: 4008         	lw	a0, 0x0(s0)
    6384: 9526         	add	a0, a0, s1
    6386: 00054c03     	lbu	s8, 0x0(a0)
    638a: 000b2403     	lw	s0, 0x0(s6)
    638e: 4408         	lw	a0, 0x8(s0)
    6390: 444c         	lw	a1, 0xc(s0)
    6392: 00adb533     	sltu	a0, s11, a0
    6396: 00b035b3     	snez	a1, a1
    639a: 8d4d         	or	a0, a0, a1
    639c: e101         	bnez	a0, 0x639c <w2c_aes_AES_CTR_xcrypt_buffer+0x520>
    639e: 00000097     	auipc	ra, 0x0
    63a2: 000080e7     	jalr	ra <w2c_aes_AES_CTR_xcrypt_buffer+0x522>
    63a6: 4008         	lw	a0, 0x0(s0)
    63a8: 956e         	add	a0, a0, s11
    63aa: 00054483     	lbu	s1, 0x0(a0)
    63ae: 000b2403     	lw	s0, 0x0(s6)
    63b2: 4408         	lw	a0, 0x8(s0)
    63b4: 444c         	lw	a1, 0xc(s0)
    63b6: 00adb533     	sltu	a0, s11, a0
    63ba: 00b035b3     	snez	a1, a1
    63be: 8d4d         	or	a0, a0, a1
    63c0: 00051063     	bnez	a0, 0x63c0 <w2c_aes_AES_CTR_xcrypt_buffer+0x544>
    63c4: 00000097     	auipc	ra, 0x0
    63c8: 000080e7     	jalr	ra <w2c_aes_AES_CTR_xcrypt_buffer+0x548>
    63cc: a001         	j	0x63cc <w2c_aes_AES_CTR_xcrypt_buffer+0x550>
    63ce: 008c2583     	lw	a1, 0x8(s8)
    63d2: 00b635b3     	sltu	a1, a2, a1
    63d6: 00150413     	addi	s0, a0, 0x1
    63da: c181         	beqz	a1, 0x63da <w2c_aes_AES_CTR_xcrypt_buffer+0x55e>
    63dc: a001         	j	0x63dc <w2c_aes_AES_CTR_xcrypt_buffer+0x560>
    63de: 000b2403     	lw	s0, 0x0(s6)
    63e2: 4408         	lw	a0, 0x8(s0)
    63e4: 444c         	lw	a1, 0xc(s0)
    63e6: 00a6b533     	sltu	a0, a3, a0
    63ea: 00b035b3     	snez	a1, a1
    63ee: 8d4d         	or	a0, a0, a1
    63f0: e101         	bnez	a0, 0x63f0 <w2c_aes_AES_CTR_xcrypt_buffer+0x574>
    63f2: 00000097     	auipc	ra, 0x0
    63f6: 000080e7     	jalr	ra <w2c_aes_AES_CTR_xcrypt_buffer+0x576>
    63fa: 4008         	lw	a0, 0x0(s0)
    63fc: 45c2         	lw	a1, 0x10(sp)
    63fe: 952e         	add	a0, a0, a1
    6400: 00050023     	sb	zero, 0x0(a0)
    6404: 000b2403     	lw	s0, 0x0(s6)
    6408: 4408         	lw	a0, 0x8(s0)
    640a: 444c         	lw	a1, 0xc(s0)
    640c: 00abb533     	sltu	a0, s7, a0
    6410: 00b035b3     	snez	a1, a1
    6414: 8d4d         	or	a0, a0, a1
    6416: e101         	bnez	a0, 0x6416 <w2c_aes_AES_CTR_xcrypt_buffer+0x59a>
    6418: 00000097     	auipc	ra, 0x0
    641c: 000080e7     	jalr	ra <w2c_aes_AES_CTR_xcrypt_buffer+0x59c>
    6420: 4008         	lw	a0, 0x0(s0)
    6422: 955e         	add	a0, a0, s7
    6424: 00054503     	lbu	a0, 0x0(a0)
    6428: 0ff00593     	li	a1, 0xff
    642c: 00b50663     	beq	a0, a1, 0x6438 <w2c_aes_AES_CTR_xcrypt_buffer+0x5bc>
    6430: 4581         	li	a1, 0x0
    6432: 865e         	mv	a2, s7
    6434: 8cde         	mv	s9, s7
    6436: a001         	j	0x6436 <w2c_aes_AES_CTR_xcrypt_buffer+0x5ba>
    6438: 000b2403     	lw	s0, 0x0(s6)
    643c: 4408         	lw	a0, 0x8(s0)
    643e: 444c         	lw	a1, 0xc(s0)
    6440: 00abb533     	sltu	a0, s7, a0
    6444: 00b035b3     	snez	a1, a1
    6448: 8d4d         	or	a0, a0, a1
    644a: e101         	bnez	a0, 0x644a <w2c_aes_AES_CTR_xcrypt_buffer+0x5ce>
    644c: 00000097     	auipc	ra, 0x0
    6450: 000080e7     	jalr	ra <w2c_aes_AES_CTR_xcrypt_buffer+0x5d0>
    6454: 4008         	lw	a0, 0x0(s0)
    6456: 955e         	add	a0, a0, s7
    6458: 00050023     	sb	zero, 0x0(a0)
    645c: 000b2403     	lw	s0, 0x0(s6)
    6460: 4408         	lw	a0, 0x8(s0)
    6462: 444c         	lw	a1, 0xc(s0)
    6464: 4632         	lw	a2, 0xc(sp)
    6466: 00a63533     	sltu	a0, a2, a0
    646a: 00b035b3     	snez	a1, a1
    646e: 8d4d         	or	a0, a0, a1
    6470: e101         	bnez	a0, 0x6470 <w2c_aes_AES_CTR_xcrypt_buffer+0x5f4>
    6472: 00000097     	auipc	ra, 0x0
    6476: 000080e7     	jalr	ra <w2c_aes_AES_CTR_xcrypt_buffer+0x5f6>
    647a: 4008         	lw	a0, 0x0(s0)
    647c: 46b2         	lw	a3, 0xc(sp)
    647e: 9536         	add	a0, a0, a3
    6480: 00054503     	lbu	a0, 0x0(a0)
    6484: 0ff00593     	li	a1, 0xff
    6488: 00b51063     	bne	a0, a1, 0x6488 <w2c_aes_AES_CTR_xcrypt_buffer+0x60c>
    648c: 000b2403     	lw	s0, 0x0(s6)
    6490: 4408         	lw	a0, 0x8(s0)
    6492: 444c         	lw	a1, 0xc(s0)
    6494: 00a6b533     	sltu	a0, a3, a0
    6498: 00b035b3     	snez	a1, a1
    649c: 8d4d         	or	a0, a0, a1
    649e: e101         	bnez	a0, 0x649e <w2c_aes_AES_CTR_xcrypt_buffer+0x622>
    64a0: 00000097     	auipc	ra, 0x0
    64a4: 000080e7     	jalr	ra <w2c_aes_AES_CTR_xcrypt_buffer+0x624>
    64a8: 4008         	lw	a0, 0x0(s0)
    64aa: 45b2         	lw	a1, 0xc(sp)
    64ac: 952e         	add	a0, a0, a1
    64ae: 00050023     	sb	zero, 0x0(a0)
    64b2: 000b2403     	lw	s0, 0x0(s6)
    64b6: 4408         	lw	a0, 0x8(s0)
    64b8: 444c         	lw	a1, 0xc(s0)
    64ba: 00a4b533     	sltu	a0, s1, a0
    64be: 00b035b3     	snez	a1, a1
    64c2: 8d4d         	or	a0, a0, a1
    64c4: e101         	bnez	a0, 0x64c4 <w2c_aes_AES_CTR_xcrypt_buffer+0x648>
    64c6: 00000097     	auipc	ra, 0x0
    64ca: 000080e7     	jalr	ra <w2c_aes_AES_CTR_xcrypt_buffer+0x64a>
    64ce: 4008         	lw	a0, 0x0(s0)
    64d0: 9526         	add	a0, a0, s1
    64d2: 00054503     	lbu	a0, 0x0(a0)
    64d6: 0ff00593     	li	a1, 0xff
    64da: 00b50663     	beq	a0, a1, 0x64e6 <w2c_aes_AES_CTR_xcrypt_buffer+0x66a>
    64de: 4581         	li	a1, 0x0
    64e0: 8626         	mv	a2, s1
    64e2: 8ca6         	mv	s9, s1
    64e4: a001         	j	0x64e4 <w2c_aes_AES_CTR_xcrypt_buffer+0x668>
    64e6: 000b2403     	lw	s0, 0x0(s6)
    64ea: 4408         	lw	a0, 0x8(s0)
    64ec: 444c         	lw	a1, 0xc(s0)
    64ee: 00a4b533     	sltu	a0, s1, a0
    64f2: 00b035b3     	snez	a1, a1
    64f6: 8d4d         	or	a0, a0, a1
    64f8: e101         	bnez	a0, 0x64f8 <w2c_aes_AES_CTR_xcrypt_buffer+0x67c>
    64fa: 00000097     	auipc	ra, 0x0
    64fe: 000080e7     	jalr	ra <w2c_aes_AES_CTR_xcrypt_buffer+0x67e>
    6502: 4008         	lw	a0, 0x0(s0)
    6504: 9526         	add	a0, a0, s1
    6506: 00050023     	sb	zero, 0x0(a0)
    650a: 000b2403     	lw	s0, 0x0(s6)
    650e: 4408         	lw	a0, 0x8(s0)
    6510: 444c         	lw	a1, 0xc(s0)
    6512: 00aab533     	sltu	a0, s5, a0
    6516: 00b035b3     	snez	a1, a1
    651a: 8d4d         	or	a0, a0, a1
    651c: e101         	bnez	a0, 0x651c <w2c_aes_AES_CTR_xcrypt_buffer+0x6a0>
    651e: 00000097     	auipc	ra, 0x0
    6522: 000080e7     	jalr	ra <w2c_aes_AES_CTR_xcrypt_buffer+0x6a2>
    6526: 4008         	lw	a0, 0x0(s0)
    6528: 9556         	add	a0, a0, s5
    652a: 00054503     	lbu	a0, 0x0(a0)
    652e: 0ff00593     	li	a1, 0xff
    6532: 00b50663     	beq	a0, a1, 0x653e <w2c_aes_AES_CTR_xcrypt_buffer+0x6c2>
    6536: 4581         	li	a1, 0x0
    6538: 8656         	mv	a2, s5
    653a: 8cd6         	mv	s9, s5
    653c: a001         	j	0x653c <w2c_aes_AES_CTR_xcrypt_buffer+0x6c0>
    653e: 000b2403     	lw	s0, 0x0(s6)
    6542: 4408         	lw	a0, 0x8(s0)
    6544: 444c         	lw	a1, 0xc(s0)
    6546: 00aab533     	sltu	a0, s5, a0
    654a: 00b035b3     	snez	a1, a1
    654e: 8d4d         	or	a0, a0, a1
    6550: e101         	bnez	a0, 0x6550 <w2c_aes_AES_CTR_xcrypt_buffer+0x6d4>
    6552: 00000097     	auipc	ra, 0x0
    6556: 000080e7     	jalr	ra <w2c_aes_AES_CTR_xcrypt_buffer+0x6d6>
    655a: 4008         	lw	a0, 0x0(s0)
    655c: 9556         	add	a0, a0, s5
    655e: 00050023     	sb	zero, 0x0(a0)
    6562: 000b2403     	lw	s0, 0x0(s6)
    6566: 4408         	lw	a0, 0x8(s0)
    6568: 444c         	lw	a1, 0xc(s0)
    656a: 00acb533     	sltu	a0, s9, a0
    656e: 00b035b3     	snez	a1, a1
    6572: 8d4d         	or	a0, a0, a1
    6574: e101         	bnez	a0, 0x6574 <w2c_aes_AES_CTR_xcrypt_buffer+0x6f8>
    6576: 00000097     	auipc	ra, 0x0
    657a: 000080e7     	jalr	ra <w2c_aes_AES_CTR_xcrypt_buffer+0x6fa>
    657e: 4008         	lw	a0, 0x0(s0)
    6580: 9566         	add	a0, a0, s9
    6582: 00054503     	lbu	a0, 0x0(a0)
    6586: 0ff00593     	li	a1, 0xff
    658a: 00b51063     	bne	a0, a1, 0x658a <w2c_aes_AES_CTR_xcrypt_buffer+0x70e>
    658e: 000b2403     	lw	s0, 0x0(s6)
    6592: 4408         	lw	a0, 0x8(s0)
    6594: 444c         	lw	a1, 0xc(s0)
    6596: 00acb533     	sltu	a0, s9, a0
    659a: 00b035b3     	snez	a1, a1
    659e: 8d4d         	or	a0, a0, a1
    65a0: e101         	bnez	a0, 0x65a0 <w2c_aes_AES_CTR_xcrypt_buffer+0x724>
    65a2: 00000097     	auipc	ra, 0x0
    65a6: 000080e7     	jalr	ra <w2c_aes_AES_CTR_xcrypt_buffer+0x726>
    65aa: 4008         	lw	a0, 0x0(s0)
    65ac: 9566         	add	a0, a0, s9
    65ae: 00050023     	sb	zero, 0x0(a0)
    65b2: 000b2403     	lw	s0, 0x0(s6)
    65b6: 4408         	lw	a0, 0x8(s0)
    65b8: 444c         	lw	a1, 0xc(s0)
    65ba: 4ca2         	lw	s9, 0x8(sp)
    65bc: 00acb533     	sltu	a0, s9, a0
    65c0: 00b035b3     	snez	a1, a1
    65c4: 8d4d         	or	a0, a0, a1
    65c6: e101         	bnez	a0, 0x65c6 <w2c_aes_AES_CTR_xcrypt_buffer+0x74a>
    65c8: 00000097     	auipc	ra, 0x0
    65cc: 000080e7     	jalr	ra <w2c_aes_AES_CTR_xcrypt_buffer+0x74c>
    65d0: 4008         	lw	a0, 0x0(s0)
    65d2: 9566         	add	a0, a0, s9
    65d4: 00054503     	lbu	a0, 0x0(a0)
    65d8: 0ff00593     	li	a1, 0xff
    65dc: 00b50563     	beq	a0, a1, 0x65e6 <w2c_aes_AES_CTR_xcrypt_buffer+0x76a>
    65e0: 4581         	li	a1, 0x0
    65e2: 8666         	mv	a2, s9
    65e4: a001         	j	0x65e4 <w2c_aes_AES_CTR_xcrypt_buffer+0x768>
    65e6: 000b2403     	lw	s0, 0x0(s6)
    65ea: 4408         	lw	a0, 0x8(s0)
    65ec: 444c         	lw	a1, 0xc(s0)
    65ee: 00acb533     	sltu	a0, s9, a0
    65f2: 00b035b3     	snez	a1, a1
    65f6: 8d4d         	or	a0, a0, a1
    65f8: e101         	bnez	a0, 0x65f8 <w2c_aes_AES_CTR_xcrypt_buffer+0x77c>
    65fa: 00000097     	auipc	ra, 0x0
    65fe: 000080e7     	jalr	ra <w2c_aes_AES_CTR_xcrypt_buffer+0x77e>
    6602: 4008         	lw	a0, 0x0(s0)
    6604: 45a2         	lw	a1, 0x8(sp)
    6606: 952e         	add	a0, a0, a1
    6608: 00050023     	sb	zero, 0x0(a0)
    660c: 000b2403     	lw	s0, 0x0(s6)
    6610: 4408         	lw	a0, 0x8(s0)
    6612: 444c         	lw	a1, 0xc(s0)
    6614: 4612         	lw	a2, 0x4(sp)
    6616: 00a63533     	sltu	a0, a2, a0
    661a: 00b035b3     	snez	a1, a1
    661e: 8d4d         	or	a0, a0, a1
    6620: e101         	bnez	a0, 0x6620 <w2c_aes_AES_CTR_xcrypt_buffer+0x7a4>
    6622: 00000097     	auipc	ra, 0x0
    6626: 000080e7     	jalr	ra <w2c_aes_AES_CTR_xcrypt_buffer+0x7a6>
    662a: 4008         	lw	a0, 0x0(s0)
    662c: 4592         	lw	a1, 0x4(sp)
    662e: 952e         	add	a0, a0, a1
    6630: 00054503     	lbu	a0, 0x0(a0)
    6634: 0ff00593     	li	a1, 0xff
    6638: 00b50563     	beq	a0, a1, 0x6642 <w2c_aes_AES_CTR_xcrypt_buffer+0x7c6>
    663c: 4581         	li	a1, 0x0
    663e: 4c92         	lw	s9, 0x4(sp)
    6640: a001         	j	0x6640 <w2c_aes_AES_CTR_xcrypt_buffer+0x7c4>
    6642: 000b2403     	lw	s0, 0x0(s6)
    6646: 4408         	lw	a0, 0x8(s0)
    6648: 444c         	lw	a1, 0xc(s0)
    664a: 4612         	lw	a2, 0x4(sp)
    664c: 00a63533     	sltu	a0, a2, a0
    6650: 00b035b3     	snez	a1, a1
    6654: 8d4d         	or	a0, a0, a1
    6656: e101         	bnez	a0, 0x6656 <w2c_aes_AES_CTR_xcrypt_buffer+0x7da>
    6658: 00000097     	auipc	ra, 0x0
    665c: 000080e7     	jalr	ra <w2c_aes_AES_CTR_xcrypt_buffer+0x7dc>
    6660: 4008         	lw	a0, 0x0(s0)
    6662: 4592         	lw	a1, 0x4(sp)
    6664: 952e         	add	a0, a0, a1
    6666: 00050023     	sb	zero, 0x0(a0)
    666a: 000b2403     	lw	s0, 0x0(s6)
    666e: 4408         	lw	a0, 0x8(s0)
    6670: 444c         	lw	a1, 0xc(s0)
    6672: 4602         	lw	a2, 0x0(sp)
    6674: 00a63533     	sltu	a0, a2, a0
    6678: 00b035b3     	snez	a1, a1
    667c: 8d4d         	or	a0, a0, a1
    667e: e101         	bnez	a0, 0x667e <w2c_aes_AES_CTR_xcrypt_buffer+0x802>
    6680: 00000097     	auipc	ra, 0x0
    6684: 000080e7     	jalr	ra <w2c_aes_AES_CTR_xcrypt_buffer+0x804>
    6688: 4008         	lw	a0, 0x0(s0)
    668a: 4582         	lw	a1, 0x0(sp)
    668c: 952e         	add	a0, a0, a1
    668e: 00054503     	lbu	a0, 0x0(a0)
    6692: 0ff00593     	li	a1, 0xff
    6696: 00b50563     	beq	a0, a1, 0x66a0 <w2c_aes_AES_CTR_xcrypt_buffer+0x824>
    669a: 4581         	li	a1, 0x0
    669c: 4c82         	lw	s9, 0x0(sp)
    669e: a001         	j	0x669e <w2c_aes_AES_CTR_xcrypt_buffer+0x822>
    66a0: 000b2403     	lw	s0, 0x0(s6)
    66a4: 4408         	lw	a0, 0x8(s0)
    66a6: 444c         	lw	a1, 0xc(s0)
    66a8: 4602         	lw	a2, 0x0(sp)
    66aa: 00a63533     	sltu	a0, a2, a0
    66ae: 00b035b3     	snez	a1, a1
    66b2: 8d4d         	or	a0, a0, a1
    66b4: e101         	bnez	a0, 0x66b4 <w2c_aes_AES_CTR_xcrypt_buffer+0x838>
    66b6: 00000097     	auipc	ra, 0x0
    66ba: 000080e7     	jalr	ra <w2c_aes_AES_CTR_xcrypt_buffer+0x83a>
    66be: 4008         	lw	a0, 0x0(s0)
    66c0: 4582         	lw	a1, 0x0(sp)
    66c2: 952e         	add	a0, a0, a1
    66c4: 00050023     	sb	zero, 0x0(a0)
    66c8: 000b2403     	lw	s0, 0x0(s6)
    66cc: 4408         	lw	a0, 0x8(s0)
    66ce: 444c         	lw	a1, 0xc(s0)
    66d0: 4656         	lw	a2, 0x54(sp)
    66d2: 00a63533     	sltu	a0, a2, a0
    66d6: 00b035b3     	snez	a1, a1
    66da: 8d4d         	or	a0, a0, a1
    66dc: e101         	bnez	a0, 0x66dc <w2c_aes_AES_CTR_xcrypt_buffer+0x860>
    66de: 00000097     	auipc	ra, 0x0
    66e2: 000080e7     	jalr	ra <w2c_aes_AES_CTR_xcrypt_buffer+0x862>
    66e6: 4008         	lw	a0, 0x0(s0)
    66e8: 45d6         	lw	a1, 0x54(sp)
    66ea: 952e         	add	a0, a0, a1
    66ec: 00054503     	lbu	a0, 0x0(a0)
    66f0: 0ff00593     	li	a1, 0xff
    66f4: 00b50563     	beq	a0, a1, 0x66fe <w2c_aes_AES_CTR_xcrypt_buffer+0x882>
    66f8: 4581         	li	a1, 0x0
    66fa: 4cd6         	lw	s9, 0x54(sp)
    66fc: a001         	j	0x66fc <w2c_aes_AES_CTR_xcrypt_buffer+0x880>
    66fe: 4401         	li	s0, 0x0
    6700: 000b2c03     	lw	s8, 0x0(s6)
    6704: 008c2503     	lw	a0, 0x8(s8)
    6708: 00cc2583     	lw	a1, 0xc(s8)
    670c: 4cd6         	lw	s9, 0x54(sp)
    670e: 00acb533     	sltu	a0, s9, a0
    6712: 00b035b3     	snez	a1, a1
    6716: 8d4d         	or	a0, a0, a1
    6718: 00050063     	beqz	a0, 0x6718 <w2c_aes_AES_CTR_xcrypt_buffer+0x89c>
    671c: a001         	j	0x671c <w2c_aes_AES_CTR_xcrypt_buffer+0x8a0>
    671e: 004b2503     	lw	a0, 0x4(s6)
    6722: 45f2         	lw	a1, 0x1c(sp)
    6724: c10c         	sw	a1, 0x0(a0)
    6726: 40ba         	lw	ra, 0x8c(sp)
    6728: 442a         	lw	s0, 0x88(sp)
    672a: 449a         	lw	s1, 0x84(sp)
    672c: 490a         	lw	s2, 0x80(sp)
    672e: 59f6         	lw	s3, 0x7c(sp)
    6730: 5a66         	lw	s4, 0x78(sp)
    6732: 5ad6         	lw	s5, 0x74(sp)
    6734: 5b46         	lw	s6, 0x70(sp)
    6736: 5bb6         	lw	s7, 0x6c(sp)
    6738: 5c26         	lw	s8, 0x68(sp)
    673a: 5c96         	lw	s9, 0x64(sp)
    673c: 5d06         	lw	s10, 0x60(sp)
    673e: 4df6         	lw	s11, 0x5c(sp)
    6740: 6149         	addi	sp, sp, 0x90
    6742: 8082         	ret
