
coremark_wasm2c_arm.o:     file format elf32-littlearm


Disassembly of section .text:

00000000 <i32_load_default32>:
       0:	e590c020 	ldr	ip, [r0, #32]
       4:	e2921004 	adds	r1, r2, #4
       8:	e2a33000 	adc	r3, r3, #0
       c:	e15c0001 	cmp	ip, r1
      10:	e5901024 	ldr	r1, [r0, #36]	@ 0x24
      14:	e0d11003 	sbcs	r1, r1, r3
      18:	3a000002 	bcc	28 <i32_load_default32+0x28>
      1c:	e5903000 	ldr	r3, [r0]
      20:	e7930002 	ldr	r0, [r3, r2]
      24:	e12fff1e 	bx	lr
      28:	e3a00001 	mov	r0, #1
      2c:	e92d4010 	push	{r4, lr}
      30:	ebfffffe 	bl	0 <wasm_rt_trap>

00000034 <i32_load16_u_default32>:
      34:	e590c020 	ldr	ip, [r0, #32]
      38:	e2921002 	adds	r1, r2, #2
      3c:	e2a33000 	adc	r3, r3, #0
      40:	e15c0001 	cmp	ip, r1
      44:	e5901024 	ldr	r1, [r0, #36]	@ 0x24
      48:	e0d11003 	sbcs	r1, r1, r3
      4c:	3a000002 	bcc	5c <i32_load16_u_default32+0x28>
      50:	e5903000 	ldr	r3, [r0]
      54:	e19300b2 	ldrh	r0, [r3, r2]
      58:	e12fff1e 	bx	lr
      5c:	e3a00001 	mov	r0, #1
      60:	e92d4010 	push	{r4, lr}
      64:	ebfffffe 	bl	0 <wasm_rt_trap>

00000068 <w2c_0x24coremark0x2Ewasm_0x5FExit>:
      68:	e59f3058 	ldr	r3, [pc, #88]	@ c8 <w2c_0x24coremark0x2Ewasm_0x5FExit+0x60>
      6c:	ee1d2f70 	mrc	15, 0, r2, cr13, cr0, {3}
      70:	e92d4010 	push	{r4, lr}
      74:	e79f3003 	ldr	r3, [pc, r3]
      78:	e7923003 	ldr	r3, [r2, r3]
      7c:	e283c001 	add	ip, r3, #1
      80:	e35c0f7d 	cmp	ip, #500	@ 0x1f4
      84:	9a000004 	bls	9c <w2c_0x24coremark0x2Ewasm_0x5FExit+0x34>
      88:	e59f303c 	ldr	r3, [pc, #60]	@ cc <w2c_0x24coremark0x2Ewasm_0x5FExit+0x64>
      8c:	e79f3003 	ldr	r3, [pc, r3]
      90:	e782c003 	str	ip, [r2, r3]
      94:	e3a0000a 	mov	r0, #10
      98:	ebfffffe 	bl	0 <wasm_rt_trap>
      9c:	e59fc02c 	ldr	ip, [pc, #44]	@ d0 <w2c_0x24coremark0x2Ewasm_0x5FExit+0x68>
      a0:	e2833002 	add	r3, r3, #2
      a4:	e79fc00c 	ldr	ip, [pc, ip]
      a8:	e782300c 	str	r3, [r2, ip]
      ac:	e30021f5 	movw	r2, #501	@ 0x1f5
      b0:	e1530002 	cmp	r3, r2
      b4:	0afffff6 	beq	94 <w2c_0x24coremark0x2Ewasm_0x5FExit+0x2c>
      b8:	e5900000 	ldr	r0, [r0]
      bc:	ebfffffe 	bl	0 <w2c_wasi__snapshot__preview1_proc_exit>
      c0:	e3a00005 	mov	r0, #5
      c4:	ebfffffe 	bl	0 <wasm_rt_trap>
      c8:	0000004c 	.word	0x0000004c
      cc:	00000038 	.word	0x00000038
      d0:	00000024 	.word	0x00000024

000000d4 <f64_store_default32.part.0>:
      d4:	e3a00001 	mov	r0, #1
      d8:	e92d4010 	push	{r4, lr}
      dc:	ebfffffe 	bl	0 <wasm_rt_trap>

000000e0 <w2c_0x24coremark0x2Ewasm_crcu16.isra.0>:
      e0:	e59f318c 	ldr	r3, [pc, #396]	@ 274 <w2c_0x24coremark0x2Ewasm_crcu16.isra.0+0x194>
      e4:	ee1dcf70 	mrc	15, 0, ip, cr13, cr0, {3}
      e8:	e92d4010 	push	{r4, lr}
      ec:	e79f3003 	ldr	r3, [pc, r3]
      f0:	e79ce003 	ldr	lr, [ip, r3]
      f4:	e59f317c 	ldr	r3, [pc, #380]	@ 278 <w2c_0x24coremark0x2Ewasm_crcu16.isra.0+0x198>
      f8:	e28e2001 	add	r2, lr, #1
      fc:	e3520f7d 	cmp	r2, #500	@ 0x1f4
     100:	e79f3003 	ldr	r3, [pc, r3]
     104:	e78c2003 	str	r2, [ip, r3]
     108:	8a000057 	bhi	26c <w2c_0x24coremark0x2Ewasm_crcu16.isra.0+0x18c>
     10c:	e0213000 	eor	r3, r1, r0
     110:	e1a04001 	mov	r4, r1
     114:	e30a1001 	movw	r1, #40961	@ 0xa001
     118:	e34f1fff 	movt	r1, #65535	@ 0xffff
     11c:	e7a03053 	sbfx	r3, r3, #0, #1
     120:	e0033001 	and	r3, r3, r1
     124:	e02330a4 	eor	r3, r3, r4, lsr #1
     128:	e02320a0 	eor	r2, r3, r0, lsr #1
     12c:	e7ee30d3 	ubfx	r3, r3, #1, #15
     130:	e7a02052 	sbfx	r2, r2, #0, #1
     134:	e0022001 	and	r2, r2, r1
     138:	e0222003 	eor	r2, r2, r3
     13c:	e0223120 	eor	r3, r2, r0, lsr #2
     140:	e7ee20d2 	ubfx	r2, r2, #1, #15
     144:	e7a03053 	sbfx	r3, r3, #0, #1
     148:	e0033001 	and	r3, r3, r1
     14c:	e0233002 	eor	r3, r3, r2
     150:	e02321a0 	eor	r2, r3, r0, lsr #3
     154:	e7ee30d3 	ubfx	r3, r3, #1, #15
     158:	e7a02052 	sbfx	r2, r2, #0, #1
     15c:	e0022001 	and	r2, r2, r1
     160:	e0222003 	eor	r2, r2, r3
     164:	e0223220 	eor	r3, r2, r0, lsr #4
     168:	e7ee20d2 	ubfx	r2, r2, #1, #15
     16c:	e7a03053 	sbfx	r3, r3, #0, #1
     170:	e0033001 	and	r3, r3, r1
     174:	e0233002 	eor	r3, r3, r2
     178:	e02322a0 	eor	r2, r3, r0, lsr #5
     17c:	e7ee30d3 	ubfx	r3, r3, #1, #15
     180:	e7a02052 	sbfx	r2, r2, #0, #1
     184:	e0022001 	and	r2, r2, r1
     188:	e0222003 	eor	r2, r2, r3
     18c:	e0223320 	eor	r3, r2, r0, lsr #6
     190:	e7ee20d2 	ubfx	r2, r2, #1, #15
     194:	e7a03053 	sbfx	r3, r3, #0, #1
     198:	e0033001 	and	r3, r3, r1
     19c:	e0233002 	eor	r3, r3, r2
     1a0:	e02323a0 	eor	r2, r3, r0, lsr #7
     1a4:	e3120001 	tst	r2, #1
     1a8:	e7ee30d3 	ubfx	r3, r3, #1, #15
     1ac:	10233001 	eorne	r3, r3, r1
     1b0:	e30a1001 	movw	r1, #40961	@ 0xa001
     1b4:	e34f1fff 	movt	r1, #65535	@ 0xffff
     1b8:	e0232420 	eor	r2, r3, r0, lsr #8
     1bc:	e7ee30d3 	ubfx	r3, r3, #1, #15
     1c0:	e7a02052 	sbfx	r2, r2, #0, #1
     1c4:	e0022001 	and	r2, r2, r1
     1c8:	e0233002 	eor	r3, r3, r2
     1cc:	e59f20a8 	ldr	r2, [pc, #168]	@ 27c <w2c_0x24coremark0x2Ewasm_crcu16.isra.0+0x19c>
     1d0:	e79f2002 	ldr	r2, [pc, r2]
     1d4:	e78ce002 	str	lr, [ip, r2]
     1d8:	e02324a0 	eor	r2, r3, r0, lsr #9
     1dc:	e7ee30d3 	ubfx	r3, r3, #1, #15
     1e0:	e7a02052 	sbfx	r2, r2, #0, #1
     1e4:	e0022001 	and	r2, r2, r1
     1e8:	e0222003 	eor	r2, r2, r3
     1ec:	e0223520 	eor	r3, r2, r0, lsr #10
     1f0:	e7ee20d2 	ubfx	r2, r2, #1, #15
     1f4:	e7a03053 	sbfx	r3, r3, #0, #1
     1f8:	e0033001 	and	r3, r3, r1
     1fc:	e0233002 	eor	r3, r3, r2
     200:	e02325a0 	eor	r2, r3, r0, lsr #11
     204:	e7ee30d3 	ubfx	r3, r3, #1, #15
     208:	e7a02052 	sbfx	r2, r2, #0, #1
     20c:	e0022001 	and	r2, r2, r1
     210:	e0222003 	eor	r2, r2, r3
     214:	e0223620 	eor	r3, r2, r0, lsr #12
     218:	e7ee20d2 	ubfx	r2, r2, #1, #15
     21c:	e7a03053 	sbfx	r3, r3, #0, #1
     220:	e0033001 	and	r3, r3, r1
     224:	e0233002 	eor	r3, r3, r2
     228:	e02326a0 	eor	r2, r3, r0, lsr #13
     22c:	e7ee30d3 	ubfx	r3, r3, #1, #15
     230:	e7a02052 	sbfx	r2, r2, #0, #1
     234:	e0022001 	and	r2, r2, r1
     238:	e0222003 	eor	r2, r2, r3
     23c:	e0223720 	eor	r3, r2, r0, lsr #14
     240:	e7ee20d2 	ubfx	r2, r2, #1, #15
     244:	e7a03053 	sbfx	r3, r3, #0, #1
     248:	e0033001 	and	r3, r3, r1
     24c:	e0233002 	eor	r3, r3, r2
     250:	e2032001 	and	r2, r3, #1
     254:	e7ee30d3 	ubfx	r3, r3, #1, #15
     258:	e15207a0 	cmp	r2, r0, lsr #15
     25c:	e2230a0a 	eor	r0, r3, #40960	@ 0xa000
     260:	e2200001 	eor	r0, r0, #1
     264:	01a00003 	moveq	r0, r3
     268:	e8bd8010 	pop	{r4, pc}
     26c:	e3a0000a 	mov	r0, #10
     270:	ebfffffe 	bl	0 <wasm_rt_trap>
     274:	00000180 	.word	0x00000180
     278:	00000170 	.word	0x00000170
     27c:	000000a4 	.word	0x000000a4

00000280 <w2c_0x24coremark0x2Ewasm_crcu32.isra.0>:
     280:	e59f3064 	ldr	r3, [pc, #100]	@ 2ec <w2c_0x24coremark0x2Ewasm_crcu32.isra.0+0x6c>
     284:	e92d4070 	push	{r4, r5, r6, lr}
     288:	ee1d4f70 	mrc	15, 0, r4, cr13, cr0, {3}
     28c:	e59f205c 	ldr	r2, [pc, #92]	@ 2f0 <w2c_0x24coremark0x2Ewasm_crcu32.isra.0+0x70>
     290:	e79f3003 	ldr	r3, [pc, r3]
     294:	e79f2002 	ldr	r2, [pc, r2]
     298:	e7943003 	ldr	r3, [r4, r3]
     29c:	e2833001 	add	r3, r3, #1
     2a0:	e7843002 	str	r3, [r4, r2]
     2a4:	e3530f7d 	cmp	r3, #500	@ 0x1f4
     2a8:	8a00000d 	bhi	2e4 <w2c_0x24coremark0x2Ewasm_crcu32.isra.0+0x64>
     2ac:	e1a05820 	lsr	r5, r0, #16
     2b0:	e6ff0070 	uxth	r0, r0
     2b4:	ebffff89 	bl	e0 <w2c_0x24coremark0x2Ewasm_crcu16.isra.0>
     2b8:	e1a01000 	mov	r1, r0
     2bc:	e1a00005 	mov	r0, r5
     2c0:	ebffff86 	bl	e0 <w2c_0x24coremark0x2Ewasm_crcu16.isra.0>
     2c4:	e59f2028 	ldr	r2, [pc, #40]	@ 2f4 <w2c_0x24coremark0x2Ewasm_crcu32.isra.0+0x74>
     2c8:	e59f3028 	ldr	r3, [pc, #40]	@ 2f8 <w2c_0x24coremark0x2Ewasm_crcu32.isra.0+0x78>
     2cc:	e79f2002 	ldr	r2, [pc, r2]
     2d0:	e79f3003 	ldr	r3, [pc, r3]
     2d4:	e7942002 	ldr	r2, [r4, r2]
     2d8:	e2422001 	sub	r2, r2, #1
     2dc:	e7842003 	str	r2, [r4, r3]
     2e0:	e8bd8070 	pop	{r4, r5, r6, pc}
     2e4:	e3a0000a 	mov	r0, #10
     2e8:	ebfffffe 	bl	0 <wasm_rt_trap>
     2ec:	00000054 	.word	0x00000054
     2f0:	00000054 	.word	0x00000054
     2f4:	00000020 	.word	0x00000020
     2f8:	00000020 	.word	0x00000020

000002fc <w2c_0x24coremark0x2Ewasm_crc16.isra.0>:
     2fc:	e59f3054 	ldr	r3, [pc, #84]	@ 358 <w2c_0x24coremark0x2Ewasm_crc16.isra.0+0x5c>
     300:	e92d4010 	push	{r4, lr}
     304:	ee1d4f70 	mrc	15, 0, r4, cr13, cr0, {3}
     308:	e59f204c 	ldr	r2, [pc, #76]	@ 35c <w2c_0x24coremark0x2Ewasm_crc16.isra.0+0x60>
     30c:	e79f3003 	ldr	r3, [pc, r3]
     310:	e79f2002 	ldr	r2, [pc, r2]
     314:	e7943003 	ldr	r3, [r4, r3]
     318:	e2833001 	add	r3, r3, #1
     31c:	e7843002 	str	r3, [r4, r2]
     320:	e3530f7d 	cmp	r3, #500	@ 0x1f4
     324:	8a000009 	bhi	350 <w2c_0x24coremark0x2Ewasm_crc16.isra.0+0x54>
     328:	e6ff0070 	uxth	r0, r0
     32c:	ebffff6b 	bl	e0 <w2c_0x24coremark0x2Ewasm_crcu16.isra.0>
     330:	e59f2028 	ldr	r2, [pc, #40]	@ 360 <w2c_0x24coremark0x2Ewasm_crc16.isra.0+0x64>
     334:	e59f3028 	ldr	r3, [pc, #40]	@ 364 <w2c_0x24coremark0x2Ewasm_crc16.isra.0+0x68>
     338:	e79f2002 	ldr	r2, [pc, r2]
     33c:	e79f3003 	ldr	r3, [pc, r3]
     340:	e7942002 	ldr	r2, [r4, r2]
     344:	e2422001 	sub	r2, r2, #1
     348:	e7842003 	str	r2, [r4, r3]
     34c:	e8bd8010 	pop	{r4, pc}
     350:	e3a0000a 	mov	r0, #10
     354:	ebfffffe 	bl	0 <wasm_rt_trap>
     358:	00000044 	.word	0x00000044
     35c:	00000044 	.word	0x00000044
     360:	00000020 	.word	0x00000020
     364:	00000020 	.word	0x00000020

00000368 <w2c_0x24coremark0x2Ewasm_get_time>:
     368:	e59f206c 	ldr	r2, [pc, #108]	@ 3dc <w2c_0x24coremark0x2Ewasm_get_time+0x74>
     36c:	ee1d1f70 	mrc	15, 0, r1, cr13, cr0, {3}
     370:	e92d4010 	push	{r4, lr}
     374:	e59f3064 	ldr	r3, [pc, #100]	@ 3e0 <w2c_0x24coremark0x2Ewasm_get_time+0x78>
     378:	e79f2002 	ldr	r2, [pc, r2]
     37c:	e79f3003 	ldr	r3, [pc, r3]
     380:	e791c002 	ldr	ip, [r1, r2]
     384:	e28c2001 	add	r2, ip, #1
     388:	e7812003 	str	r2, [r1, r3]
     38c:	e3520f7d 	cmp	r2, #500	@ 0x1f4
     390:	8a00000f 	bhi	3d4 <w2c_0x24coremark0x2Ewasm_get_time+0x6c>
     394:	e590e030 	ldr	lr, [r0, #48]	@ 0x30
     398:	e30029ac 	movw	r2, #2476	@ 0x9ac
     39c:	e5903034 	ldr	r3, [r0, #52]	@ 0x34
     3a0:	e15e0002 	cmp	lr, r2
     3a4:	e2d33000 	sbcs	r3, r3, #0
     3a8:	3a000007 	bcc	3cc <w2c_0x24coremark0x2Ewasm_get_time+0x64>
     3ac:	e5903010 	ldr	r3, [r0, #16]
     3b0:	e59309a8 	ldr	r0, [r3, #2472]	@ 0x9a8
     3b4:	e59329a4 	ldr	r2, [r3, #2468]	@ 0x9a4
     3b8:	e59f3024 	ldr	r3, [pc, #36]	@ 3e4 <w2c_0x24coremark0x2Ewasm_get_time+0x7c>
     3bc:	e0400002 	sub	r0, r0, r2
     3c0:	e79f3003 	ldr	r3, [pc, r3]
     3c4:	e781c003 	str	ip, [r1, r3]
     3c8:	e8bd8010 	pop	{r4, pc}
     3cc:	e3a00001 	mov	r0, #1
     3d0:	ebfffffe 	bl	0 <wasm_rt_trap>
     3d4:	e3a0000a 	mov	r0, #10
     3d8:	ebfffffe 	bl	0 <wasm_rt_trap>
     3dc:	0000005c 	.word	0x0000005c
     3e0:	0000005c 	.word	0x0000005c
     3e4:	0000001c 	.word	0x0000001c

000003e8 <w2c_0x24coremark0x2Ewasm_get_seed_32>:
     3e8:	e59f3094 	ldr	r3, [pc, #148]	@ 484 <w2c_0x24coremark0x2Ewasm_get_seed_32+0x9c>
     3ec:	ee1d2f70 	mrc	15, 0, r2, cr13, cr0, {3}
     3f0:	e92d4070 	push	{r4, r5, r6, lr}
     3f4:	e79f3003 	ldr	r3, [pc, r3]
     3f8:	e792e003 	ldr	lr, [r2, r3]
     3fc:	e59f3084 	ldr	r3, [pc, #132]	@ 488 <w2c_0x24coremark0x2Ewasm_get_seed_32+0xa0>
     400:	e28ec001 	add	ip, lr, #1
     404:	e35c0f7d 	cmp	ip, #500	@ 0x1f4
     408:	e79f3003 	ldr	r3, [pc, r3]
     40c:	e782c003 	str	ip, [r2, r3]
     410:	8a000019 	bhi	47c <w2c_0x24coremark0x2Ewasm_get_seed_32+0x94>
     414:	e2411001 	sub	r1, r1, #1
     418:	e5904030 	ldr	r4, [r0, #48]	@ 0x30
     41c:	e590c034 	ldr	ip, [r0, #52]	@ 0x34
     420:	e1a01101 	lsl	r1, r1, #2
     424:	e2813e97 	add	r3, r1, #2416	@ 0x970
     428:	e2833004 	add	r3, r3, #4
     42c:	e1540003 	cmp	r4, r3
     430:	e2dc3000 	sbcs	r3, ip, #0
     434:	3a00000e 	bcc	474 <w2c_0x24coremark0x2Ewasm_get_seed_32+0x8c>
     438:	e5900010 	ldr	r0, [r0, #16]
     43c:	e0801001 	add	r1, r0, r1
     440:	e5913970 	ldr	r3, [r1, #2416]	@ 0x970
     444:	e2931004 	adds	r1, r3, #4
     448:	e1a05001 	mov	r5, r1
     44c:	23a01001 	movcs	r1, #1
     450:	33a01000 	movcc	r1, #0
     454:	e1540005 	cmp	r4, r5
     458:	e0dcc001 	sbcs	ip, ip, r1
     45c:	3a000004 	bcc	474 <w2c_0x24coremark0x2Ewasm_get_seed_32+0x8c>
     460:	e7900003 	ldr	r0, [r0, r3]
     464:	e59f3020 	ldr	r3, [pc, #32]	@ 48c <w2c_0x24coremark0x2Ewasm_get_seed_32+0xa4>
     468:	e79f3003 	ldr	r3, [pc, r3]
     46c:	e782e003 	str	lr, [r2, r3]
     470:	e8bd8070 	pop	{r4, r5, r6, pc}
     474:	e3a00001 	mov	r0, #1
     478:	ebfffffe 	bl	0 <wasm_rt_trap>
     47c:	e3a0000a 	mov	r0, #10
     480:	ebfffffe 	bl	0 <wasm_rt_trap>
     484:	00000088 	.word	0x00000088
     488:	00000078 	.word	0x00000078
     48c:	0000001c 	.word	0x0000001c

00000490 <w2c_0x24coremark0x2Ewasm_start_time>:
     490:	e59f2098 	ldr	r2, [pc, #152]	@ 530 <w2c_0x24coremark0x2Ewasm_start_time+0xa0>
     494:	ee1d1f70 	mrc	15, 0, r1, cr13, cr0, {3}
     498:	e92d4070 	push	{r4, r5, r6, lr}
     49c:	e59f3090 	ldr	r3, [pc, #144]	@ 534 <w2c_0x24coremark0x2Ewasm_start_time+0xa4>
     4a0:	e79f2002 	ldr	r2, [pc, r2]
     4a4:	e79f3003 	ldr	r3, [pc, r3]
     4a8:	e7914002 	ldr	r4, [r1, r2]
     4ac:	e2842001 	add	r2, r4, #1
     4b0:	e7812003 	str	r2, [r1, r3]
     4b4:	e3520f7d 	cmp	r2, #500	@ 0x1f4
     4b8:	8a00001a 	bhi	528 <w2c_0x24coremark0x2Ewasm_start_time+0x98>
     4bc:	e590c030 	ldr	ip, [r0, #48]	@ 0x30
     4c0:	e300e9a4 	movw	lr, #2468	@ 0x9a4
     4c4:	e5902034 	ldr	r2, [r0, #52]	@ 0x34
     4c8:	e15c000e 	cmp	ip, lr
     4cc:	e2d23000 	sbcs	r3, r2, #0
     4d0:	3a000012 	bcc	520 <w2c_0x24coremark0x2Ewasm_start_time+0x90>
     4d4:	e5905010 	ldr	r5, [r0, #16]
     4d8:	e59539a0 	ldr	r3, [r5, #2464]	@ 0x9a0
     4dc:	e30069a8 	movw	r6, #2472	@ 0x9a8
     4e0:	e15c0006 	cmp	ip, r6
     4e4:	e2d22000 	sbcs	r2, r2, #0
     4e8:	3a00000c 	bcc	520 <w2c_0x24coremark0x2Ewasm_start_time+0x90>
     4ec:	e58539a4 	str	r3, [r5, #2468]	@ 0x9a4
     4f0:	e5902030 	ldr	r2, [r0, #48]	@ 0x30
     4f4:	e152000e 	cmp	r2, lr
     4f8:	e5902034 	ldr	r2, [r0, #52]	@ 0x34
     4fc:	e2d22000 	sbcs	r2, r2, #0
     500:	3a000006 	bcc	520 <w2c_0x24coremark0x2Ewasm_start_time+0x90>
     504:	e5900010 	ldr	r0, [r0, #16]
     508:	e2833001 	add	r3, r3, #1
     50c:	e59f2024 	ldr	r2, [pc, #36]	@ 538 <w2c_0x24coremark0x2Ewasm_start_time+0xa8>
     510:	e58039a0 	str	r3, [r0, #2464]	@ 0x9a0
     514:	e79f2002 	ldr	r2, [pc, r2]
     518:	e7814002 	str	r4, [r1, r2]
     51c:	e8bd8070 	pop	{r4, r5, r6, pc}
     520:	e3a00001 	mov	r0, #1
     524:	ebfffffe 	bl	0 <wasm_rt_trap>
     528:	e3a0000a 	mov	r0, #10
     52c:	ebfffffe 	bl	0 <wasm_rt_trap>
     530:	00000088 	.word	0x00000088
     534:	00000088 	.word	0x00000088
     538:	0000001c 	.word	0x0000001c

0000053c <w2c_0x24coremark0x2Ewasm_stop_time>:
     53c:	e59f2098 	ldr	r2, [pc, #152]	@ 5dc <w2c_0x24coremark0x2Ewasm_stop_time+0xa0>
     540:	ee1d1f70 	mrc	15, 0, r1, cr13, cr0, {3}
     544:	e92d4070 	push	{r4, r5, r6, lr}
     548:	e59f3090 	ldr	r3, [pc, #144]	@ 5e0 <w2c_0x24coremark0x2Ewasm_stop_time+0xa4>
     54c:	e79f2002 	ldr	r2, [pc, r2]
     550:	e79f3003 	ldr	r3, [pc, r3]
     554:	e7914002 	ldr	r4, [r1, r2]
     558:	e2842001 	add	r2, r4, #1
     55c:	e7812003 	str	r2, [r1, r3]
     560:	e3520f7d 	cmp	r2, #500	@ 0x1f4
     564:	8a00001a 	bhi	5d4 <w2c_0x24coremark0x2Ewasm_stop_time+0x98>
     568:	e590c030 	ldr	ip, [r0, #48]	@ 0x30
     56c:	e300e9a4 	movw	lr, #2468	@ 0x9a4
     570:	e5902034 	ldr	r2, [r0, #52]	@ 0x34
     574:	e15c000e 	cmp	ip, lr
     578:	e2d23000 	sbcs	r3, r2, #0
     57c:	3a000012 	bcc	5cc <w2c_0x24coremark0x2Ewasm_stop_time+0x90>
     580:	e5905010 	ldr	r5, [r0, #16]
     584:	e59539a0 	ldr	r3, [r5, #2464]	@ 0x9a0
     588:	e30069ac 	movw	r6, #2476	@ 0x9ac
     58c:	e15c0006 	cmp	ip, r6
     590:	e2d22000 	sbcs	r2, r2, #0
     594:	3a00000c 	bcc	5cc <w2c_0x24coremark0x2Ewasm_stop_time+0x90>
     598:	e58539a8 	str	r3, [r5, #2472]	@ 0x9a8
     59c:	e5902030 	ldr	r2, [r0, #48]	@ 0x30
     5a0:	e152000e 	cmp	r2, lr
     5a4:	e5902034 	ldr	r2, [r0, #52]	@ 0x34
     5a8:	e2d22000 	sbcs	r2, r2, #0
     5ac:	3a000006 	bcc	5cc <w2c_0x24coremark0x2Ewasm_stop_time+0x90>
     5b0:	e5900010 	ldr	r0, [r0, #16]
     5b4:	e2833001 	add	r3, r3, #1
     5b8:	e59f2024 	ldr	r2, [pc, #36]	@ 5e4 <w2c_0x24coremark0x2Ewasm_stop_time+0xa8>
     5bc:	e58039a0 	str	r3, [r0, #2464]	@ 0x9a0
     5c0:	e79f2002 	ldr	r2, [pc, r2]
     5c4:	e7814002 	str	r4, [r1, r2]
     5c8:	e8bd8070 	pop	{r4, r5, r6, pc}
     5cc:	e3a00001 	mov	r0, #1
     5d0:	ebfffffe 	bl	0 <wasm_rt_trap>
     5d4:	e3a0000a 	mov	r0, #10
     5d8:	ebfffffe 	bl	0 <wasm_rt_trap>
     5dc:	00000088 	.word	0x00000088
     5e0:	00000088 	.word	0x00000088
     5e4:	0000001c 	.word	0x0000001c

000005e8 <w2c_0x24coremark0x2Ewasm_sbrk>:
     5e8:	e59f30e8 	ldr	r3, [pc, #232]	@ 6d8 <w2c_0x24coremark0x2Ewasm_sbrk+0xf0>
     5ec:	e92d4070 	push	{r4, r5, r6, lr}
     5f0:	ee1d4f70 	mrc	15, 0, r4, cr13, cr0, {3}
     5f4:	e1a05000 	mov	r5, r0
     5f8:	e79f3003 	ldr	r3, [pc, r3]
     5fc:	e794c003 	ldr	ip, [r4, r3]
     600:	e59f30d4 	ldr	r3, [pc, #212]	@ 6dc <w2c_0x24coremark0x2Ewasm_sbrk+0xf4>
     604:	e28c0001 	add	r0, ip, #1
     608:	e3500f7d 	cmp	r0, #500	@ 0x1f4
     60c:	e79f3003 	ldr	r3, [pc, r3]
     610:	e7840003 	str	r0, [r4, r3]
     614:	8a000024 	bhi	6ac <w2c_0x24coremark0x2Ewasm_sbrk+0xc4>
     618:	e3510000 	cmp	r1, #0
     61c:	0a00000e 	beq	65c <w2c_0x24coremark0x2Ewasm_sbrk+0x74>
     620:	e3c1347f 	bic	r3, r1, #2130706432	@ 0x7f000000
     624:	e3c338ff 	bic	r3, r3, #16711680	@ 0xff0000
     628:	e3530000 	cmp	r3, #0
     62c:	1a000020 	bne	6b4 <w2c_0x24coremark0x2Ewasm_sbrk+0xcc>
     630:	e1a02821 	lsr	r2, r1, #16
     634:	e2850010 	add	r0, r5, #16
     638:	ebfffffe 	bl	0 <wasm_rt_grow_memory>
     63c:	e3700001 	cmn	r0, #1
     640:	0a00000b 	beq	674 <w2c_0x24coremark0x2Ewasm_sbrk+0x8c>
     644:	e59f3094 	ldr	r3, [pc, #148]	@ 6e0 <w2c_0x24coremark0x2Ewasm_sbrk+0xf8>
     648:	e1a00800 	lsl	r0, r0, #16
     64c:	e79f3003 	ldr	r3, [pc, r3]
     650:	e794c003 	ldr	ip, [r4, r3]
     654:	e24cc001 	sub	ip, ip, #1
     658:	ea000001 	b	664 <w2c_0x24coremark0x2Ewasm_sbrk+0x7c>
     65c:	e5950020 	ldr	r0, [r5, #32]
     660:	e1a00800 	lsl	r0, r0, #16
     664:	e59f3078 	ldr	r3, [pc, #120]	@ 6e4 <w2c_0x24coremark0x2Ewasm_sbrk+0xfc>
     668:	e79f3003 	ldr	r3, [pc, r3]
     66c:	e784c003 	str	ip, [r4, r3]
     670:	e8bd8070 	pop	{r4, r5, r6, pc}
     674:	e1c523d0 	ldrd	r2, [r5, #48]	@ 0x30
     678:	e3520e9b 	cmp	r2, #2480	@ 0x9b0
     67c:	e2d33000 	sbcs	r3, r3, #0
     680:	3a000007 	bcc	6a4 <w2c_0x24coremark0x2Ewasm_sbrk+0xbc>
     684:	e5952010 	ldr	r2, [r5, #16]
     688:	e3a01030 	mov	r1, #48	@ 0x30
     68c:	e59f3054 	ldr	r3, [pc, #84]	@ 6e8 <w2c_0x24coremark0x2Ewasm_sbrk+0x100>
     690:	e58219ac 	str	r1, [r2, #2476]	@ 0x9ac
     694:	e79f3003 	ldr	r3, [pc, r3]
     698:	e794c003 	ldr	ip, [r4, r3]
     69c:	e24cc001 	sub	ip, ip, #1
     6a0:	eaffffef 	b	664 <w2c_0x24coremark0x2Ewasm_sbrk+0x7c>
     6a4:	e3a00001 	mov	r0, #1
     6a8:	ebfffffe 	bl	0 <wasm_rt_trap>
     6ac:	e3a0000a 	mov	r0, #10
     6b0:	ebfffffe 	bl	0 <wasm_rt_trap>
     6b4:	e59f3030 	ldr	r3, [pc, #48]	@ 6ec <w2c_0x24coremark0x2Ewasm_sbrk+0x104>
     6b8:	e28cc002 	add	ip, ip, #2
     6bc:	e30021f5 	movw	r2, #501	@ 0x1f5
     6c0:	e15c0002 	cmp	ip, r2
     6c4:	e79f3003 	ldr	r3, [pc, r3]
     6c8:	e784c003 	str	ip, [r4, r3]
     6cc:	0afffff6 	beq	6ac <w2c_0x24coremark0x2Ewasm_sbrk+0xc4>
     6d0:	e3a00005 	mov	r0, #5
     6d4:	ebfffffe 	bl	0 <wasm_rt_trap>
     6d8:	000000d8 	.word	0x000000d8
     6dc:	000000c8 	.word	0x000000c8
     6e0:	0000008c 	.word	0x0000008c
     6e4:	00000074 	.word	0x00000074
     6e8:	0000004c 	.word	0x0000004c
     6ec:	00000020 	.word	0x00000020

000006f0 <w2c_0x24coremark0x2Ewasm_core_state_transition>:
     6f0:	e59f36a8 	ldr	r3, [pc, #1704]	@ da0 <w2c_0x24coremark0x2Ewasm_core_state_transition+0x6b0>
     6f4:	e92d4ff0 	push	{r4, r5, r6, r7, r8, r9, sl, fp, lr}
     6f8:	ee1d5f70 	mrc	15, 0, r5, cr13, cr0, {3}
     6fc:	e1a06002 	mov	r6, r2
     700:	e24dd00c 	sub	sp, sp, #12
     704:	e79f3003 	ldr	r3, [pc, r3]
     708:	e795e003 	ldr	lr, [r5, r3]
     70c:	e59f3690 	ldr	r3, [pc, #1680]	@ da4 <w2c_0x24coremark0x2Ewasm_core_state_transition+0x6b4>
     710:	e28e2001 	add	r2, lr, #1
     714:	e3520f7d 	cmp	r2, #500	@ 0x1f4
     718:	e79f3003 	ldr	r3, [pc, r3]
     71c:	e7852003 	str	r2, [r5, r3]
     720:	8a00019c 	bhi	d98 <w2c_0x24coremark0x2Ewasm_core_state_transition+0x6a8>
     724:	e5902030 	ldr	r2, [r0, #48]	@ 0x30
     728:	e2918004 	adds	r8, r1, #4
     72c:	e590c034 	ldr	ip, [r0, #52]	@ 0x34
     730:	e3a09000 	mov	r9, #0
     734:	e2a97000 	adc	r7, r9, #0
     738:	e1520008 	cmp	r2, r8
     73c:	e0dc3007 	sbcs	r3, ip, r7
     740:	3a000050 	bcc	888 <w2c_0x24coremark0x2Ewasm_core_state_transition+0x198>
     744:	e5904010 	ldr	r4, [r0, #16]
     748:	e7943001 	ldr	r3, [r4, r1]
     74c:	e293a001 	adds	sl, r3, #1
     750:	e2a9b000 	adc	fp, r9, #0
     754:	e152000a 	cmp	r2, sl
     758:	e0dcb00b 	sbcs	fp, ip, fp
     75c:	3a000049 	bcc	888 <w2c_0x24coremark0x2Ewasm_core_state_transition+0x198>
     760:	e7d43003 	ldrb	r3, [r4, r3]
     764:	e3530000 	cmp	r3, #0
     768:	1a000048 	bne	890 <w2c_0x24coremark0x2Ewasm_core_state_transition+0x1a0>
     76c:	e59f2634 	ldr	r2, [pc, #1588]	@ da8 <w2c_0x24coremark0x2Ewasm_core_state_transition+0x6b8>
     770:	e1a00003 	mov	r0, r3
     774:	e79f2002 	ldr	r2, [pc, r2]
     778:	e785e002 	str	lr, [r5, r2]
     77c:	e28dd00c 	add	sp, sp, #12
     780:	e8bd8ff0 	pop	{r4, r5, r6, r7, r8, r9, sl, fp, pc}
     784:	e29ba004 	adds	sl, fp, #4
     788:	e2a39000 	adc	r9, r3, #0
     78c:	e152000a 	cmp	r2, sl
     790:	e0dc2009 	sbcs	r2, ip, r9
     794:	3a00003b 	bcc	888 <w2c_0x24coremark0x2Ewasm_core_state_transition+0x198>
     798:	e794200b 	ldr	r2, [r4, fp]
     79c:	e2822001 	add	r2, r2, #1
     7a0:	e784200b 	str	r2, [r4, fp]
     7a4:	e29ea001 	adds	sl, lr, #1
     7a8:	e5902030 	ldr	r2, [r0, #48]	@ 0x30
     7ac:	e2a34000 	adc	r4, r3, #0
     7b0:	e590c034 	ldr	ip, [r0, #52]	@ 0x34
     7b4:	e152000a 	cmp	r2, sl
     7b8:	e0dc4004 	sbcs	r4, ip, r4
     7bc:	3a000031 	bcc	888 <w2c_0x24coremark0x2Ewasm_core_state_transition+0x198>
     7c0:	e5904010 	ldr	r4, [r0, #16]
     7c4:	e7d4900e 	ldrb	r9, [r4, lr]
     7c8:	e3590000 	cmp	r9, #0
     7cc:	0a00016f 	beq	d90 <w2c_0x24coremark0x2Ewasm_core_state_transition+0x6a0>
     7d0:	e359002c 	cmp	r9, #44	@ 0x2c
     7d4:	0a00016a 	beq	d84 <w2c_0x24coremark0x2Ewasm_core_state_transition+0x694>
     7d8:	e249903a 	sub	r9, r9, #58	@ 0x3a
     7dc:	e286b018 	add	fp, r6, #24
     7e0:	e6ef6079 	uxtb	r6, r9
     7e4:	e35600f5 	cmp	r6, #245	@ 0xf5
     7e8:	9a000152 	bls	d38 <w2c_0x24coremark0x2Ewasm_core_state_transition+0x648>
     7ec:	e29b9004 	adds	r9, fp, #4
     7f0:	e2a36000 	adc	r6, r3, #0
     7f4:	e1520009 	cmp	r2, r9
     7f8:	e0dc6006 	sbcs	r6, ip, r6
     7fc:	3a000021 	bcc	888 <w2c_0x24coremark0x2Ewasm_core_state_transition+0x198>
     800:	e794200b 	ldr	r2, [r4, fp]
     804:	e2822001 	add	r2, r2, #1
     808:	e784200b 	str	r2, [r4, fp]
     80c:	e29ac001 	adds	ip, sl, #1
     810:	e5902030 	ldr	r2, [r0, #48]	@ 0x30
     814:	e2a33000 	adc	r3, r3, #0
     818:	e152000c 	cmp	r2, ip
     81c:	e590c034 	ldr	ip, [r0, #52]	@ 0x34
     820:	e0dc3003 	sbcs	r3, ip, r3
     824:	3a000017 	bcc	888 <w2c_0x24coremark0x2Ewasm_core_state_transition+0x198>
     828:	e5904010 	ldr	r4, [r0, #16]
     82c:	e7d4300a 	ldrb	r3, [r4, sl]
     830:	e3530000 	cmp	r3, #0
     834:	0a00013c 	beq	d2c <w2c_0x24coremark0x2Ewasm_core_state_transition+0x63c>
     838:	e28ee002 	add	lr, lr, #2
     83c:	e353002c 	cmp	r3, #44	@ 0x2c
     840:	0a00013a 	beq	d30 <w2c_0x24coremark0x2Ewasm_core_state_transition+0x640>
     844:	e3a06000 	mov	r6, #0
     848:	ea000005 	b	864 <w2c_0x24coremark0x2Ewasm_core_state_transition+0x174>
     84c:	e7d4300e 	ldrb	r3, [r4, lr]
     850:	e3530000 	cmp	r3, #0
     854:	0a000135 	beq	d30 <w2c_0x24coremark0x2Ewasm_core_state_transition+0x640>
     858:	e1a0e009 	mov	lr, r9
     85c:	e353002c 	cmp	r3, #44	@ 0x2c
     860:	0a000132 	beq	d30 <w2c_0x24coremark0x2Ewasm_core_state_transition+0x640>
     864:	e243303a 	sub	r3, r3, #58	@ 0x3a
     868:	e6ef3073 	uxtb	r3, r3
     86c:	e35300f5 	cmp	r3, #245	@ 0xf5
     870:	9a000132 	bls	d40 <w2c_0x24coremark0x2Ewasm_core_state_transition+0x650>
     874:	e29e9001 	adds	r9, lr, #1
     878:	e2a63000 	adc	r3, r6, #0
     87c:	e1520009 	cmp	r2, r9
     880:	e0dc3003 	sbcs	r3, ip, r3
     884:	2afffff0 	bcs	84c <w2c_0x24coremark0x2Ewasm_core_state_transition+0x15c>
     888:	e3a00001 	mov	r0, #1
     88c:	ebfffffe 	bl	0 <wasm_rt_trap>
     890:	e286b010 	add	fp, r6, #16
     894:	e1a0e00a 	mov	lr, sl
     898:	e286a008 	add	sl, r6, #8
     89c:	e58da000 	str	sl, [sp]
     8a0:	e286a004 	add	sl, r6, #4
     8a4:	e58da004 	str	sl, [sp, #4]
     8a8:	e353002c 	cmp	r3, #44	@ 0x2c
     8ac:	0a0000ae 	beq	b6c <w2c_0x24coremark0x2Ewasm_core_state_transition+0x47c>
     8b0:	e59fa4f4 	ldr	sl, [pc, #1268]	@ dac <w2c_0x24coremark0x2Ewasm_core_state_transition+0x6bc>
     8b4:	e3590005 	cmp	r9, #5
     8b8:	8a000090 	bhi	b00 <w2c_0x24coremark0x2Ewasm_core_state_transition+0x410>
     8bc:	e7daa009 	ldrb	sl, [sl, r9]
     8c0:	e08ff10a 	add	pc, pc, sl, lsl #2
     8c4:	e320f000 	nop	{0}
     8c8:	e243302b 	sub	r3, r3, #43	@ 0x2b
     8cc:	e286b00c 	add	fp, r6, #12
     8d0:	e3d33002 	bics	r3, r3, #2
     8d4:	0affffaa 	beq	784 <w2c_0x24coremark0x2Ewasm_core_state_transition+0x94>
     8d8:	e29b6004 	adds	r6, fp, #4
     8dc:	23a03001 	movcs	r3, #1
     8e0:	33a03000 	movcc	r3, #0
     8e4:	e1520006 	cmp	r2, r6
     8e8:	e0dc3003 	sbcs	r3, ip, r3
     8ec:	3affffe5 	bcc	888 <w2c_0x24coremark0x2Ewasm_core_state_transition+0x198>
     8f0:	e794300b 	ldr	r3, [r4, fp]
     8f4:	e2833001 	add	r3, r3, #1
     8f8:	e784300b 	str	r3, [r4, fp]
     8fc:	e5903030 	ldr	r3, [r0, #48]	@ 0x30
     900:	e1530008 	cmp	r3, r8
     904:	e5903034 	ldr	r3, [r0, #52]	@ 0x34
     908:	e0d33007 	sbcs	r3, r3, r7
     90c:	3affffdd 	bcc	888 <w2c_0x24coremark0x2Ewasm_core_state_transition+0x198>
     910:	e5903010 	ldr	r3, [r0, #16]
     914:	e59f2494 	ldr	r2, [pc, #1172]	@ db0 <w2c_0x24coremark0x2Ewasm_core_state_transition+0x6c0>
     918:	e783e001 	str	lr, [r3, r1]
     91c:	e3a03001 	mov	r3, #1
     920:	e79f2002 	ldr	r2, [pc, r2]
     924:	e795e002 	ldr	lr, [r5, r2]
     928:	e24ee001 	sub	lr, lr, #1
     92c:	eaffff8e 	b	76c <w2c_0x24coremark0x2Ewasm_core_state_transition+0x7c>
     930:	e243903a 	sub	r9, r3, #58	@ 0x3a
     934:	e6ef9079 	uxtb	r9, r9
     938:	e35900f5 	cmp	r9, #245	@ 0xf5
     93c:	8a0000d2 	bhi	c8c <w2c_0x24coremark0x2Ewasm_core_state_transition+0x59c>
     940:	e353002d 	cmp	r3, #45	@ 0x2d
     944:	e243902b 	sub	r9, r3, #43	@ 0x2b
     948:	0a00001f 	beq	9cc <w2c_0x24coremark0x2Ewasm_core_state_transition+0x2dc>
     94c:	e3590003 	cmp	r9, #3
     950:	0a00008f 	beq	b94 <w2c_0x24coremark0x2Ewasm_core_state_transition+0x4a4>
     954:	e3590000 	cmp	r9, #0
     958:	0a0000db 	beq	ccc <w2c_0x24coremark0x2Ewasm_core_state_transition+0x5dc>
     95c:	e59da004 	ldr	sl, [sp, #4]
     960:	e29a9004 	adds	r9, sl, #4
     964:	23a03001 	movcs	r3, #1
     968:	33a03000 	movcc	r3, #0
     96c:	e1520009 	cmp	r2, r9
     970:	e0dc3003 	sbcs	r3, ip, r3
     974:	3affffc3 	bcc	888 <w2c_0x24coremark0x2Ewasm_core_state_transition+0x198>
     978:	e794300a 	ldr	r3, [r4, sl]
     97c:	e2833001 	add	r3, r3, #1
     980:	e784300a 	str	r3, [r4, sl]
     984:	e3a09001 	mov	r9, #1
     988:	e1a0a00e 	mov	sl, lr
     98c:	e5902030 	ldr	r2, [r0, #48]	@ 0x30
     990:	e1a03006 	mov	r3, r6
     994:	e590c034 	ldr	ip, [r0, #52]	@ 0x34
     998:	e2934004 	adds	r4, r3, #4
     99c:	23a0e001 	movcs	lr, #1
     9a0:	33a0e000 	movcc	lr, #0
     9a4:	e1520004 	cmp	r2, r4
     9a8:	e0dce00e 	sbcs	lr, ip, lr
     9ac:	3affffb5 	bcc	888 <w2c_0x24coremark0x2Ewasm_core_state_transition+0x198>
     9b0:	e590c010 	ldr	ip, [r0, #16]
     9b4:	e79c2003 	ldr	r2, [ip, r3]
     9b8:	e2822001 	add	r2, r2, #1
     9bc:	e78c2003 	str	r2, [ip, r3]
     9c0:	e5902030 	ldr	r2, [r0, #48]	@ 0x30
     9c4:	e590c034 	ldr	ip, [r0, #52]	@ 0x34
     9c8:	ea00005a 	b	b38 <w2c_0x24coremark0x2Ewasm_core_state_transition+0x448>
     9cc:	e2963004 	adds	r3, r6, #4
     9d0:	23a0a001 	movcs	sl, #1
     9d4:	33a0a000 	movcc	sl, #0
     9d8:	e1520003 	cmp	r2, r3
     9dc:	e0dcc00a 	sbcs	ip, ip, sl
     9e0:	3affffa8 	bcc	888 <w2c_0x24coremark0x2Ewasm_core_state_transition+0x198>
     9e4:	e7942006 	ldr	r2, [r4, r6]
     9e8:	e2822001 	add	r2, r2, #1
     9ec:	e7842006 	str	r2, [r4, r6]
     9f0:	e29ea001 	adds	sl, lr, #1
     9f4:	e5902030 	ldr	r2, [r0, #48]	@ 0x30
     9f8:	23a03001 	movcs	r3, #1
     9fc:	e590c034 	ldr	ip, [r0, #52]	@ 0x34
     a00:	33a03000 	movcc	r3, #0
     a04:	e152000a 	cmp	r2, sl
     a08:	e0dc3003 	sbcs	r3, ip, r3
     a0c:	3affff9d 	bcc	888 <w2c_0x24coremark0x2Ewasm_core_state_transition+0x198>
     a10:	e5904010 	ldr	r4, [r0, #16]
     a14:	e7d4300e 	ldrb	r3, [r4, lr]
     a18:	e3530000 	cmp	r3, #0
     a1c:	0a000052 	beq	b6c <w2c_0x24coremark0x2Ewasm_core_state_transition+0x47c>
     a20:	e1a0e00a 	mov	lr, sl
     a24:	e353002c 	cmp	r3, #44	@ 0x2c
     a28:	0a00004f 	beq	b6c <w2c_0x24coremark0x2Ewasm_core_state_transition+0x47c>
     a2c:	e243903a 	sub	r9, r3, #58	@ 0x3a
     a30:	e6ef9079 	uxtb	r9, r9
     a34:	e35900f5 	cmp	r9, #245	@ 0xf5
     a38:	8a000077 	bhi	c1c <w2c_0x24coremark0x2Ewasm_core_state_transition+0x52c>
     a3c:	e353002e 	cmp	r3, #46	@ 0x2e
     a40:	1a0000c6 	bne	d60 <w2c_0x24coremark0x2Ewasm_core_state_transition+0x670>
     a44:	e59d3000 	ldr	r3, [sp]
     a48:	e293a004 	adds	sl, r3, #4
     a4c:	e3a03000 	mov	r3, #0
     a50:	e2a39000 	adc	r9, r3, #0
     a54:	e152000a 	cmp	r2, sl
     a58:	e0dc9009 	sbcs	r9, ip, r9
     a5c:	3affff89 	bcc	888 <w2c_0x24coremark0x2Ewasm_core_state_transition+0x198>
     a60:	e59dc000 	ldr	ip, [sp]
     a64:	e794200c 	ldr	r2, [r4, ip]
     a68:	e2822001 	add	r2, r2, #1
     a6c:	e784200c 	str	r2, [r4, ip]
     a70:	e5902030 	ldr	r2, [r0, #48]	@ 0x30
     a74:	e29e9001 	adds	r9, lr, #1
     a78:	e590c034 	ldr	ip, [r0, #52]	@ 0x34
     a7c:	e2a33000 	adc	r3, r3, #0
     a80:	e1520009 	cmp	r2, r9
     a84:	e0dc3003 	sbcs	r3, ip, r3
     a88:	3affff7e 	bcc	888 <w2c_0x24coremark0x2Ewasm_core_state_transition+0x198>
     a8c:	e5904010 	ldr	r4, [r0, #16]
     a90:	e7d4300e 	ldrb	r3, [r4, lr]
     a94:	e3530000 	cmp	r3, #0
     a98:	0a0000b2 	beq	d68 <w2c_0x24coremark0x2Ewasm_core_state_transition+0x678>
     a9c:	e353002c 	cmp	r3, #44	@ 0x2c
     aa0:	e1a0a009 	mov	sl, r9
     aa4:	0a0000b1 	beq	d70 <w2c_0x24coremark0x2Ewasm_core_state_transition+0x680>
     aa8:	e3a09000 	mov	r9, #0
     aac:	e203e0df 	and	lr, r3, #223	@ 0xdf
     ab0:	e35e0045 	cmp	lr, #69	@ 0x45
     ab4:	0a000081 	beq	cc0 <w2c_0x24coremark0x2Ewasm_core_state_transition+0x5d0>
     ab8:	e243303a 	sub	r3, r3, #58	@ 0x3a
     abc:	e6ef3073 	uxtb	r3, r3
     ac0:	e35300f5 	cmp	r3, #245	@ 0xf5
     ac4:	9a0000a2 	bls	d54 <w2c_0x24coremark0x2Ewasm_core_state_transition+0x664>
     ac8:	e29ae001 	adds	lr, sl, #1
     acc:	e2a93000 	adc	r3, r9, #0
     ad0:	e152000e 	cmp	r2, lr
     ad4:	e0dc3003 	sbcs	r3, ip, r3
     ad8:	3affff6a 	bcc	888 <w2c_0x24coremark0x2Ewasm_core_state_transition+0x198>
     adc:	e7d4300a 	ldrb	r3, [r4, sl]
     ae0:	e3530000 	cmp	r3, #0
     ae4:	0a000002 	beq	af4 <w2c_0x24coremark0x2Ewasm_core_state_transition+0x404>
     ae8:	e1a0a00e 	mov	sl, lr
     aec:	e353002c 	cmp	r3, #44	@ 0x2c
     af0:	1affffed 	bne	aac <w2c_0x24coremark0x2Ewasm_core_state_transition+0x3bc>
     af4:	e1a0e00a 	mov	lr, sl
     af8:	e3a03005 	mov	r3, #5
     afc:	ea00001b 	b	b70 <w2c_0x24coremark0x2Ewasm_core_state_transition+0x480>
     b00:	e29e3001 	adds	r3, lr, #1
     b04:	23a0a001 	movcs	sl, #1
     b08:	33a0a000 	movcc	sl, #0
     b0c:	e1520003 	cmp	r2, r3
     b10:	e0dca00a 	sbcs	sl, ip, sl
     b14:	3affff5b 	bcc	888 <w2c_0x24coremark0x2Ewasm_core_state_transition+0x198>
     b18:	e7d4a00e 	ldrb	sl, [r4, lr]
     b1c:	e35a0000 	cmp	sl, #0
     b20:	0a000011 	beq	b6c <w2c_0x24coremark0x2Ewasm_core_state_transition+0x47c>
     b24:	e3590001 	cmp	r9, #1
     b28:	0a00000f 	beq	b6c <w2c_0x24coremark0x2Ewasm_core_state_transition+0x47c>
     b2c:	e35a002c 	cmp	sl, #44	@ 0x2c
     b30:	e1a0a003 	mov	sl, r3
     b34:	0a000083 	beq	d48 <w2c_0x24coremark0x2Ewasm_core_state_transition+0x658>
     b38:	e29ae001 	adds	lr, sl, #1
     b3c:	23a03001 	movcs	r3, #1
     b40:	33a03000 	movcc	r3, #0
     b44:	e152000e 	cmp	r2, lr
     b48:	e0dc3003 	sbcs	r3, ip, r3
     b4c:	3affff4d 	bcc	888 <w2c_0x24coremark0x2Ewasm_core_state_transition+0x198>
     b50:	e5904010 	ldr	r4, [r0, #16]
     b54:	e7d4300a 	ldrb	r3, [r4, sl]
     b58:	e3530000 	cmp	r3, #0
     b5c:	0a000001 	beq	b68 <w2c_0x24coremark0x2Ewasm_core_state_transition+0x478>
     b60:	e3590001 	cmp	r9, #1
     b64:	1affff4f 	bne	8a8 <w2c_0x24coremark0x2Ewasm_core_state_transition+0x1b8>
     b68:	e1a0e00a 	mov	lr, sl
     b6c:	e1a03009 	mov	r3, r9
     b70:	e1520008 	cmp	r2, r8
     b74:	e0dc7007 	sbcs	r7, ip, r7
     b78:	3affff42 	bcc	888 <w2c_0x24coremark0x2Ewasm_core_state_transition+0x198>
     b7c:	e59f2230 	ldr	r2, [pc, #560]	@ db4 <w2c_0x24coremark0x2Ewasm_core_state_transition+0x6c4>
     b80:	e784e001 	str	lr, [r4, r1]
     b84:	e79f2002 	ldr	r2, [pc, r2]
     b88:	e795e002 	ldr	lr, [r5, r2]
     b8c:	e24ee001 	sub	lr, lr, #1
     b90:	eafffef5 	b	76c <w2c_0x24coremark0x2Ewasm_core_state_transition+0x7c>
     b94:	e296a004 	adds	sl, r6, #4
     b98:	e3a03000 	mov	r3, #0
     b9c:	e2a39000 	adc	r9, r3, #0
     ba0:	e152000a 	cmp	r2, sl
     ba4:	e0dc9009 	sbcs	r9, ip, r9
     ba8:	3affff36 	bcc	888 <w2c_0x24coremark0x2Ewasm_core_state_transition+0x198>
     bac:	e7942006 	ldr	r2, [r4, r6]
     bb0:	e2822001 	add	r2, r2, #1
     bb4:	e7842006 	str	r2, [r4, r6]
     bb8:	eaffffac 	b	a70 <w2c_0x24coremark0x2Ewasm_core_state_transition+0x380>
     bbc:	e1a0a00e 	mov	sl, lr
     bc0:	e3a09000 	mov	r9, #0
     bc4:	e353002e 	cmp	r3, #46	@ 0x2e
     bc8:	0a000039 	beq	cb4 <w2c_0x24coremark0x2Ewasm_core_state_transition+0x5c4>
     bcc:	e243303a 	sub	r3, r3, #58	@ 0x3a
     bd0:	e6ef3073 	uxtb	r3, r3
     bd4:	e35300f5 	cmp	r3, #245	@ 0xf5
     bd8:	9a000056 	bls	d38 <w2c_0x24coremark0x2Ewasm_core_state_transition+0x648>
     bdc:	e29ae001 	adds	lr, sl, #1
     be0:	e2a93000 	adc	r3, r9, #0
     be4:	e152000e 	cmp	r2, lr
     be8:	e0dc3003 	sbcs	r3, ip, r3
     bec:	3affff25 	bcc	888 <w2c_0x24coremark0x2Ewasm_core_state_transition+0x198>
     bf0:	e7d4300a 	ldrb	r3, [r4, sl]
     bf4:	e3530000 	cmp	r3, #0
     bf8:	0a000002 	beq	c08 <w2c_0x24coremark0x2Ewasm_core_state_transition+0x518>
     bfc:	e1a0a00e 	mov	sl, lr
     c00:	e353002c 	cmp	r3, #44	@ 0x2c
     c04:	1affffee 	bne	bc4 <w2c_0x24coremark0x2Ewasm_core_state_transition+0x4d4>
     c08:	e1a0e00a 	mov	lr, sl
     c0c:	e3a03004 	mov	r3, #4
     c10:	eaffffd6 	b	b70 <w2c_0x24coremark0x2Ewasm_core_state_transition+0x480>
     c14:	e1a0a00e 	mov	sl, lr
     c18:	eaffffa2 	b	aa8 <w2c_0x24coremark0x2Ewasm_core_state_transition+0x3b8>
     c1c:	e59d3000 	ldr	r3, [sp]
     c20:	e293a004 	adds	sl, r3, #4
     c24:	e3a03000 	mov	r3, #0
     c28:	e2a39000 	adc	r9, r3, #0
     c2c:	e152000a 	cmp	r2, sl
     c30:	e0dc9009 	sbcs	r9, ip, r9
     c34:	3affff13 	bcc	888 <w2c_0x24coremark0x2Ewasm_core_state_transition+0x198>
     c38:	e59dc000 	ldr	ip, [sp]
     c3c:	e794200c 	ldr	r2, [r4, ip]
     c40:	e2822001 	add	r2, r2, #1
     c44:	e784200c 	str	r2, [r4, ip]
     c48:	e5902030 	ldr	r2, [r0, #48]	@ 0x30
     c4c:	e29e9001 	adds	r9, lr, #1
     c50:	e590c034 	ldr	ip, [r0, #52]	@ 0x34
     c54:	e2a33000 	adc	r3, r3, #0
     c58:	e1520009 	cmp	r2, r9
     c5c:	e0dc3003 	sbcs	r3, ip, r3
     c60:	3affff08 	bcc	888 <w2c_0x24coremark0x2Ewasm_core_state_transition+0x198>
     c64:	e5904010 	ldr	r4, [r0, #16]
     c68:	e7d4300e 	ldrb	r3, [r4, lr]
     c6c:	e3530000 	cmp	r3, #0
     c70:	0a000041 	beq	d7c <w2c_0x24coremark0x2Ewasm_core_state_transition+0x68c>
     c74:	e353002c 	cmp	r3, #44	@ 0x2c
     c78:	e1a0a009 	mov	sl, r9
     c7c:	1affffcf 	bne	bc0 <w2c_0x24coremark0x2Ewasm_core_state_transition+0x4d0>
     c80:	e1a0e009 	mov	lr, r9
     c84:	e3a03004 	mov	r3, #4
     c88:	eaffffb8 	b	b70 <w2c_0x24coremark0x2Ewasm_core_state_transition+0x480>
     c8c:	e296a004 	adds	sl, r6, #4
     c90:	e3a03000 	mov	r3, #0
     c94:	e2a39000 	adc	r9, r3, #0
     c98:	e152000a 	cmp	r2, sl
     c9c:	e0dc9009 	sbcs	r9, ip, r9
     ca0:	3afffef8 	bcc	888 <w2c_0x24coremark0x2Ewasm_core_state_transition+0x198>
     ca4:	e7942006 	ldr	r2, [r4, r6]
     ca8:	e2822001 	add	r2, r2, #1
     cac:	e7842006 	str	r2, [r4, r6]
     cb0:	eaffffe4 	b	c48 <w2c_0x24coremark0x2Ewasm_core_state_transition+0x558>
     cb4:	e1a0300b 	mov	r3, fp
     cb8:	e3a09005 	mov	r9, #5
     cbc:	eaffff35 	b	998 <w2c_0x24coremark0x2Ewasm_core_state_transition+0x2a8>
     cc0:	e2863014 	add	r3, r6, #20
     cc4:	e3a09003 	mov	r9, #3
     cc8:	eaffff32 	b	998 <w2c_0x24coremark0x2Ewasm_core_state_transition+0x2a8>
     ccc:	e296a004 	adds	sl, r6, #4
     cd0:	e2a93000 	adc	r3, r9, #0
     cd4:	e152000a 	cmp	r2, sl
     cd8:	e0dc3003 	sbcs	r3, ip, r3
     cdc:	3afffee9 	bcc	888 <w2c_0x24coremark0x2Ewasm_core_state_transition+0x198>
     ce0:	e7943006 	ldr	r3, [r4, r6]
     ce4:	e2833001 	add	r3, r3, #1
     ce8:	e7843006 	str	r3, [r4, r6]
     cec:	e29ea001 	adds	sl, lr, #1
     cf0:	e5902030 	ldr	r2, [r0, #48]	@ 0x30
     cf4:	e2a99000 	adc	r9, r9, #0
     cf8:	e590c034 	ldr	ip, [r0, #52]	@ 0x34
     cfc:	e152000a 	cmp	r2, sl
     d00:	e0dc9009 	sbcs	r9, ip, r9
     d04:	3afffedf 	bcc	888 <w2c_0x24coremark0x2Ewasm_core_state_transition+0x198>
     d08:	e5904010 	ldr	r4, [r0, #16]
     d0c:	e7d4300e 	ldrb	r3, [r4, lr]
     d10:	e3530000 	cmp	r3, #0
     d14:	0a000002 	beq	d24 <w2c_0x24coremark0x2Ewasm_core_state_transition+0x634>
     d18:	e1a0e00a 	mov	lr, sl
     d1c:	e353002c 	cmp	r3, #44	@ 0x2c
     d20:	1affff41 	bne	a2c <w2c_0x24coremark0x2Ewasm_core_state_transition+0x33c>
     d24:	e3a03002 	mov	r3, #2
     d28:	eaffff90 	b	b70 <w2c_0x24coremark0x2Ewasm_core_state_transition+0x480>
     d2c:	e1a0e00a 	mov	lr, sl
     d30:	e3a03007 	mov	r3, #7
     d34:	eaffff8d 	b	b70 <w2c_0x24coremark0x2Ewasm_core_state_transition+0x480>
     d38:	e1a0e00a 	mov	lr, sl
     d3c:	eafffee5 	b	8d8 <w2c_0x24coremark0x2Ewasm_core_state_transition+0x1e8>
     d40:	e59db004 	ldr	fp, [sp, #4]
     d44:	eafffee3 	b	8d8 <w2c_0x24coremark0x2Ewasm_core_state_transition+0x1e8>
     d48:	e1a0e003 	mov	lr, r3
     d4c:	e1a03009 	mov	r3, r9
     d50:	eaffff86 	b	b70 <w2c_0x24coremark0x2Ewasm_core_state_transition+0x480>
     d54:	e1a0e00a 	mov	lr, sl
     d58:	e286b014 	add	fp, r6, #20
     d5c:	eafffedd 	b	8d8 <w2c_0x24coremark0x2Ewasm_core_state_transition+0x1e8>
     d60:	e59db000 	ldr	fp, [sp]
     d64:	eafffedb 	b	8d8 <w2c_0x24coremark0x2Ewasm_core_state_transition+0x1e8>
     d68:	e3a03005 	mov	r3, #5
     d6c:	eaffff7f 	b	b70 <w2c_0x24coremark0x2Ewasm_core_state_transition+0x480>
     d70:	e1a0e009 	mov	lr, r9
     d74:	e3a03005 	mov	r3, #5
     d78:	eaffff7c 	b	b70 <w2c_0x24coremark0x2Ewasm_core_state_transition+0x480>
     d7c:	e3a03004 	mov	r3, #4
     d80:	eaffff7a 	b	b70 <w2c_0x24coremark0x2Ewasm_core_state_transition+0x480>
     d84:	e1a0e00a 	mov	lr, sl
     d88:	e3a03006 	mov	r3, #6
     d8c:	eaffff77 	b	b70 <w2c_0x24coremark0x2Ewasm_core_state_transition+0x480>
     d90:	e3a03006 	mov	r3, #6
     d94:	eaffff75 	b	b70 <w2c_0x24coremark0x2Ewasm_core_state_transition+0x480>
     d98:	e3a0000a 	mov	r0, #10
     d9c:	ebfffffe 	bl	0 <wasm_rt_trap>
     da0:	00000694 	.word	0x00000694
     da4:	00000684 	.word	0x00000684
     da8:	0000062c 	.word	0x0000062c
     dac:	00000000 	.word	0x00000000
     db0:	00000488 	.word	0x00000488
     db4:	00000228 	.word	0x00000228

00000db8 <w2c_0x24coremark0x2Ewasm_memset.constprop.0.isra.0>:
     db8:	e59fc5d8 	ldr	ip, [pc, #1496]	@ 1398 <w2c_0x24coremark0x2Ewasm_memset.constprop.0.isra.0+0x5e0>
     dbc:	e92d41f0 	push	{r4, r5, r6, r7, r8, lr}
     dc0:	ee1d4f70 	mrc	15, 0, r4, cr13, cr0, {3}
     dc4:	e59fe5d0 	ldr	lr, [pc, #1488]	@ 139c <w2c_0x24coremark0x2Ewasm_memset.constprop.0.isra.0+0x5e4>
     dc8:	e79fc00c 	ldr	ip, [pc, ip]
     dcc:	e79fe00e 	ldr	lr, [pc, lr]
     dd0:	e794c00c 	ldr	ip, [r4, ip]
     dd4:	e28c5001 	add	r5, ip, #1
     dd8:	e784500e 	str	r5, [r4, lr]
     ddc:	e3550f7d 	cmp	r5, #500	@ 0x1f4
     de0:	8a00016a 	bhi	1390 <w2c_0x24coremark0x2Ewasm_memset.constprop.0.isra.0+0x5d8>
     de4:	e1a03001 	mov	r3, r1
     de8:	e3520020 	cmp	r2, #32
     dec:	e1a01002 	mov	r1, r2
     df0:	8a000135 	bhi	12cc <w2c_0x24coremark0x2Ewasm_memset.constprop.0.isra.0+0x514>
     df4:	e3520000 	cmp	r2, #0
     df8:	0a00012d 	beq	12b4 <w2c_0x24coremark0x2Ewasm_memset.constprop.0.isra.0+0x4fc>
     dfc:	e5906030 	ldr	r6, [r0, #48]	@ 0x30
     e00:	e2935001 	adds	r5, r3, #1
     e04:	e590c034 	ldr	ip, [r0, #52]	@ 0x34
     e08:	e3a02000 	mov	r2, #0
     e0c:	e2a2e000 	adc	lr, r2, #0
     e10:	e1560005 	cmp	r6, r5
     e14:	e0dcc00e 	sbcs	ip, ip, lr
     e18:	3a000129 	bcc	12c4 <w2c_0x24coremark0x2Ewasm_memset.constprop.0.isra.0+0x50c>
     e1c:	e590c010 	ldr	ip, [r0, #16]
     e20:	e081e003 	add	lr, r1, r3
     e24:	e7cc2003 	strb	r2, [ip, r3]
     e28:	e24ec001 	sub	ip, lr, #1
     e2c:	e29c5001 	adds	r5, ip, #1
     e30:	e5907030 	ldr	r7, [r0, #48]	@ 0x30
     e34:	e1a06005 	mov	r6, r5
     e38:	e2a25000 	adc	r5, r2, #0
     e3c:	e1570006 	cmp	r7, r6
     e40:	e5906034 	ldr	r6, [r0, #52]	@ 0x34
     e44:	e0d65005 	sbcs	r5, r6, r5
     e48:	3a00011d 	bcc	12c4 <w2c_0x24coremark0x2Ewasm_memset.constprop.0.isra.0+0x50c>
     e4c:	e5905010 	ldr	r5, [r0, #16]
     e50:	e3510002 	cmp	r1, #2
     e54:	e7c5200c 	strb	r2, [r5, ip]
     e58:	9a00012c 	bls	1310 <w2c_0x24coremark0x2Ewasm_memset.constprop.0.isra.0+0x558>
     e5c:	e5906030 	ldr	r6, [r0, #48]	@ 0x30
     e60:	e293c003 	adds	ip, r3, #3
     e64:	e2a25000 	adc	r5, r2, #0
     e68:	e156000c 	cmp	r6, ip
     e6c:	e590c034 	ldr	ip, [r0, #52]	@ 0x34
     e70:	e0dcc005 	sbcs	ip, ip, r5
     e74:	3a000112 	bcc	12c4 <w2c_0x24coremark0x2Ewasm_memset.constprop.0.isra.0+0x50c>
     e78:	e590c010 	ldr	ip, [r0, #16]
     e7c:	e08cc003 	add	ip, ip, r3
     e80:	e5cc2002 	strb	r2, [ip, #2]
     e84:	e293c002 	adds	ip, r3, #2
     e88:	e2a25000 	adc	r5, r2, #0
     e8c:	e5906030 	ldr	r6, [r0, #48]	@ 0x30
     e90:	e156000c 	cmp	r6, ip
     e94:	e590c034 	ldr	ip, [r0, #52]	@ 0x34
     e98:	e0dcc005 	sbcs	ip, ip, r5
     e9c:	3a000108 	bcc	12c4 <w2c_0x24coremark0x2Ewasm_memset.constprop.0.isra.0+0x50c>
     ea0:	e590c010 	ldr	ip, [r0, #16]
     ea4:	e08cc003 	add	ip, ip, r3
     ea8:	e5cc2001 	strb	r2, [ip, #1]
     eac:	e24ec003 	sub	ip, lr, #3
     eb0:	e29c5001 	adds	r5, ip, #1
     eb4:	e5907030 	ldr	r7, [r0, #48]	@ 0x30
     eb8:	e1a06005 	mov	r6, r5
     ebc:	e2a25000 	adc	r5, r2, #0
     ec0:	e1570006 	cmp	r7, r6
     ec4:	e5906034 	ldr	r6, [r0, #52]	@ 0x34
     ec8:	e0d65005 	sbcs	r5, r6, r5
     ecc:	3a0000fc 	bcc	12c4 <w2c_0x24coremark0x2Ewasm_memset.constprop.0.isra.0+0x50c>
     ed0:	e5905010 	ldr	r5, [r0, #16]
     ed4:	e7c5200c 	strb	r2, [r5, ip]
     ed8:	e24e5002 	sub	r5, lr, #2
     edc:	e295c001 	adds	ip, r5, #1
     ee0:	e5907030 	ldr	r7, [r0, #48]	@ 0x30
     ee4:	e1a0600c 	mov	r6, ip
     ee8:	e2a2c000 	adc	ip, r2, #0
     eec:	e1570006 	cmp	r7, r6
     ef0:	e5906034 	ldr	r6, [r0, #52]	@ 0x34
     ef4:	e0d6c00c 	sbcs	ip, r6, ip
     ef8:	3a0000f1 	bcc	12c4 <w2c_0x24coremark0x2Ewasm_memset.constprop.0.isra.0+0x50c>
     efc:	e5906010 	ldr	r6, [r0, #16]
     f00:	e3a0c000 	mov	ip, #0
     f04:	e3510006 	cmp	r1, #6
     f08:	e7c6c005 	strb	ip, [r6, r5]
     f0c:	9a000104 	bls	1324 <w2c_0x24coremark0x2Ewasm_memset.constprop.0.isra.0+0x56c>
     f10:	e5906030 	ldr	r6, [r0, #48]	@ 0x30
     f14:	e2935004 	adds	r5, r3, #4
     f18:	e2a22000 	adc	r2, r2, #0
     f1c:	e1560005 	cmp	r6, r5
     f20:	e5905034 	ldr	r5, [r0, #52]	@ 0x34
     f24:	e0d55002 	sbcs	r5, r5, r2
     f28:	3a0000e5 	bcc	12c4 <w2c_0x24coremark0x2Ewasm_memset.constprop.0.isra.0+0x50c>
     f2c:	e5902010 	ldr	r2, [r0, #16]
     f30:	e24ee004 	sub	lr, lr, #4
     f34:	e0822003 	add	r2, r2, r3
     f38:	e5c2c003 	strb	ip, [r2, #3]
     f3c:	e29e2001 	adds	r2, lr, #1
     f40:	e2ac5000 	adc	r5, ip, #0
     f44:	e5906030 	ldr	r6, [r0, #48]	@ 0x30
     f48:	e1560002 	cmp	r6, r2
     f4c:	e5902034 	ldr	r2, [r0, #52]	@ 0x34
     f50:	e0d22005 	sbcs	r2, r2, r5
     f54:	3a0000da 	bcc	12c4 <w2c_0x24coremark0x2Ewasm_memset.constprop.0.isra.0+0x50c>
     f58:	e5902010 	ldr	r2, [r0, #16]
     f5c:	e3510008 	cmp	r1, #8
     f60:	e7c2c00e 	strb	ip, [r2, lr]
     f64:	9a0000f3 	bls	1338 <w2c_0x24coremark0x2Ewasm_memset.constprop.0.isra.0+0x580>
     f68:	e2632000 	rsb	r2, r3, #0
     f6c:	e5906030 	ldr	r6, [r0, #48]	@ 0x30
     f70:	e2022003 	and	r2, r2, #3
     f74:	e0833002 	add	r3, r3, r2
     f78:	e293e004 	adds	lr, r3, #4
     f7c:	e2ac5000 	adc	r5, ip, #0
     f80:	e156000e 	cmp	r6, lr
     f84:	e590e034 	ldr	lr, [r0, #52]	@ 0x34
     f88:	e0dee005 	sbcs	lr, lr, r5
     f8c:	3a0000cc 	bcc	12c4 <w2c_0x24coremark0x2Ewasm_memset.constprop.0.isra.0+0x50c>
     f90:	e0411002 	sub	r1, r1, r2
     f94:	e5902010 	ldr	r2, [r0, #16]
     f98:	e3c11003 	bic	r1, r1, #3
     f9c:	e083e001 	add	lr, r3, r1
     fa0:	e782c003 	str	ip, [r2, r3]
     fa4:	e24e2004 	sub	r2, lr, #4
     fa8:	e2925004 	adds	r5, r2, #4
     fac:	e5907030 	ldr	r7, [r0, #48]	@ 0x30
     fb0:	e1a06005 	mov	r6, r5
     fb4:	e2ac5000 	adc	r5, ip, #0
     fb8:	e1570006 	cmp	r7, r6
     fbc:	e5906034 	ldr	r6, [r0, #52]	@ 0x34
     fc0:	e0d65005 	sbcs	r5, r6, r5
     fc4:	3a0000be 	bcc	12c4 <w2c_0x24coremark0x2Ewasm_memset.constprop.0.isra.0+0x50c>
     fc8:	e5905010 	ldr	r5, [r0, #16]
     fcc:	e3510008 	cmp	r1, #8
     fd0:	e785c002 	str	ip, [r5, r2]
     fd4:	9a0000dc 	bls	134c <w2c_0x24coremark0x2Ewasm_memset.constprop.0.isra.0+0x594>
     fd8:	e5906030 	ldr	r6, [r0, #48]	@ 0x30
     fdc:	e293200c 	adds	r2, r3, #12
     fe0:	e2ac5000 	adc	r5, ip, #0
     fe4:	e1560002 	cmp	r6, r2
     fe8:	e5902034 	ldr	r2, [r0, #52]	@ 0x34
     fec:	e0d22005 	sbcs	r2, r2, r5
     ff0:	3a0000b3 	bcc	12c4 <w2c_0x24coremark0x2Ewasm_memset.constprop.0.isra.0+0x50c>
     ff4:	e5902010 	ldr	r2, [r0, #16]
     ff8:	e0822003 	add	r2, r2, r3
     ffc:	e582c008 	str	ip, [r2, #8]
    1000:	e2932008 	adds	r2, r3, #8
    1004:	e2ac5000 	adc	r5, ip, #0
    1008:	e5906030 	ldr	r6, [r0, #48]	@ 0x30
    100c:	e1560002 	cmp	r6, r2
    1010:	e5902034 	ldr	r2, [r0, #52]	@ 0x34
    1014:	e0d22005 	sbcs	r2, r2, r5
    1018:	3a0000a9 	bcc	12c4 <w2c_0x24coremark0x2Ewasm_memset.constprop.0.isra.0+0x50c>
    101c:	e5902010 	ldr	r2, [r0, #16]
    1020:	e24e5008 	sub	r5, lr, #8
    1024:	e0822003 	add	r2, r2, r3
    1028:	e582c004 	str	ip, [r2, #4]
    102c:	e2952004 	adds	r2, r5, #4
    1030:	e1a06002 	mov	r6, r2
    1034:	e2ac2000 	adc	r2, ip, #0
    1038:	e5907030 	ldr	r7, [r0, #48]	@ 0x30
    103c:	e1570006 	cmp	r7, r6
    1040:	e5906034 	ldr	r6, [r0, #52]	@ 0x34
    1044:	e0d62002 	sbcs	r2, r6, r2
    1048:	3a00009d 	bcc	12c4 <w2c_0x24coremark0x2Ewasm_memset.constprop.0.isra.0+0x50c>
    104c:	e5906010 	ldr	r6, [r0, #16]
    1050:	e3a02000 	mov	r2, #0
    1054:	e7862005 	str	r2, [r6, r5]
    1058:	e24e500c 	sub	r5, lr, #12
    105c:	e2956004 	adds	r6, r5, #4
    1060:	e5908030 	ldr	r8, [r0, #48]	@ 0x30
    1064:	e2a27000 	adc	r7, r2, #0
    1068:	e1580006 	cmp	r8, r6
    106c:	e5906034 	ldr	r6, [r0, #52]	@ 0x34
    1070:	e0d66007 	sbcs	r6, r6, r7
    1074:	3a000092 	bcc	12c4 <w2c_0x24coremark0x2Ewasm_memset.constprop.0.isra.0+0x50c>
    1078:	e5906010 	ldr	r6, [r0, #16]
    107c:	e3510018 	cmp	r1, #24
    1080:	e7862005 	str	r2, [r6, r5]
    1084:	9a0000b5 	bls	1360 <w2c_0x24coremark0x2Ewasm_memset.constprop.0.isra.0+0x5a8>
    1088:	e5907030 	ldr	r7, [r0, #48]	@ 0x30
    108c:	e293501c 	adds	r5, r3, #28
    1090:	e2ac6000 	adc	r6, ip, #0
    1094:	e1570005 	cmp	r7, r5
    1098:	e5907034 	ldr	r7, [r0, #52]	@ 0x34
    109c:	e0d76006 	sbcs	r6, r7, r6
    10a0:	3a000087 	bcc	12c4 <w2c_0x24coremark0x2Ewasm_memset.constprop.0.isra.0+0x50c>
    10a4:	e5906010 	ldr	r6, [r0, #16]
    10a8:	e0866003 	add	r6, r6, r3
    10ac:	e5862018 	str	r2, [r6, #24]
    10b0:	e2936018 	adds	r6, r3, #24
    10b4:	e2ac7000 	adc	r7, ip, #0
    10b8:	e5908030 	ldr	r8, [r0, #48]	@ 0x30
    10bc:	e1580006 	cmp	r8, r6
    10c0:	e5906034 	ldr	r6, [r0, #52]	@ 0x34
    10c4:	e0d66007 	sbcs	r6, r6, r7
    10c8:	3a00007d 	bcc	12c4 <w2c_0x24coremark0x2Ewasm_memset.constprop.0.isra.0+0x50c>
    10cc:	e5906010 	ldr	r6, [r0, #16]
    10d0:	e0866003 	add	r6, r6, r3
    10d4:	e5862014 	str	r2, [r6, #20]
    10d8:	e2936014 	adds	r6, r3, #20
    10dc:	e2ac7000 	adc	r7, ip, #0
    10e0:	e5908030 	ldr	r8, [r0, #48]	@ 0x30
    10e4:	e1580006 	cmp	r8, r6
    10e8:	e5906034 	ldr	r6, [r0, #52]	@ 0x34
    10ec:	e0d66007 	sbcs	r6, r6, r7
    10f0:	3a000073 	bcc	12c4 <w2c_0x24coremark0x2Ewasm_memset.constprop.0.isra.0+0x50c>
    10f4:	e5906010 	ldr	r6, [r0, #16]
    10f8:	e0866003 	add	r6, r6, r3
    10fc:	e5862010 	str	r2, [r6, #16]
    1100:	e2936010 	adds	r6, r3, #16
    1104:	e2acc000 	adc	ip, ip, #0
    1108:	e5907030 	ldr	r7, [r0, #48]	@ 0x30
    110c:	e1570006 	cmp	r7, r6
    1110:	e5906034 	ldr	r6, [r0, #52]	@ 0x34
    1114:	e0d6c00c 	sbcs	ip, r6, ip
    1118:	3a000095 	bcc	1374 <w2c_0x24coremark0x2Ewasm_memset.constprop.0.isra.0+0x5bc>
    111c:	e590c010 	ldr	ip, [r0, #16]
    1120:	e08cc003 	add	ip, ip, r3
    1124:	e58c200c 	str	r2, [ip, #12]
    1128:	e24ec010 	sub	ip, lr, #16
    112c:	e29c6004 	adds	r6, ip, #4
    1130:	e5908030 	ldr	r8, [r0, #48]	@ 0x30
    1134:	e2a27000 	adc	r7, r2, #0
    1138:	e1580006 	cmp	r8, r6
    113c:	e5906034 	ldr	r6, [r0, #52]	@ 0x34
    1140:	e0d66007 	sbcs	r6, r6, r7
    1144:	3a00008a 	bcc	1374 <w2c_0x24coremark0x2Ewasm_memset.constprop.0.isra.0+0x5bc>
    1148:	e5906010 	ldr	r6, [r0, #16]
    114c:	e786200c 	str	r2, [r6, ip]
    1150:	e24ec014 	sub	ip, lr, #20
    1154:	e29c6004 	adds	r6, ip, #4
    1158:	e5908030 	ldr	r8, [r0, #48]	@ 0x30
    115c:	e2a27000 	adc	r7, r2, #0
    1160:	e1580006 	cmp	r8, r6
    1164:	e5906034 	ldr	r6, [r0, #52]	@ 0x34
    1168:	e0d66007 	sbcs	r6, r6, r7
    116c:	3a000080 	bcc	1374 <w2c_0x24coremark0x2Ewasm_memset.constprop.0.isra.0+0x5bc>
    1170:	e5906010 	ldr	r6, [r0, #16]
    1174:	e786200c 	str	r2, [r6, ip]
    1178:	e24ec018 	sub	ip, lr, #24
    117c:	e29c6004 	adds	r6, ip, #4
    1180:	e5908030 	ldr	r8, [r0, #48]	@ 0x30
    1184:	e2a27000 	adc	r7, r2, #0
    1188:	e1580006 	cmp	r8, r6
    118c:	e5906034 	ldr	r6, [r0, #52]	@ 0x34
    1190:	e0d66007 	sbcs	r6, r6, r7
    1194:	3a000076 	bcc	1374 <w2c_0x24coremark0x2Ewasm_memset.constprop.0.isra.0+0x5bc>
    1198:	e5906010 	ldr	r6, [r0, #16]
    119c:	e24ee01c 	sub	lr, lr, #28
    11a0:	e786200c 	str	r2, [r6, ip]
    11a4:	e29ec004 	adds	ip, lr, #4
    11a8:	e2a22000 	adc	r2, r2, #0
    11ac:	e5906030 	ldr	r6, [r0, #48]	@ 0x30
    11b0:	e156000c 	cmp	r6, ip
    11b4:	e590c034 	ldr	ip, [r0, #52]	@ 0x34
    11b8:	e0dcc002 	sbcs	ip, ip, r2
    11bc:	3a00006c 	bcc	1374 <w2c_0x24coremark0x2Ewasm_memset.constprop.0.isra.0+0x5bc>
    11c0:	e2032004 	and	r2, r3, #4
    11c4:	e590c010 	ldr	ip, [r0, #16]
    11c8:	e3822018 	orr	r2, r2, #24
    11cc:	e0411002 	sub	r1, r1, r2
    11d0:	e351001f 	cmp	r1, #31
    11d4:	e3a01000 	mov	r1, #0
    11d8:	81a02005 	movhi	r2, r5
    11dc:	82433004 	subhi	r3, r3, #4
    11e0:	e78c100e 	str	r1, [ip, lr]
    11e4:	9a000064 	bls	137c <w2c_0x24coremark0x2Ewasm_memset.constprop.0.isra.0+0x5c4>
    11e8:	e5906030 	ldr	r6, [r0, #48]	@ 0x30
    11ec:	e292e020 	adds	lr, r2, #32
    11f0:	e590c034 	ldr	ip, [r0, #52]	@ 0x34
    11f4:	e2a15000 	adc	r5, r1, #0
    11f8:	e156000e 	cmp	r6, lr
    11fc:	e0dcc005 	sbcs	ip, ip, r5
    1200:	3a00002f 	bcc	12c4 <w2c_0x24coremark0x2Ewasm_memset.constprop.0.isra.0+0x50c>
    1204:	e590c010 	ldr	ip, [r0, #16]
    1208:	e08cc002 	add	ip, ip, r2
    120c:	e58c1018 	str	r1, [ip, #24]
    1210:	e58c101c 	str	r1, [ip, #28]
    1214:	e292c018 	adds	ip, r2, #24
    1218:	e2a15000 	adc	r5, r1, #0
    121c:	e5906030 	ldr	r6, [r0, #48]	@ 0x30
    1220:	e156000c 	cmp	r6, ip
    1224:	e590c034 	ldr	ip, [r0, #52]	@ 0x34
    1228:	e0dcc005 	sbcs	ip, ip, r5
    122c:	3a000051 	bcc	1378 <w2c_0x24coremark0x2Ewasm_memset.constprop.0.isra.0+0x5c0>
    1230:	e590c010 	ldr	ip, [r0, #16]
    1234:	e08cc002 	add	ip, ip, r2
    1238:	e58c1010 	str	r1, [ip, #16]
    123c:	e58c1014 	str	r1, [ip, #20]
    1240:	e292c010 	adds	ip, r2, #16
    1244:	e2a15000 	adc	r5, r1, #0
    1248:	e5906030 	ldr	r6, [r0, #48]	@ 0x30
    124c:	e156000c 	cmp	r6, ip
    1250:	e590c034 	ldr	ip, [r0, #52]	@ 0x34
    1254:	e0dcc005 	sbcs	ip, ip, r5
    1258:	3a000046 	bcc	1378 <w2c_0x24coremark0x2Ewasm_memset.constprop.0.isra.0+0x5c0>
    125c:	e590c010 	ldr	ip, [r0, #16]
    1260:	e08cc002 	add	ip, ip, r2
    1264:	e58c1008 	str	r1, [ip, #8]
    1268:	e58c100c 	str	r1, [ip, #12]
    126c:	e292c008 	adds	ip, r2, #8
    1270:	e2a15000 	adc	r5, r1, #0
    1274:	e5906030 	ldr	r6, [r0, #48]	@ 0x30
    1278:	e156000c 	cmp	r6, ip
    127c:	e590c034 	ldr	ip, [r0, #52]	@ 0x34
    1280:	e0dcc005 	sbcs	ip, ip, r5
    1284:	3a00003b 	bcc	1378 <w2c_0x24coremark0x2Ewasm_memset.constprop.0.isra.0+0x5c0>
    1288:	e590c010 	ldr	ip, [r0, #16]
    128c:	e15e0003 	cmp	lr, r3
    1290:	e78c1002 	str	r1, [ip, r2]
    1294:	e08cc002 	add	ip, ip, r2
    1298:	e1a0200e 	mov	r2, lr
    129c:	e58c1004 	str	r1, [ip, #4]
    12a0:	1affffd0 	bne	11e8 <w2c_0x24coremark0x2Ewasm_memset.constprop.0.isra.0+0x430>
    12a4:	e59f30f4 	ldr	r3, [pc, #244]	@ 13a0 <w2c_0x24coremark0x2Ewasm_memset.constprop.0.isra.0+0x5e8>
    12a8:	e79f3003 	ldr	r3, [pc, r3]
    12ac:	e794c003 	ldr	ip, [r4, r3]
    12b0:	e24cc001 	sub	ip, ip, #1
    12b4:	e59f30e8 	ldr	r3, [pc, #232]	@ 13a4 <w2c_0x24coremark0x2Ewasm_memset.constprop.0.isra.0+0x5ec>
    12b8:	e79f3003 	ldr	r3, [pc, r3]
    12bc:	e784c003 	str	ip, [r4, r3]
    12c0:	e8bd81f0 	pop	{r4, r5, r6, r7, r8, pc}
    12c4:	e3a00001 	mov	r0, #1
    12c8:	ebfffffe 	bl	0 <wasm_rt_trap>
    12cc:	e5905030 	ldr	r5, [r0, #48]	@ 0x30
    12d0:	e0921003 	adds	r1, r2, r3
    12d4:	e590c034 	ldr	ip, [r0, #52]	@ 0x34
    12d8:	23a0e001 	movcs	lr, #1
    12dc:	33a0e000 	movcc	lr, #0
    12e0:	e1550001 	cmp	r5, r1
    12e4:	e0dcc00e 	sbcs	ip, ip, lr
    12e8:	3afffff5 	bcc	12c4 <w2c_0x24coremark0x2Ewasm_memset.constprop.0.isra.0+0x50c>
    12ec:	e5900010 	ldr	r0, [r0, #16]
    12f0:	e3a01000 	mov	r1, #0
    12f4:	e0800003 	add	r0, r0, r3
    12f8:	ebfffffe 	bl	0 <memset>
    12fc:	e59f30a4 	ldr	r3, [pc, #164]	@ 13a8 <w2c_0x24coremark0x2Ewasm_memset.constprop.0.isra.0+0x5f0>
    1300:	e79f3003 	ldr	r3, [pc, r3]
    1304:	e794c003 	ldr	ip, [r4, r3]
    1308:	e24cc001 	sub	ip, ip, #1
    130c:	eaffffe8 	b	12b4 <w2c_0x24coremark0x2Ewasm_memset.constprop.0.isra.0+0x4fc>
    1310:	e59f3094 	ldr	r3, [pc, #148]	@ 13ac <w2c_0x24coremark0x2Ewasm_memset.constprop.0.isra.0+0x5f4>
    1314:	e79f3003 	ldr	r3, [pc, r3]
    1318:	e794c003 	ldr	ip, [r4, r3]
    131c:	e24cc001 	sub	ip, ip, #1
    1320:	eaffffe3 	b	12b4 <w2c_0x24coremark0x2Ewasm_memset.constprop.0.isra.0+0x4fc>
    1324:	e59f3084 	ldr	r3, [pc, #132]	@ 13b0 <w2c_0x24coremark0x2Ewasm_memset.constprop.0.isra.0+0x5f8>
    1328:	e79f3003 	ldr	r3, [pc, r3]
    132c:	e794c003 	ldr	ip, [r4, r3]
    1330:	e24cc001 	sub	ip, ip, #1
    1334:	eaffffde 	b	12b4 <w2c_0x24coremark0x2Ewasm_memset.constprop.0.isra.0+0x4fc>
    1338:	e59f3074 	ldr	r3, [pc, #116]	@ 13b4 <w2c_0x24coremark0x2Ewasm_memset.constprop.0.isra.0+0x5fc>
    133c:	e79f3003 	ldr	r3, [pc, r3]
    1340:	e794c003 	ldr	ip, [r4, r3]
    1344:	e24cc001 	sub	ip, ip, #1
    1348:	eaffffd9 	b	12b4 <w2c_0x24coremark0x2Ewasm_memset.constprop.0.isra.0+0x4fc>
    134c:	e59f3064 	ldr	r3, [pc, #100]	@ 13b8 <w2c_0x24coremark0x2Ewasm_memset.constprop.0.isra.0+0x600>
    1350:	e79f3003 	ldr	r3, [pc, r3]
    1354:	e794c003 	ldr	ip, [r4, r3]
    1358:	e24cc001 	sub	ip, ip, #1
    135c:	eaffffd4 	b	12b4 <w2c_0x24coremark0x2Ewasm_memset.constprop.0.isra.0+0x4fc>
    1360:	e59f3054 	ldr	r3, [pc, #84]	@ 13bc <w2c_0x24coremark0x2Ewasm_memset.constprop.0.isra.0+0x604>
    1364:	e79f3003 	ldr	r3, [pc, r3]
    1368:	e794c003 	ldr	ip, [r4, r3]
    136c:	e24cc001 	sub	ip, ip, #1
    1370:	eaffffcf 	b	12b4 <w2c_0x24coremark0x2Ewasm_memset.constprop.0.isra.0+0x4fc>
    1374:	ebfffb56 	bl	d4 <f64_store_default32.part.0>
    1378:	ebfffb55 	bl	d4 <f64_store_default32.part.0>
    137c:	e59f303c 	ldr	r3, [pc, #60]	@ 13c0 <w2c_0x24coremark0x2Ewasm_memset.constprop.0.isra.0+0x608>
    1380:	e79f3003 	ldr	r3, [pc, r3]
    1384:	e794c003 	ldr	ip, [r4, r3]
    1388:	e24cc001 	sub	ip, ip, #1
    138c:	eaffffc8 	b	12b4 <w2c_0x24coremark0x2Ewasm_memset.constprop.0.isra.0+0x4fc>
    1390:	e3a0000a 	mov	r0, #10
    1394:	ebfffffe 	bl	0 <wasm_rt_trap>
    1398:	000005c8 	.word	0x000005c8
    139c:	000005c8 	.word	0x000005c8
    13a0:	000000f0 	.word	0x000000f0
    13a4:	000000e4 	.word	0x000000e4
    13a8:	000000a0 	.word	0x000000a0
    13ac:	00000090 	.word	0x00000090
    13b0:	00000080 	.word	0x00000080
    13b4:	00000070 	.word	0x00000070
    13b8:	00000060 	.word	0x00000060
    13bc:	00000050 	.word	0x00000050
    13c0:	00000038 	.word	0x00000038

000013c4 <w2c_0x24coremark0x2Ewasm_prepend_alloc>:
    13c4:	e92d4ff0 	push	{r4, r5, r6, r7, r8, r9, sl, fp, lr}
    13c8:	ee1dcf70 	mrc	15, 0, ip, cr13, cr0, {3}
    13cc:	e59fec28 	ldr	lr, [pc, #3112]	@ 1ffc <w2c_0x24coremark0x2Ewasm_prepend_alloc+0xc38>
    13d0:	e59f4c28 	ldr	r4, [pc, #3112]	@ 2000 <w2c_0x24coremark0x2Ewasm_prepend_alloc+0xc3c>
    13d4:	e24dd01c 	sub	sp, sp, #28
    13d8:	e79fe00e 	ldr	lr, [pc, lr]
    13dc:	e79f4004 	ldr	r4, [pc, r4]
    13e0:	e79ce00e 	ldr	lr, [ip, lr]
    13e4:	e28ee001 	add	lr, lr, #1
    13e8:	e78ce004 	str	lr, [ip, r4]
    13ec:	e35e0f7d 	cmp	lr, #500	@ 0x1f4
    13f0:	8a0002ff 	bhi	1ff4 <w2c_0x24coremark0x2Ewasm_prepend_alloc+0xc30>
    13f4:	e3e05007 	mvn	r5, #7
    13f8:	e045e001 	sub	lr, r5, r1
    13fc:	e20ee00f 	and	lr, lr, #15
    1400:	e5908030 	ldr	r8, [r0, #48]	@ 0x30
    1404:	e08e1001 	add	r1, lr, r1
    1408:	e5906034 	ldr	r6, [r0, #52]	@ 0x34
    140c:	e291e008 	adds	lr, r1, #8
    1410:	e3a04000 	mov	r4, #0
    1414:	e2a47000 	adc	r7, r4, #0
    1418:	e158000e 	cmp	r8, lr
    141c:	e0d66007 	sbcs	r6, r6, r7
    1420:	3a000031 	bcc	14ec <w2c_0x24coremark0x2Ewasm_prepend_alloc+0x128>
    1424:	e5906010 	ldr	r6, [r0, #16]
    1428:	e3837003 	orr	r7, r3, #3
    142c:	e0866001 	add	r6, r6, r1
    1430:	e5867004 	str	r7, [r6, #4]
    1434:	e30069cc 	movw	r6, #2508	@ 0x9cc
    1438:	e5907030 	ldr	r7, [r0, #48]	@ 0x30
    143c:	e1570006 	cmp	r7, r6
    1440:	e5906034 	ldr	r6, [r0, #52]	@ 0x34
    1444:	e2d68000 	sbcs	r8, r6, #0
    1448:	3a000027 	bcc	14ec <w2c_0x24coremark0x2Ewasm_prepend_alloc+0x128>
    144c:	e0813003 	add	r3, r1, r3
    1450:	e0451002 	sub	r1, r5, r2
    1454:	e5905010 	ldr	r5, [r0, #16]
    1458:	e201100f 	and	r1, r1, #15
    145c:	e0812002 	add	r2, r1, r2
    1460:	e0421003 	sub	r1, r2, r3
    1464:	e59589c8 	ldr	r8, [r5, #2504]	@ 0x9c8
    1468:	e1520008 	cmp	r2, r8
    146c:	1a000020 	bne	14f4 <w2c_0x24coremark0x2Ewasm_prepend_alloc+0x130>
    1470:	e58539c8 	str	r3, [r5, #2504]	@ 0x9c8
    1474:	e5902030 	ldr	r2, [r0, #48]	@ 0x30
    1478:	e3520d27 	cmp	r2, #2496	@ 0x9c0
    147c:	e5902034 	ldr	r2, [r0, #52]	@ 0x34
    1480:	e2d22000 	sbcs	r2, r2, #0
    1484:	3a000018 	bcc	14ec <w2c_0x24coremark0x2Ewasm_prepend_alloc+0x128>
    1488:	e5905010 	ldr	r5, [r0, #16]
    148c:	e59529bc 	ldr	r2, [r5, #2492]	@ 0x9bc
    1490:	e0812002 	add	r2, r1, r2
    1494:	e58529bc 	str	r2, [r5, #2492]	@ 0x9bc
    1498:	e2931008 	adds	r1, r3, #8
    149c:	e5905030 	ldr	r5, [r0, #48]	@ 0x30
    14a0:	e2a44000 	adc	r4, r4, #0
    14a4:	e1550001 	cmp	r5, r1
    14a8:	e5901034 	ldr	r1, [r0, #52]	@ 0x34
    14ac:	e0d11004 	sbcs	r1, r1, r4
    14b0:	3a00000d 	bcc	14ec <w2c_0x24coremark0x2Ewasm_prepend_alloc+0x128>
    14b4:	e5901010 	ldr	r1, [r0, #16]
    14b8:	e3822001 	orr	r2, r2, #1
    14bc:	e0813003 	add	r3, r1, r3
    14c0:	e5832004 	str	r2, [r3, #4]
    14c4:	e59f2b38 	ldr	r2, [pc, #2872]	@ 2004 <w2c_0x24coremark0x2Ewasm_prepend_alloc+0xc40>
    14c8:	e1a0000e 	mov	r0, lr
    14cc:	e59f3b34 	ldr	r3, [pc, #2868]	@ 2008 <w2c_0x24coremark0x2Ewasm_prepend_alloc+0xc44>
    14d0:	e79f2002 	ldr	r2, [pc, r2]
    14d4:	e79f3003 	ldr	r3, [pc, r3]
    14d8:	e79c2002 	ldr	r2, [ip, r2]
    14dc:	e2422001 	sub	r2, r2, #1
    14e0:	e78c2003 	str	r2, [ip, r3]
    14e4:	e28dd01c 	add	sp, sp, #28
    14e8:	e8bd8ff0 	pop	{r4, r5, r6, r7, r8, r9, sl, fp, pc}
    14ec:	e3a00001 	mov	r0, #1
    14f0:	ebfffffe 	bl	0 <wasm_rt_trap>
    14f4:	e59589c4 	ldr	r8, [r5, #2500]	@ 0x9c4
    14f8:	e1520008 	cmp	r2, r8
    14fc:	1a000020 	bne	1584 <w2c_0x24coremark0x2Ewasm_prepend_alloc+0x1c0>
    1500:	e58539c4 	str	r3, [r5, #2500]	@ 0x9c4
    1504:	e30029bc 	movw	r2, #2492	@ 0x9bc
    1508:	e5905030 	ldr	r5, [r0, #48]	@ 0x30
    150c:	e1550002 	cmp	r5, r2
    1510:	e5902034 	ldr	r2, [r0, #52]	@ 0x34
    1514:	e2d22000 	sbcs	r2, r2, #0
    1518:	3afffff3 	bcc	14ec <w2c_0x24coremark0x2Ewasm_prepend_alloc+0x128>
    151c:	e5905010 	ldr	r5, [r0, #16]
    1520:	e59529b8 	ldr	r2, [r5, #2488]	@ 0x9b8
    1524:	e0812002 	add	r2, r1, r2
    1528:	e58529b8 	str	r2, [r5, #2488]	@ 0x9b8
    152c:	e2936008 	adds	r6, r3, #8
    1530:	e5907030 	ldr	r7, [r0, #48]	@ 0x30
    1534:	e2a45000 	adc	r5, r4, #0
    1538:	e5901034 	ldr	r1, [r0, #52]	@ 0x34
    153c:	e1570006 	cmp	r7, r6
    1540:	e0d11005 	sbcs	r1, r1, r5
    1544:	3affffe8 	bcc	14ec <w2c_0x24coremark0x2Ewasm_prepend_alloc+0x128>
    1548:	e5901010 	ldr	r1, [r0, #16]
    154c:	e3825001 	orr	r5, r2, #1
    1550:	e0811003 	add	r1, r1, r3
    1554:	e0833002 	add	r3, r3, r2
    1558:	e5815004 	str	r5, [r1, #4]
    155c:	e2931004 	adds	r1, r3, #4
    1560:	e2a44000 	adc	r4, r4, #0
    1564:	e5905030 	ldr	r5, [r0, #48]	@ 0x30
    1568:	e1550001 	cmp	r5, r1
    156c:	e5901034 	ldr	r1, [r0, #52]	@ 0x34
    1570:	e0d11004 	sbcs	r1, r1, r4
    1574:	3affffdc 	bcc	14ec <w2c_0x24coremark0x2Ewasm_prepend_alloc+0x128>
    1578:	e5901010 	ldr	r1, [r0, #16]
    157c:	e7812003 	str	r2, [r1, r3]
    1580:	eaffffcf 	b	14c4 <w2c_0x24coremark0x2Ewasm_prepend_alloc+0x100>
    1584:	e2928008 	adds	r8, r2, #8
    1588:	e1a0a004 	mov	sl, r4
    158c:	e1a09008 	mov	r9, r8
    1590:	e2a48000 	adc	r8, r4, #0
    1594:	e1570009 	cmp	r7, r9
    1598:	e0d68008 	sbcs	r8, r6, r8
    159c:	3affffd2 	bcc	14ec <w2c_0x24coremark0x2Ewasm_prepend_alloc+0x128>
    15a0:	e2828004 	add	r8, r2, #4
    15a4:	e0859008 	add	r9, r5, r8
    15a8:	e7958008 	ldr	r8, [r5, r8]
    15ac:	e58d8000 	str	r8, [sp]
    15b0:	e2088003 	and	r8, r8, #3
    15b4:	e3580001 	cmp	r8, #1
    15b8:	0a000076 	beq	1798 <w2c_0x24coremark0x2Ewasm_prepend_alloc+0x3d4>
    15bc:	e59d4000 	ldr	r4, [sp]
    15c0:	e3c44001 	bic	r4, r4, #1
    15c4:	e5894000 	str	r4, [r9]
    15c8:	e2924004 	adds	r4, r2, #4
    15cc:	e5905030 	ldr	r5, [r0, #48]	@ 0x30
    15d0:	e2aa8000 	adc	r8, sl, #0
    15d4:	e1550004 	cmp	r5, r4
    15d8:	e5904034 	ldr	r4, [r0, #52]	@ 0x34
    15dc:	e0d44008 	sbcs	r4, r4, r8
    15e0:	3affffc1 	bcc	14ec <w2c_0x24coremark0x2Ewasm_prepend_alloc+0x128>
    15e4:	e5904010 	ldr	r4, [r0, #16]
    15e8:	e2935008 	adds	r5, r3, #8
    15ec:	e3a08000 	mov	r8, #0
    15f0:	e7841002 	str	r1, [r4, r2]
    15f4:	e2a84000 	adc	r4, r8, #0
    15f8:	e5906030 	ldr	r6, [r0, #48]	@ 0x30
    15fc:	e5902034 	ldr	r2, [r0, #52]	@ 0x34
    1600:	e1560005 	cmp	r6, r5
    1604:	e0d22004 	sbcs	r2, r2, r4
    1608:	3affffb7 	bcc	14ec <w2c_0x24coremark0x2Ewasm_prepend_alloc+0x128>
    160c:	e5902010 	ldr	r2, [r0, #16]
    1610:	e3814001 	orr	r4, r1, #1
    1614:	e35100ff 	cmp	r1, #255	@ 0xff
    1618:	e0822003 	add	r2, r2, r3
    161c:	e5824004 	str	r4, [r2, #4]
    1620:	e5905030 	ldr	r5, [r0, #48]	@ 0x30
    1624:	e5904034 	ldr	r4, [r0, #52]	@ 0x34
    1628:	9a000094 	bls	1880 <w2c_0x24coremark0x2Ewasm_prepend_alloc+0x4bc>
    162c:	e3510401 	cmp	r1, #16777216	@ 0x1000000
    1630:	2a00012d 	bcs	1aec <w2c_0x24coremark0x2Ewasm_prepend_alloc+0x728>
    1634:	e1a02421 	lsr	r2, r1, #8
    1638:	e16f2f12 	clz	r2, r2
    163c:	e2626026 	rsb	r6, r2, #38	@ 0x26
    1640:	e1a02082 	lsl	r2, r2, #1
    1644:	e1a06631 	lsr	r6, r1, r6
    1648:	e262203e 	rsb	r2, r2, #62	@ 0x3e
    164c:	e2066001 	and	r6, r6, #1
    1650:	e0822006 	add	r2, r2, r6
    1654:	e2937020 	adds	r7, r3, #32
    1658:	e2a86000 	adc	r6, r8, #0
    165c:	e1550007 	cmp	r5, r7
    1660:	e0d46006 	sbcs	r6, r4, r6
    1664:	3affffa0 	bcc	14ec <w2c_0x24coremark0x2Ewasm_prepend_alloc+0x128>
    1668:	e5904010 	ldr	r4, [r0, #16]
    166c:	e0844003 	add	r4, r4, r3
    1670:	e584201c 	str	r2, [r4, #28]
    1674:	e2934018 	adds	r4, r3, #24
    1678:	e2a85000 	adc	r5, r8, #0
    167c:	e5906030 	ldr	r6, [r0, #48]	@ 0x30
    1680:	e1560004 	cmp	r6, r4
    1684:	e5904034 	ldr	r4, [r0, #52]	@ 0x34
    1688:	e0d44005 	sbcs	r4, r4, r5
    168c:	3affff96 	bcc	14ec <w2c_0x24coremark0x2Ewasm_prepend_alloc+0x128>
    1690:	e5904010 	ldr	r4, [r0, #16]
    1694:	e3a05000 	mov	r5, #0
    1698:	e0844003 	add	r4, r4, r3
    169c:	e5845010 	str	r5, [r4, #16]
    16a0:	e5845014 	str	r5, [r4, #20]
    16a4:	e30049b8 	movw	r4, #2488	@ 0x9b8
    16a8:	e5907030 	ldr	r7, [r0, #48]	@ 0x30
    16ac:	e5906034 	ldr	r6, [r0, #52]	@ 0x34
    16b0:	e1570004 	cmp	r7, r4
    16b4:	e2d64000 	sbcs	r4, r6, #0
    16b8:	3affff8b 	bcc	14ec <w2c_0x24coremark0x2Ewasm_prepend_alloc+0x128>
    16bc:	e5905010 	ldr	r5, [r0, #16]
    16c0:	e1a04102 	lsl	r4, r2, #2
    16c4:	e58d5000 	str	r5, [sp]
    16c8:	e284aeae 	add	sl, r4, #2784	@ 0xae0
    16cc:	e59559b4 	ldr	r5, [r5, #2484]	@ 0x9b4
    16d0:	e3a09001 	mov	r9, #1
    16d4:	e28a4004 	add	r4, sl, #4
    16d8:	e1a09219 	lsl	r9, r9, r2
    16dc:	e1190005 	tst	r9, r5
    16e0:	1a00010d 	bne	1b1c <w2c_0x24coremark0x2Ewasm_prepend_alloc+0x758>
    16e4:	e1570004 	cmp	r7, r4
    16e8:	e2d62000 	sbcs	r2, r6, #0
    16ec:	3affff7e 	bcc	14ec <w2c_0x24coremark0x2Ewasm_prepend_alloc+0x128>
    16f0:	e59d2000 	ldr	r2, [sp]
    16f4:	e30019b8 	movw	r1, #2488	@ 0x9b8
    16f8:	e782300a 	str	r3, [r2, sl]
    16fc:	e5902030 	ldr	r2, [r0, #48]	@ 0x30
    1700:	e1520001 	cmp	r2, r1
    1704:	e5902034 	ldr	r2, [r0, #52]	@ 0x34
    1708:	e2d22000 	sbcs	r2, r2, #0
    170c:	3affff76 	bcc	14ec <w2c_0x24coremark0x2Ewasm_prepend_alloc+0x128>
    1710:	e5901010 	ldr	r1, [r0, #16]
    1714:	e1892005 	orr	r2, r9, r5
    1718:	e58129b4 	str	r2, [r1, #2484]	@ 0x9b4
    171c:	e293201c 	adds	r2, r3, #28
    1720:	e2a81000 	adc	r1, r8, #0
    1724:	e5904030 	ldr	r4, [r0, #48]	@ 0x30
    1728:	e1540002 	cmp	r4, r2
    172c:	e5902034 	ldr	r2, [r0, #52]	@ 0x34
    1730:	e0d22001 	sbcs	r2, r2, r1
    1734:	3affff6c 	bcc	14ec <w2c_0x24coremark0x2Ewasm_prepend_alloc+0x128>
    1738:	e5902010 	ldr	r2, [r0, #16]
    173c:	e0822003 	add	r2, r2, r3
    1740:	e582a018 	str	sl, [r2, #24]
    1744:	e293200c 	adds	r2, r3, #12
    1748:	e2a81000 	adc	r1, r8, #0
    174c:	e5904030 	ldr	r4, [r0, #48]	@ 0x30
    1750:	e1540002 	cmp	r4, r2
    1754:	e5902034 	ldr	r2, [r0, #52]	@ 0x34
    1758:	e0d22001 	sbcs	r2, r2, r1
    175c:	3affff62 	bcc	14ec <w2c_0x24coremark0x2Ewasm_prepend_alloc+0x128>
    1760:	e5902010 	ldr	r2, [r0, #16]
    1764:	e0822003 	add	r2, r2, r3
    1768:	e5823008 	str	r3, [r2, #8]
    176c:	e2932010 	adds	r2, r3, #16
    1770:	e2a81000 	adc	r1, r8, #0
    1774:	e5904030 	ldr	r4, [r0, #48]	@ 0x30
    1778:	e1540002 	cmp	r4, r2
    177c:	e5902034 	ldr	r2, [r0, #52]	@ 0x34
    1780:	e0d22001 	sbcs	r2, r2, r1
    1784:	3affff58 	bcc	14ec <w2c_0x24coremark0x2Ewasm_prepend_alloc+0x128>
    1788:	e5902010 	ldr	r2, [r0, #16]
    178c:	e0822003 	add	r2, r2, r3
    1790:	e582300c 	str	r3, [r2, #12]
    1794:	eaffff4a 	b	14c4 <w2c_0x24coremark0x2Ewasm_prepend_alloc+0x100>
    1798:	e59d8000 	ldr	r8, [sp]
    179c:	e35800ff 	cmp	r8, #255	@ 0xff
    17a0:	8a000073 	bhi	1974 <w2c_0x24coremark0x2Ewasm_prepend_alloc+0x5b0>
    17a4:	e292800c 	adds	r8, r2, #12
    17a8:	e1a09008 	mov	r9, r8
    17ac:	e2a48000 	adc	r8, r4, #0
    17b0:	e1570009 	cmp	r7, r9
    17b4:	e0d68008 	sbcs	r8, r6, r8
    17b8:	3affff4b 	bcc	14ec <w2c_0x24coremark0x2Ewasm_prepend_alloc+0x128>
    17bc:	e0859002 	add	r9, r5, r2
    17c0:	e5998008 	ldr	r8, [r9, #8]
    17c4:	e292a010 	adds	sl, r2, #16
    17c8:	e2a44000 	adc	r4, r4, #0
    17cc:	e157000a 	cmp	r7, sl
    17d0:	e0d64004 	sbcs	r4, r6, r4
    17d4:	3affff44 	bcc	14ec <w2c_0x24coremark0x2Ewasm_prepend_alloc+0x128>
    17d8:	e599400c 	ldr	r4, [r9, #12]
    17dc:	e1540008 	cmp	r4, r8
    17e0:	0a0000c3 	beq	1af4 <w2c_0x24coremark0x2Ewasm_prepend_alloc+0x730>
    17e4:	e294a00c 	adds	sl, r4, #12
    17e8:	e3a09000 	mov	r9, #0
    17ec:	e2a9b000 	adc	fp, r9, #0
    17f0:	e157000a 	cmp	r7, sl
    17f4:	e0d6600b 	sbcs	r6, r6, fp
    17f8:	3affff3b 	bcc	14ec <w2c_0x24coremark0x2Ewasm_prepend_alloc+0x128>
    17fc:	e0855004 	add	r5, r5, r4
    1800:	e2986010 	adds	r6, r8, #16
    1804:	e5858008 	str	r8, [r5, #8]
    1808:	e2a95000 	adc	r5, r9, #0
    180c:	e5907030 	ldr	r7, [r0, #48]	@ 0x30
    1810:	e1570006 	cmp	r7, r6
    1814:	e5906034 	ldr	r6, [r0, #52]	@ 0x34
    1818:	e0d66005 	sbcs	r6, r6, r5
    181c:	3affff32 	bcc	14ec <w2c_0x24coremark0x2Ewasm_prepend_alloc+0x128>
    1820:	e5905010 	ldr	r5, [r0, #16]
    1824:	e0855008 	add	r5, r5, r8
    1828:	e585400c 	str	r4, [r5, #12]
    182c:	e5907030 	ldr	r7, [r0, #48]	@ 0x30
    1830:	e5906034 	ldr	r6, [r0, #52]	@ 0x34
    1834:	e59d4000 	ldr	r4, [sp]
    1838:	e3c45007 	bic	r5, r4, #7
    183c:	e0822005 	add	r2, r2, r5
    1840:	e2924008 	adds	r4, r2, #8
    1844:	e1a09004 	mov	r9, r4
    1848:	23a04001 	movcs	r4, #1
    184c:	33a04000 	movcc	r4, #0
    1850:	e1570009 	cmp	r7, r9
    1854:	e0d64004 	sbcs	r4, r6, r4
    1858:	3affff23 	bcc	14ec <w2c_0x24coremark0x2Ewasm_prepend_alloc+0x128>
    185c:	e5904010 	ldr	r4, [r0, #16]
    1860:	e2822004 	add	r2, r2, #4
    1864:	e0811005 	add	r1, r1, r5
    1868:	e0849002 	add	r9, r4, r2
    186c:	e7942002 	ldr	r2, [r4, r2]
    1870:	e58d2000 	str	r2, [sp]
    1874:	e3a0a000 	mov	sl, #0
    1878:	e0832001 	add	r2, r3, r1
    187c:	eaffff4e 	b	15bc <w2c_0x24coremark0x2Ewasm_prepend_alloc+0x1f8>
    1880:	e30029b4 	movw	r2, #2484	@ 0x9b4
    1884:	e1550002 	cmp	r5, r2
    1888:	e2d42000 	sbcs	r2, r4, #0
    188c:	3affff16 	bcc	14ec <w2c_0x24coremark0x2Ewasm_prepend_alloc+0x128>
    1890:	e5902010 	ldr	r2, [r0, #16]
    1894:	e3c17007 	bic	r7, r1, #7
    1898:	e2876e9d 	add	r6, r7, #2512	@ 0x9d0
    189c:	e1a0a002 	mov	sl, r2
    18a0:	e2866008 	add	r6, r6, #8
    18a4:	e59299b0 	ldr	r9, [r2, #2480]	@ 0x9b0
    18a8:	e3a02001 	mov	r2, #1
    18ac:	e1a011a1 	lsr	r1, r1, #3
    18b0:	e1a02112 	lsl	r2, r2, r1
    18b4:	e1120009 	tst	r2, r9
    18b8:	1a0000c0 	bne	1bc0 <w2c_0x24coremark0x2Ewasm_prepend_alloc+0x7fc>
    18bc:	e1822009 	orr	r2, r2, r9
    18c0:	e58a29b0 	str	r2, [sl, #2480]	@ 0x9b0
    18c4:	e1a02006 	mov	r2, r6
    18c8:	e5905030 	ldr	r5, [r0, #48]	@ 0x30
    18cc:	e5904034 	ldr	r4, [r0, #52]	@ 0x34
    18d0:	e2921010 	adds	r1, r2, #16
    18d4:	e1a09001 	mov	r9, r1
    18d8:	23a01001 	movcs	r1, #1
    18dc:	33a01000 	movcc	r1, #0
    18e0:	e1550009 	cmp	r5, r9
    18e4:	e0d41001 	sbcs	r1, r4, r1
    18e8:	3afffeff 	bcc	14ec <w2c_0x24coremark0x2Ewasm_prepend_alloc+0x128>
    18ec:	e5901010 	ldr	r1, [r0, #16]
    18f0:	e0811002 	add	r1, r1, r2
    18f4:	e581300c 	str	r3, [r1, #12]
    18f8:	e2871e9e 	add	r1, r7, #2528	@ 0x9e0
    18fc:	e2811004 	add	r1, r1, #4
    1900:	e5904030 	ldr	r4, [r0, #48]	@ 0x30
    1904:	e1540001 	cmp	r4, r1
    1908:	e5901034 	ldr	r1, [r0, #52]	@ 0x34
    190c:	e2d11000 	sbcs	r1, r1, #0
    1910:	3afffef5 	bcc	14ec <w2c_0x24coremark0x2Ewasm_prepend_alloc+0x128>
    1914:	e5901010 	ldr	r1, [r0, #16]
    1918:	e0811007 	add	r1, r1, r7
    191c:	e58139e0 	str	r3, [r1, #2528]	@ 0x9e0
    1920:	e2931010 	adds	r1, r3, #16
    1924:	e2a84000 	adc	r4, r8, #0
    1928:	e5905030 	ldr	r5, [r0, #48]	@ 0x30
    192c:	e1550001 	cmp	r5, r1
    1930:	e5901034 	ldr	r1, [r0, #52]	@ 0x34
    1934:	e0d11004 	sbcs	r1, r1, r4
    1938:	3afffeeb 	bcc	14ec <w2c_0x24coremark0x2Ewasm_prepend_alloc+0x128>
    193c:	e5901010 	ldr	r1, [r0, #16]
    1940:	e0811003 	add	r1, r1, r3
    1944:	e581600c 	str	r6, [r1, #12]
    1948:	e293100c 	adds	r1, r3, #12
    194c:	e2a84000 	adc	r4, r8, #0
    1950:	e5905030 	ldr	r5, [r0, #48]	@ 0x30
    1954:	e1550001 	cmp	r5, r1
    1958:	e5901034 	ldr	r1, [r0, #52]	@ 0x34
    195c:	e0d11004 	sbcs	r1, r1, r4
    1960:	3afffee1 	bcc	14ec <w2c_0x24coremark0x2Ewasm_prepend_alloc+0x128>
    1964:	e5901010 	ldr	r1, [r0, #16]
    1968:	e0813003 	add	r3, r1, r3
    196c:	e5832008 	str	r2, [r3, #8]
    1970:	eafffed3 	b	14c4 <w2c_0x24coremark0x2Ewasm_prepend_alloc+0x100>
    1974:	e292801c 	adds	r8, r2, #28
    1978:	e1a09008 	mov	r9, r8
    197c:	e2a48000 	adc	r8, r4, #0
    1980:	e1570009 	cmp	r7, r9
    1984:	e0d68008 	sbcs	r8, r6, r8
    1988:	3afffed7 	bcc	14ec <w2c_0x24coremark0x2Ewasm_prepend_alloc+0x128>
    198c:	e0859002 	add	r9, r5, r2
    1990:	e1a0b009 	mov	fp, r9
    1994:	e5998018 	ldr	r8, [r9, #24]
    1998:	e58d8004 	str	r8, [sp, #4]
    199c:	e2928010 	adds	r8, r2, #16
    19a0:	e58d8008 	str	r8, [sp, #8]
    19a4:	e1a0a008 	mov	sl, r8
    19a8:	e2a48000 	adc	r8, r4, #0
    19ac:	e157000a 	cmp	r7, sl
    19b0:	e0d68008 	sbcs	r8, r6, r8
    19b4:	3afffecc 	bcc	14ec <w2c_0x24coremark0x2Ewasm_prepend_alloc+0x128>
    19b8:	e599800c 	ldr	r8, [r9, #12]
    19bc:	e1520008 	cmp	r2, r8
    19c0:	0a000086 	beq	1be0 <w2c_0x24coremark0x2Ewasm_prepend_alloc+0x81c>
    19c4:	e292900c 	adds	r9, r2, #12
    19c8:	e2a4a000 	adc	sl, r4, #0
    19cc:	e1570009 	cmp	r7, r9
    19d0:	e0d6900a 	sbcs	r9, r6, sl
    19d4:	3afffec4 	bcc	14ec <w2c_0x24coremark0x2Ewasm_prepend_alloc+0x128>
    19d8:	e59b9008 	ldr	r9, [fp, #8]
    19dc:	e595a9c0 	ldr	sl, [r5, #2496]	@ 0x9c0
    19e0:	e298b00c 	adds	fp, r8, #12
    19e4:	23a0a001 	movcs	sl, #1
    19e8:	33a0a000 	movcc	sl, #0
    19ec:	e157000b 	cmp	r7, fp
    19f0:	e0d6600a 	sbcs	r6, r6, sl
    19f4:	3afffebc 	bcc	14ec <w2c_0x24coremark0x2Ewasm_prepend_alloc+0x128>
    19f8:	e0855008 	add	r5, r5, r8
    19fc:	e5859008 	str	r9, [r5, #8]
    1a00:	e2995010 	adds	r5, r9, #16
    1a04:	23a06001 	movcs	r6, #1
    1a08:	33a06000 	movcc	r6, #0
    1a0c:	e5907030 	ldr	r7, [r0, #48]	@ 0x30
    1a10:	e1570005 	cmp	r7, r5
    1a14:	e5905034 	ldr	r5, [r0, #52]	@ 0x34
    1a18:	e0d55006 	sbcs	r5, r5, r6
    1a1c:	3afffeb2 	bcc	14ec <w2c_0x24coremark0x2Ewasm_prepend_alloc+0x128>
    1a20:	e5905010 	ldr	r5, [r0, #16]
    1a24:	e0855009 	add	r5, r5, r9
    1a28:	e585800c 	str	r8, [r5, #12]
    1a2c:	e5907030 	ldr	r7, [r0, #48]	@ 0x30
    1a30:	e5906034 	ldr	r6, [r0, #52]	@ 0x34
    1a34:	e59d5004 	ldr	r5, [sp, #4]
    1a38:	e3550000 	cmp	r5, #0
    1a3c:	0affff7c 	beq	1834 <w2c_0x24coremark0x2Ewasm_prepend_alloc+0x470>
    1a40:	e2925020 	adds	r5, r2, #32
    1a44:	e1a09005 	mov	r9, r5
    1a48:	e2a45000 	adc	r5, r4, #0
    1a4c:	e1570009 	cmp	r7, r9
    1a50:	e0d65005 	sbcs	r5, r6, r5
    1a54:	3afffea4 	bcc	14ec <w2c_0x24coremark0x2Ewasm_prepend_alloc+0x128>
    1a58:	e5909010 	ldr	r9, [r0, #16]
    1a5c:	e58d9008 	str	r9, [sp, #8]
    1a60:	e0895002 	add	r5, r9, r2
    1a64:	e595501c 	ldr	r5, [r5, #28]
    1a68:	e58d500c 	str	r5, [sp, #12]
    1a6c:	e1a05105 	lsl	r5, r5, #2
    1a70:	e3a0b000 	mov	fp, #0
    1a74:	e2855eae 	add	r5, r5, #2784	@ 0xae0
    1a78:	e295a004 	adds	sl, r5, #4
    1a7c:	e2abb000 	adc	fp, fp, #0
    1a80:	e157000a 	cmp	r7, sl
    1a84:	e0d6a00b 	sbcs	sl, r6, fp
    1a88:	3afffe97 	bcc	14ec <w2c_0x24coremark0x2Ewasm_prepend_alloc+0x128>
    1a8c:	e7999005 	ldr	r9, [r9, r5]
    1a90:	e1520009 	cmp	r2, r9
    1a94:	1a000094 	bne	1cec <w2c_0x24coremark0x2Ewasm_prepend_alloc+0x928>
    1a98:	e59d6008 	ldr	r6, [sp, #8]
    1a9c:	e3580000 	cmp	r8, #0
    1aa0:	e7868005 	str	r8, [r6, r5]
    1aa4:	1a0000a7 	bne	1d48 <w2c_0x24coremark0x2Ewasm_prepend_alloc+0x984>
    1aa8:	e5906030 	ldr	r6, [r0, #48]	@ 0x30
    1aac:	e30059b8 	movw	r5, #2488	@ 0x9b8
    1ab0:	e5904034 	ldr	r4, [r0, #52]	@ 0x34
    1ab4:	e1560005 	cmp	r6, r5
    1ab8:	e2d44000 	sbcs	r4, r4, #0
    1abc:	3afffe8a 	bcc	14ec <w2c_0x24coremark0x2Ewasm_prepend_alloc+0x128>
    1ac0:	e5906010 	ldr	r6, [r0, #16]
    1ac4:	e59659b4 	ldr	r5, [r6, #2484]	@ 0x9b4
    1ac8:	e59d400c 	ldr	r4, [sp, #12]
    1acc:	e3e07001 	mvn	r7, #1
    1ad0:	e204401f 	and	r4, r4, #31
    1ad4:	e2644020 	rsb	r4, r4, #32
    1ad8:	e0055477 	and	r5, r5, r7, ror r4
    1adc:	e58659b4 	str	r5, [r6, #2484]	@ 0x9b4
    1ae0:	e5907030 	ldr	r7, [r0, #48]	@ 0x30
    1ae4:	e5906034 	ldr	r6, [r0, #52]	@ 0x34
    1ae8:	eaffff51 	b	1834 <w2c_0x24coremark0x2Ewasm_prepend_alloc+0x470>
    1aec:	e3a0201f 	mov	r2, #31
    1af0:	eafffed7 	b	1654 <w2c_0x24coremark0x2Ewasm_prepend_alloc+0x290>
    1af4:	e59549b0 	ldr	r4, [r5, #2480]	@ 0x9b0
    1af8:	e59d6000 	ldr	r6, [sp]
    1afc:	e3e07001 	mvn	r7, #1
    1b00:	e1a061a6 	lsr	r6, r6, #3
    1b04:	e2666020 	rsb	r6, r6, #32
    1b08:	e0044677 	and	r4, r4, r7, ror r6
    1b0c:	e58549b0 	str	r4, [r5, #2480]	@ 0x9b0
    1b10:	e5907030 	ldr	r7, [r0, #48]	@ 0x30
    1b14:	e5906034 	ldr	r6, [r0, #52]	@ 0x34
    1b18:	eaffff45 	b	1834 <w2c_0x24coremark0x2Ewasm_prepend_alloc+0x470>
    1b1c:	e352001f 	cmp	r2, #31
    1b20:	11a020a2 	lsrne	r2, r2, #1
    1b24:	12622019 	rsbne	r2, r2, #25
    1b28:	11a02211 	lslne	r2, r1, r2
    1b2c:	01a02001 	moveq	r2, r1
    1b30:	e1570004 	cmp	r7, r4
    1b34:	e2d64000 	sbcs	r4, r6, #0
    1b38:	3afffe6b 	bcc	14ec <w2c_0x24coremark0x2Ewasm_prepend_alloc+0x128>
    1b3c:	e59d5000 	ldr	r5, [sp]
    1b40:	e795400a 	ldr	r4, [r5, sl]
    1b44:	e1a09003 	mov	r9, r3
    1b48:	e1a0a00c 	mov	sl, ip
    1b4c:	e1a03005 	mov	r3, r5
    1b50:	e58d0004 	str	r0, [sp, #4]
    1b54:	e2940008 	adds	r0, r4, #8
    1b58:	23a05001 	movcs	r5, #1
    1b5c:	33a05000 	movcc	r5, #0
    1b60:	e1570000 	cmp	r7, r0
    1b64:	e0d65005 	sbcs	r5, r6, r5
    1b68:	3afffe5f 	bcc	14ec <w2c_0x24coremark0x2Ewasm_prepend_alloc+0x128>
    1b6c:	e0835004 	add	r5, r3, r4
    1b70:	e5955004 	ldr	r5, [r5, #4]
    1b74:	e3c55007 	bic	r5, r5, #7
    1b78:	e1550001 	cmp	r5, r1
    1b7c:	0a0000be 	beq	1e7c <w2c_0x24coremark0x2Ewasm_prepend_alloc+0xab8>
    1b80:	e1a05ea2 	lsr	r5, r2, #29
    1b84:	e2840010 	add	r0, r4, #16
    1b88:	e2055004 	and	r5, r5, #4
    1b8c:	e0805005 	add	r5, r0, r5
    1b90:	e295c004 	adds	ip, r5, #4
    1b94:	23a00001 	movcs	r0, #1
    1b98:	33a00000 	movcc	r0, #0
    1b9c:	e157000c 	cmp	r7, ip
    1ba0:	e0d60000 	sbcs	r0, r6, r0
    1ba4:	3afffe50 	bcc	14ec <w2c_0x24coremark0x2Ewasm_prepend_alloc+0x128>
    1ba8:	e7930005 	ldr	r0, [r3, r5]
    1bac:	e1a02082 	lsl	r2, r2, #1
    1bb0:	e3500000 	cmp	r0, #0
    1bb4:	0a0000ea 	beq	1f64 <w2c_0x24coremark0x2Ewasm_prepend_alloc+0xba0>
    1bb8:	e1a04000 	mov	r4, r0
    1bbc:	eaffffe4 	b	1b54 <w2c_0x24coremark0x2Ewasm_prepend_alloc+0x790>
    1bc0:	e2872e9e 	add	r2, r7, #2528	@ 0x9e0
    1bc4:	e2822004 	add	r2, r2, #4
    1bc8:	e1550002 	cmp	r5, r2
    1bcc:	e2d42000 	sbcs	r2, r4, #0
    1bd0:	3afffe45 	bcc	14ec <w2c_0x24coremark0x2Ewasm_prepend_alloc+0x128>
    1bd4:	e08a2007 	add	r2, sl, r7
    1bd8:	e59229e0 	ldr	r2, [r2, #2528]	@ 0x9e0
    1bdc:	eaffff3b 	b	18d0 <w2c_0x24coremark0x2Ewasm_prepend_alloc+0x50c>
    1be0:	e2829014 	add	r9, r2, #20
    1be4:	e2998004 	adds	r8, r9, #4
    1be8:	e1a0a008 	mov	sl, r8
    1bec:	23a08001 	movcs	r8, #1
    1bf0:	33a08000 	movcc	r8, #0
    1bf4:	e157000a 	cmp	r7, sl
    1bf8:	e0d68008 	sbcs	r8, r6, r8
    1bfc:	3afffe3a 	bcc	14ec <w2c_0x24coremark0x2Ewasm_prepend_alloc+0x128>
    1c00:	e7958009 	ldr	r8, [r5, r9]
    1c04:	e3580000 	cmp	r8, #0
    1c08:	1a000009 	bne	1c34 <w2c_0x24coremark0x2Ewasm_prepend_alloc+0x870>
    1c0c:	e2928014 	adds	r8, r2, #20
    1c10:	e2a48000 	adc	r8, r4, #0
    1c14:	e1570009 	cmp	r7, r9
    1c18:	e0d68008 	sbcs	r8, r6, r8
    1c1c:	3afffe32 	bcc	14ec <w2c_0x24coremark0x2Ewasm_prepend_alloc+0x128>
    1c20:	e59d8008 	ldr	r8, [sp, #8]
    1c24:	e1a09008 	mov	r9, r8
    1c28:	e7958008 	ldr	r8, [r5, r8]
    1c2c:	e3580000 	cmp	r8, #0
    1c30:	0affff7f 	beq	1a34 <w2c_0x24coremark0x2Ewasm_prepend_alloc+0x670>
    1c34:	e58d300c 	str	r3, [sp, #12]
    1c38:	e1a0a002 	mov	sl, r2
    1c3c:	e58de010 	str	lr, [sp, #16]
    1c40:	e1a03009 	mov	r3, r9
    1c44:	e1a0e00c 	mov	lr, ip
    1c48:	e1a0c001 	mov	ip, r1
    1c4c:	e58d0014 	str	r0, [sp, #20]
    1c50:	e1a00003 	mov	r0, r3
    1c54:	e2883014 	add	r3, r8, #20
    1c58:	e1a02008 	mov	r2, r8
    1c5c:	e2938004 	adds	r8, r3, #4
    1c60:	23a01001 	movcs	r1, #1
    1c64:	33a01000 	movcc	r1, #0
    1c68:	e1570008 	cmp	r7, r8
    1c6c:	e0d61001 	sbcs	r1, r6, r1
    1c70:	3afffe1d 	bcc	14ec <w2c_0x24coremark0x2Ewasm_prepend_alloc+0x128>
    1c74:	e7958003 	ldr	r8, [r5, r3]
    1c78:	e3580000 	cmp	r8, #0
    1c7c:	1afffff3 	bne	1c50 <w2c_0x24coremark0x2Ewasm_prepend_alloc+0x88c>
    1c80:	e2921014 	adds	r1, r2, #20
    1c84:	e2a88000 	adc	r8, r8, #0
    1c88:	e1570003 	cmp	r7, r3
    1c8c:	e0d68008 	sbcs	r8, r6, r8
    1c90:	3afffe15 	bcc	14ec <w2c_0x24coremark0x2Ewasm_prepend_alloc+0x128>
    1c94:	e2823010 	add	r3, r2, #16
    1c98:	e7958003 	ldr	r8, [r5, r3]
    1c9c:	e3580000 	cmp	r8, #0
    1ca0:	1affffea 	bne	1c50 <w2c_0x24coremark0x2Ewasm_prepend_alloc+0x88c>
    1ca4:	e2909004 	adds	r9, r0, #4
    1ca8:	e1a0b000 	mov	fp, r0
    1cac:	e58d2008 	str	r2, [sp, #8]
    1cb0:	e1a0200a 	mov	r2, sl
    1cb4:	e2a8a000 	adc	sl, r8, #0
    1cb8:	e1570009 	cmp	r7, r9
    1cbc:	e0d6600a 	sbcs	r6, r6, sl
    1cc0:	e59d0014 	ldr	r0, [sp, #20]
    1cc4:	2785800b 	strcs	r8, [r5, fp]
    1cc8:	e1a0100c 	mov	r1, ip
    1ccc:	e59d300c 	ldr	r3, [sp, #12]
    1cd0:	e1a0c00e 	mov	ip, lr
    1cd4:	259d8008 	ldrcs	r8, [sp, #8]
    1cd8:	e59de010 	ldr	lr, [sp, #16]
    1cdc:	25907030 	ldrcs	r7, [r0, #48]	@ 0x30
    1ce0:	25906034 	ldrcs	r6, [r0, #52]	@ 0x34
    1ce4:	2affff52 	bcs	1a34 <w2c_0x24coremark0x2Ewasm_prepend_alloc+0x670>
    1ce8:	ebfff8f9 	bl	d4 <f64_store_default32.part.0>
    1cec:	e59d9004 	ldr	r9, [sp, #4]
    1cf0:	e3a0a000 	mov	sl, #0
    1cf4:	e299b014 	adds	fp, r9, #20
    1cf8:	e2aa5000 	adc	r5, sl, #0
    1cfc:	e157000b 	cmp	r7, fp
    1d00:	e0d65005 	sbcs	r5, r6, r5
    1d04:	3afffdf8 	bcc	14ec <w2c_0x24coremark0x2Ewasm_prepend_alloc+0x128>
    1d08:	e59d5008 	ldr	r5, [sp, #8]
    1d0c:	e0855009 	add	r5, r5, r9
    1d10:	e5955010 	ldr	r5, [r5, #16]
    1d14:	e1520005 	cmp	r2, r5
    1d18:	13a05014 	movne	r5, #20
    1d1c:	03a05010 	moveq	r5, #16
    1d20:	e0855009 	add	r5, r5, r9
    1d24:	e2959004 	adds	r9, r5, #4
    1d28:	e2aaa000 	adc	sl, sl, #0
    1d2c:	e1570009 	cmp	r7, r9
    1d30:	e0d6600a 	sbcs	r6, r6, sl
    1d34:	3affffeb 	bcc	1ce8 <w2c_0x24coremark0x2Ewasm_prepend_alloc+0x924>
    1d38:	e59d6008 	ldr	r6, [sp, #8]
    1d3c:	e3580000 	cmp	r8, #0
    1d40:	e7868005 	str	r8, [r6, r5]
    1d44:	0a000049 	beq	1e70 <w2c_0x24coremark0x2Ewasm_prepend_alloc+0xaac>
    1d48:	e5909030 	ldr	r9, [r0, #48]	@ 0x30
    1d4c:	e298701c 	adds	r7, r8, #28
    1d50:	e5906034 	ldr	r6, [r0, #52]	@ 0x34
    1d54:	23a05001 	movcs	r5, #1
    1d58:	33a05000 	movcc	r5, #0
    1d5c:	e1590007 	cmp	r9, r7
    1d60:	e0d65005 	sbcs	r5, r6, r5
    1d64:	3affffdf 	bcc	1ce8 <w2c_0x24coremark0x2Ewasm_prepend_alloc+0x924>
    1d68:	e5905010 	ldr	r5, [r0, #16]
    1d6c:	e59d6004 	ldr	r6, [sp, #4]
    1d70:	e0855008 	add	r5, r5, r8
    1d74:	e5856018 	str	r6, [r5, #24]
    1d78:	e2925014 	adds	r5, r2, #20
    1d7c:	e2a44000 	adc	r4, r4, #0
    1d80:	e5907030 	ldr	r7, [r0, #48]	@ 0x30
    1d84:	e5906034 	ldr	r6, [r0, #52]	@ 0x34
    1d88:	e1570005 	cmp	r7, r5
    1d8c:	e0d64004 	sbcs	r4, r6, r4
    1d90:	3afffdd5 	bcc	14ec <w2c_0x24coremark0x2Ewasm_prepend_alloc+0x128>
    1d94:	e5909010 	ldr	r9, [r0, #16]
    1d98:	e0894002 	add	r4, r9, r2
    1d9c:	e5944010 	ldr	r4, [r4, #16]
    1da0:	e3540000 	cmp	r4, #0
    1da4:	0a000014 	beq	1dfc <w2c_0x24coremark0x2Ewasm_prepend_alloc+0xa38>
    1da8:	e298b014 	adds	fp, r8, #20
    1dac:	23a0a001 	movcs	sl, #1
    1db0:	33a0a000 	movcc	sl, #0
    1db4:	e157000b 	cmp	r7, fp
    1db8:	e0d6600a 	sbcs	r6, r6, sl
    1dbc:	3affffc9 	bcc	1ce8 <w2c_0x24coremark0x2Ewasm_prepend_alloc+0x924>
    1dc0:	e0896008 	add	r6, r9, r8
    1dc4:	e294701c 	adds	r7, r4, #28
    1dc8:	e5864010 	str	r4, [r6, #16]
    1dcc:	23a06001 	movcs	r6, #1
    1dd0:	33a06000 	movcc	r6, #0
    1dd4:	e5909030 	ldr	r9, [r0, #48]	@ 0x30
    1dd8:	e1590007 	cmp	r9, r7
    1ddc:	e5907034 	ldr	r7, [r0, #52]	@ 0x34
    1de0:	e0d77006 	sbcs	r7, r7, r6
    1de4:	3affffbf 	bcc	1ce8 <w2c_0x24coremark0x2Ewasm_prepend_alloc+0x924>
    1de8:	e5906010 	ldr	r6, [r0, #16]
    1dec:	e0864004 	add	r4, r6, r4
    1df0:	e5848018 	str	r8, [r4, #24]
    1df4:	e5907030 	ldr	r7, [r0, #48]	@ 0x30
    1df8:	e5906034 	ldr	r6, [r0, #52]	@ 0x34
    1dfc:	e295a004 	adds	sl, r5, #4
    1e00:	e3a09000 	mov	r9, #0
    1e04:	e2a94000 	adc	r4, r9, #0
    1e08:	e157000a 	cmp	r7, sl
    1e0c:	e0d64004 	sbcs	r4, r6, r4
    1e10:	3afffdb5 	bcc	14ec <w2c_0x24coremark0x2Ewasm_prepend_alloc+0x128>
    1e14:	e590a010 	ldr	sl, [r0, #16]
    1e18:	e79a4005 	ldr	r4, [sl, r5]
    1e1c:	e1540009 	cmp	r4, r9
    1e20:	0afffe83 	beq	1834 <w2c_0x24coremark0x2Ewasm_prepend_alloc+0x470>
    1e24:	e288b014 	add	fp, r8, #20
    1e28:	e58d9004 	str	r9, [sp, #4]
    1e2c:	e29b5004 	adds	r5, fp, #4
    1e30:	e2a99000 	adc	r9, r9, #0
    1e34:	e1570005 	cmp	r7, r5
    1e38:	e0d65009 	sbcs	r5, r6, r9
    1e3c:	3affffa9 	bcc	1ce8 <w2c_0x24coremark0x2Ewasm_prepend_alloc+0x924>
    1e40:	e78a400b 	str	r4, [sl, fp]
    1e44:	e294601c 	adds	r6, r4, #28
    1e48:	23a05001 	movcs	r5, #1
    1e4c:	33a05000 	movcc	r5, #0
    1e50:	e5907030 	ldr	r7, [r0, #48]	@ 0x30
    1e54:	e1570006 	cmp	r7, r6
    1e58:	e5906034 	ldr	r6, [r0, #52]	@ 0x34
    1e5c:	e0d66005 	sbcs	r6, r6, r5
    1e60:	3affffa0 	bcc	1ce8 <w2c_0x24coremark0x2Ewasm_prepend_alloc+0x924>
    1e64:	e5905010 	ldr	r5, [r0, #16]
    1e68:	e0854004 	add	r4, r5, r4
    1e6c:	e5848018 	str	r8, [r4, #24]
    1e70:	e5907030 	ldr	r7, [r0, #48]	@ 0x30
    1e74:	e5906034 	ldr	r6, [r0, #52]	@ 0x34
    1e78:	eafffe6d 	b	1834 <w2c_0x24coremark0x2Ewasm_prepend_alloc+0x470>
    1e7c:	e1a0b004 	mov	fp, r4
    1e80:	e1a03009 	mov	r3, r9
    1e84:	e1a0c00a 	mov	ip, sl
    1e88:	e3a09000 	mov	r9, #0
    1e8c:	e29ba00c 	adds	sl, fp, #12
    1e90:	e1a04000 	mov	r4, r0
    1e94:	e2a95000 	adc	r5, r9, #0
    1e98:	e157000a 	cmp	r7, sl
    1e9c:	e59d0004 	ldr	r0, [sp, #4]
    1ea0:	e0d62005 	sbcs	r2, r6, r5
    1ea4:	3afffd90 	bcc	14ec <w2c_0x24coremark0x2Ewasm_prepend_alloc+0x128>
    1ea8:	e59d2000 	ldr	r2, [sp]
    1eac:	e7922004 	ldr	r2, [r2, r4]
    1eb0:	e2921010 	adds	r1, r2, #16
    1eb4:	e58d9004 	str	r9, [sp, #4]
    1eb8:	e2a99000 	adc	r9, r9, #0
    1ebc:	e1570001 	cmp	r7, r1
    1ec0:	e0d61009 	sbcs	r1, r6, r9
    1ec4:	3affff87 	bcc	1ce8 <w2c_0x24coremark0x2Ewasm_prepend_alloc+0x924>
    1ec8:	e59d1000 	ldr	r1, [sp]
    1ecc:	e0811002 	add	r1, r1, r2
    1ed0:	e581300c 	str	r3, [r1, #12]
    1ed4:	e5901030 	ldr	r1, [r0, #48]	@ 0x30
    1ed8:	e151000a 	cmp	r1, sl
    1edc:	e5901034 	ldr	r1, [r0, #52]	@ 0x34
    1ee0:	e0d11005 	sbcs	r1, r1, r5
    1ee4:	3affff7f 	bcc	1ce8 <w2c_0x24coremark0x2Ewasm_prepend_alloc+0x924>
    1ee8:	e5901010 	ldr	r1, [r0, #16]
    1eec:	e7813004 	str	r3, [r1, r4]
    1ef0:	e293101c 	adds	r1, r3, #28
    1ef4:	e2a84000 	adc	r4, r8, #0
    1ef8:	e5905030 	ldr	r5, [r0, #48]	@ 0x30
    1efc:	e1550001 	cmp	r5, r1
    1f00:	e5901034 	ldr	r1, [r0, #52]	@ 0x34
    1f04:	e0d11004 	sbcs	r1, r1, r4
    1f08:	3affff76 	bcc	1ce8 <w2c_0x24coremark0x2Ewasm_prepend_alloc+0x924>
    1f0c:	e5901010 	ldr	r1, [r0, #16]
    1f10:	e3a09000 	mov	r9, #0
    1f14:	e0811003 	add	r1, r1, r3
    1f18:	e5819018 	str	r9, [r1, #24]
    1f1c:	e2931010 	adds	r1, r3, #16
    1f20:	e2a84000 	adc	r4, r8, #0
    1f24:	e5905030 	ldr	r5, [r0, #48]	@ 0x30
    1f28:	e1550001 	cmp	r5, r1
    1f2c:	e5901034 	ldr	r1, [r0, #52]	@ 0x34
    1f30:	e0d11004 	sbcs	r1, r1, r4
    1f34:	3affff6b 	bcc	1ce8 <w2c_0x24coremark0x2Ewasm_prepend_alloc+0x924>
    1f38:	e5901010 	ldr	r1, [r0, #16]
    1f3c:	e0811003 	add	r1, r1, r3
    1f40:	e581b00c 	str	fp, [r1, #12]
    1f44:	e293100c 	adds	r1, r3, #12
    1f48:	e2a84000 	adc	r4, r8, #0
    1f4c:	e5905030 	ldr	r5, [r0, #48]	@ 0x30
    1f50:	e1550001 	cmp	r5, r1
    1f54:	e5901034 	ldr	r1, [r0, #52]	@ 0x34
    1f58:	e0d11004 	sbcs	r1, r1, r4
    1f5c:	2afffe80 	bcs	1964 <w2c_0x24coremark0x2Ewasm_prepend_alloc+0x5a0>
    1f60:	eaffff60 	b	1ce8 <w2c_0x24coremark0x2Ewasm_prepend_alloc+0x924>
    1f64:	e59d2000 	ldr	r2, [sp]
    1f68:	e1a06004 	mov	r6, r4
    1f6c:	e59d0004 	ldr	r0, [sp, #4]
    1f70:	e1a0c00a 	mov	ip, sl
    1f74:	e7829005 	str	r9, [r2, r5]
    1f78:	e299201c 	adds	r2, r9, #28
    1f7c:	e2a81000 	adc	r1, r8, #0
    1f80:	e5904030 	ldr	r4, [r0, #48]	@ 0x30
    1f84:	e1540002 	cmp	r4, r2
    1f88:	e5902034 	ldr	r2, [r0, #52]	@ 0x34
    1f8c:	e0d22001 	sbcs	r2, r2, r1
    1f90:	3affff54 	bcc	1ce8 <w2c_0x24coremark0x2Ewasm_prepend_alloc+0x924>
    1f94:	e5902010 	ldr	r2, [r0, #16]
    1f98:	e0822009 	add	r2, r2, r9
    1f9c:	e5826018 	str	r6, [r2, #24]
    1fa0:	e2992010 	adds	r2, r9, #16
    1fa4:	e2a81000 	adc	r1, r8, #0
    1fa8:	e5904030 	ldr	r4, [r0, #48]	@ 0x30
    1fac:	e1540002 	cmp	r4, r2
    1fb0:	e5902034 	ldr	r2, [r0, #52]	@ 0x34
    1fb4:	e0d22001 	sbcs	r2, r2, r1
    1fb8:	3affff4a 	bcc	1ce8 <w2c_0x24coremark0x2Ewasm_prepend_alloc+0x924>
    1fbc:	e5902010 	ldr	r2, [r0, #16]
    1fc0:	e299100c 	adds	r1, r9, #12
    1fc4:	e0822009 	add	r2, r2, r9
    1fc8:	e582900c 	str	r9, [r2, #12]
    1fcc:	e2a82000 	adc	r2, r8, #0
    1fd0:	e5904030 	ldr	r4, [r0, #48]	@ 0x30
    1fd4:	e1540001 	cmp	r4, r1
    1fd8:	e5901034 	ldr	r1, [r0, #52]	@ 0x34
    1fdc:	e0d11002 	sbcs	r1, r1, r2
    1fe0:	3affff40 	bcc	1ce8 <w2c_0x24coremark0x2Ewasm_prepend_alloc+0x924>
    1fe4:	e5902010 	ldr	r2, [r0, #16]
    1fe8:	e0822009 	add	r2, r2, r9
    1fec:	e5829008 	str	r9, [r2, #8]
    1ff0:	eafffd33 	b	14c4 <w2c_0x24coremark0x2Ewasm_prepend_alloc+0x100>
    1ff4:	e3a0000a 	mov	r0, #10
    1ff8:	ebfffffe 	bl	0 <wasm_rt_trap>
    1ffc:	00000c1c 	.word	0x00000c1c
    2000:	00000c1c 	.word	0x00000c1c
    2004:	00000b2c 	.word	0x00000b2c
    2008:	00000b2c 	.word	0x00000b2c

0000200c <w2c_0x24coremark0x2Ewasm_free>:
    200c:	e59f3fb8 	ldr	r3, [pc, #4024]	@ 2fcc <w2c_0x24coremark0x2Ewasm_free+0xfc0>
    2010:	e92d4ff0 	push	{r4, r5, r6, r7, r8, r9, sl, fp, lr}
    2014:	ee1d5f70 	mrc	15, 0, r5, cr13, cr0, {3}
    2018:	e24dd02c 	sub	sp, sp, #44	@ 0x2c
    201c:	e79f3003 	ldr	r3, [pc, r3]
    2020:	e7952003 	ldr	r2, [r5, r3]
    2024:	e2823001 	add	r3, r2, #1
    2028:	e3530f7d 	cmp	r3, #500	@ 0x1f4
    202c:	8a0003ab 	bhi	2ee0 <w2c_0x24coremark0x2Ewasm_free+0xed4>
    2030:	e59f3f98 	ldr	r3, [pc, #3992]	@ 2fd0 <w2c_0x24coremark0x2Ewasm_free+0xfc4>
    2034:	e1a04000 	mov	r4, r0
    2038:	e2820002 	add	r0, r2, #2
    203c:	e79f3003 	ldr	r3, [pc, r3]
    2040:	e7850003 	str	r0, [r5, r3]
    2044:	e30031f5 	movw	r3, #501	@ 0x1f5
    2048:	e1500003 	cmp	r0, r3
    204c:	0a0003a6 	beq	2eec <w2c_0x24coremark0x2Ewasm_free+0xee0>
    2050:	e5946030 	ldr	r6, [r4, #48]	@ 0x30
    2054:	e2413004 	sub	r3, r1, #4
    2058:	e293c004 	adds	ip, r3, #4
    205c:	e5947034 	ldr	r7, [r4, #52]	@ 0x34
    2060:	23a00001 	movcs	r0, #1
    2064:	33a00000 	movcc	r0, #0
    2068:	e156000c 	cmp	r6, ip
    206c:	e0d70000 	sbcs	r0, r7, r0
    2070:	3a00006c 	bcc	2228 <w2c_0x24coremark0x2Ewasm_free+0x21c>
    2074:	e5948010 	ldr	r8, [r4, #16]
    2078:	e2411008 	sub	r1, r1, #8
    207c:	e7983003 	ldr	r3, [r8, r3]
    2080:	e3c39007 	bic	r9, r3, #7
    2084:	e2130001 	ands	r0, r3, #1
    2088:	e081a009 	add	sl, r1, r9
    208c:	1a000040 	bne	2194 <w2c_0x24coremark0x2Ewasm_free+0x188>
    2090:	e3130002 	tst	r3, #2
    2094:	1a000004 	bne	20ac <w2c_0x24coremark0x2Ewasm_free+0xa0>
    2098:	e59f3f34 	ldr	r3, [pc, #3892]	@ 2fd4 <w2c_0x24coremark0x2Ewasm_free+0xfc8>
    209c:	e79f3003 	ldr	r3, [pc, r3]
    20a0:	e7852003 	str	r2, [r5, r3]
    20a4:	e28dd02c 	add	sp, sp, #44	@ 0x2c
    20a8:	e8bd8ff0 	pop	{r4, r5, r6, r7, r8, r9, sl, fp, pc}
    20ac:	e2913004 	adds	r3, r1, #4
    20b0:	e2a00000 	adc	r0, r0, #0
    20b4:	e1560003 	cmp	r6, r3
    20b8:	e0d70000 	sbcs	r0, r7, r0
    20bc:	3a000059 	bcc	2228 <w2c_0x24coremark0x2Ewasm_free+0x21c>
    20c0:	e7980001 	ldr	r0, [r8, r1]
    20c4:	e30039c4 	movw	r3, #2500	@ 0x9c4
    20c8:	e1560003 	cmp	r6, r3
    20cc:	e2d73000 	sbcs	r3, r7, #0
    20d0:	3a000054 	bcc	2228 <w2c_0x24coremark0x2Ewasm_free+0x21c>
    20d4:	e59839c0 	ldr	r3, [r8, #2496]	@ 0x9c0
    20d8:	e0411000 	sub	r1, r1, r0
    20dc:	e1510003 	cmp	r1, r3
    20e0:	3affffec 	bcc	2098 <w2c_0x24coremark0x2Ewasm_free+0x8c>
    20e4:	e30039c8 	movw	r3, #2504	@ 0x9c8
    20e8:	e1560003 	cmp	r6, r3
    20ec:	e2d73000 	sbcs	r3, r7, #0
    20f0:	3a00004c 	bcc	2228 <w2c_0x24coremark0x2Ewasm_free+0x21c>
    20f4:	e59839c4 	ldr	r3, [r8, #2500]	@ 0x9c4
    20f8:	e0899000 	add	r9, r9, r0
    20fc:	e1510003 	cmp	r1, r3
    2100:	0a0001da 	beq	2870 <w2c_0x24coremark0x2Ewasm_free+0x864>
    2104:	e35000ff 	cmp	r0, #255	@ 0xff
    2108:	e3a03000 	mov	r3, #0
    210c:	8a0000ef 	bhi	24d0 <w2c_0x24coremark0x2Ewasm_free+0x4c4>
    2110:	e291c00c 	adds	ip, r1, #12
    2114:	e2a32000 	adc	r2, r3, #0
    2118:	e156000c 	cmp	r6, ip
    211c:	e0d72002 	sbcs	r2, r7, r2
    2120:	3a000040 	bcc	2228 <w2c_0x24coremark0x2Ewasm_free+0x21c>
    2124:	e088e001 	add	lr, r8, r1
    2128:	e59e2008 	ldr	r2, [lr, #8]
    212c:	e291c010 	adds	ip, r1, #16
    2130:	e1a0b00c 	mov	fp, ip
    2134:	e2a3c000 	adc	ip, r3, #0
    2138:	e156000b 	cmp	r6, fp
    213c:	e0d7c00c 	sbcs	ip, r7, ip
    2140:	3a000038 	bcc	2228 <w2c_0x24coremark0x2Ewasm_free+0x21c>
    2144:	e59ec00c 	ldr	ip, [lr, #12]
    2148:	e15c0002 	cmp	ip, r2
    214c:	0a000170 	beq	2714 <w2c_0x24coremark0x2Ewasm_free+0x708>
    2150:	e29ce00c 	adds	lr, ip, #12
    2154:	e2a30000 	adc	r0, r3, #0
    2158:	e156000e 	cmp	r6, lr
    215c:	e0d70000 	sbcs	r0, r7, r0
    2160:	3a000030 	bcc	2228 <w2c_0x24coremark0x2Ewasm_free+0x21c>
    2164:	e088800c 	add	r8, r8, ip
    2168:	e2920010 	adds	r0, r2, #16
    216c:	e2a33000 	adc	r3, r3, #0
    2170:	e5882008 	str	r2, [r8, #8]
    2174:	e594e030 	ldr	lr, [r4, #48]	@ 0x30
    2178:	e15e0000 	cmp	lr, r0
    217c:	e5940034 	ldr	r0, [r4, #52]	@ 0x34
    2180:	e0d00003 	sbcs	r0, r0, r3
    2184:	3a000027 	bcc	2228 <w2c_0x24coremark0x2Ewasm_free+0x21c>
    2188:	e5943010 	ldr	r3, [r4, #16]
    218c:	e0833002 	add	r3, r3, r2
    2190:	e583c00c 	str	ip, [r3, #12]
    2194:	e15a0001 	cmp	sl, r1
    2198:	8a000004 	bhi	21b0 <w2c_0x24coremark0x2Ewasm_free+0x1a4>
    219c:	e59f3e34 	ldr	r3, [pc, #3636]	@ 2fd8 <w2c_0x24coremark0x2Ewasm_free+0xfcc>
    21a0:	e79f3003 	ldr	r3, [pc, r3]
    21a4:	e7952003 	ldr	r2, [r5, r3]
    21a8:	e2422002 	sub	r2, r2, #2
    21ac:	eaffffb9 	b	2098 <w2c_0x24coremark0x2Ewasm_free+0x8c>
    21b0:	e5946030 	ldr	r6, [r4, #48]	@ 0x30
    21b4:	e29a2008 	adds	r2, sl, #8
    21b8:	e5947034 	ldr	r7, [r4, #52]	@ 0x34
    21bc:	e3a00000 	mov	r0, #0
    21c0:	e2a03000 	adc	r3, r0, #0
    21c4:	e1560002 	cmp	r6, r2
    21c8:	e0d73003 	sbcs	r3, r7, r3
    21cc:	3a000015 	bcc	2228 <w2c_0x24coremark0x2Ewasm_free+0x21c>
    21d0:	e5948010 	ldr	r8, [r4, #16]
    21d4:	e28a3004 	add	r3, sl, #4
    21d8:	e088c003 	add	ip, r8, r3
    21dc:	e7983003 	ldr	r3, [r8, r3]
    21e0:	e58d3000 	str	r3, [sp]
    21e4:	e59d3000 	ldr	r3, [sp]
    21e8:	e1e03003 	mvn	r3, r3
    21ec:	e2133001 	ands	r3, r3, #1
    21f0:	1a00000e 	bne	2230 <w2c_0x24coremark0x2Ewasm_free+0x224>
    21f4:	e59d2000 	ldr	r2, [sp]
    21f8:	e212e002 	ands	lr, r2, #2
    21fc:	0a000010 	beq	2244 <w2c_0x24coremark0x2Ewasm_free+0x238>
    2200:	e3c22001 	bic	r2, r2, #1
    2204:	e58c2000 	str	r2, [ip]
    2208:	e0892001 	add	r2, r9, r1
    220c:	e5946030 	ldr	r6, [r4, #48]	@ 0x30
    2210:	e292e004 	adds	lr, r2, #4
    2214:	e5940034 	ldr	r0, [r4, #52]	@ 0x34
    2218:	e2a3c000 	adc	ip, r3, #0
    221c:	e156000e 	cmp	r6, lr
    2220:	e0d0000c 	sbcs	r0, r0, ip
    2224:	2a000031 	bcs	22f0 <w2c_0x24coremark0x2Ewasm_free+0x2e4>
    2228:	e3a00001 	mov	r0, #1
    222c:	ebfffffe 	bl	0 <wasm_rt_trap>
    2230:	e59f3da4 	ldr	r3, [pc, #3492]	@ 2fdc <w2c_0x24coremark0x2Ewasm_free+0xfd0>
    2234:	e79f3003 	ldr	r3, [pc, r3]
    2238:	e7952003 	ldr	r2, [r5, r3]
    223c:	e2422002 	sub	r2, r2, #2
    2240:	eaffff94 	b	2098 <w2c_0x24coremark0x2Ewasm_free+0x8c>
    2244:	e30039cc 	movw	r3, #2508	@ 0x9cc
    2248:	e1560003 	cmp	r6, r3
    224c:	e2d73000 	sbcs	r3, r7, #0
    2250:	3afffff4 	bcc	2228 <w2c_0x24coremark0x2Ewasm_free+0x21c>
    2254:	e59839c8 	ldr	r3, [r8, #2504]	@ 0x9c8
    2258:	e15a0003 	cmp	sl, r3
    225c:	1a000133 	bne	2730 <w2c_0x24coremark0x2Ewasm_free+0x724>
    2260:	e58819c8 	str	r1, [r8, #2504]	@ 0x9c8
    2264:	e5943030 	ldr	r3, [r4, #48]	@ 0x30
    2268:	e3530d27 	cmp	r3, #2496	@ 0x9c0
    226c:	e5943034 	ldr	r3, [r4, #52]	@ 0x34
    2270:	e2d33000 	sbcs	r3, r3, #0
    2274:	3affffeb 	bcc	2228 <w2c_0x24coremark0x2Ewasm_free+0x21c>
    2278:	e5943010 	ldr	r3, [r4, #16]
    227c:	e59329bc 	ldr	r2, [r3, #2492]	@ 0x9bc
    2280:	e0892002 	add	r2, r9, r2
    2284:	e58329bc 	str	r2, [r3, #2492]	@ 0x9bc
    2288:	e291c008 	adds	ip, r1, #8
    228c:	e5946030 	ldr	r6, [r4, #48]	@ 0x30
    2290:	e2ae0000 	adc	r0, lr, #0
    2294:	e5943034 	ldr	r3, [r4, #52]	@ 0x34
    2298:	e156000c 	cmp	r6, ip
    229c:	e0d33000 	sbcs	r3, r3, r0
    22a0:	3affffe0 	bcc	2228 <w2c_0x24coremark0x2Ewasm_free+0x21c>
    22a4:	e5943010 	ldr	r3, [r4, #16]
    22a8:	e3822001 	orr	r2, r2, #1
    22ac:	e0833001 	add	r3, r3, r1
    22b0:	e5832004 	str	r2, [r3, #4]
    22b4:	e30029c8 	movw	r2, #2504	@ 0x9c8
    22b8:	e5940030 	ldr	r0, [r4, #48]	@ 0x30
    22bc:	e5943034 	ldr	r3, [r4, #52]	@ 0x34
    22c0:	e1500002 	cmp	r0, r2
    22c4:	e2d33000 	sbcs	r3, r3, #0
    22c8:	3affffd6 	bcc	2228 <w2c_0x24coremark0x2Ewasm_free+0x21c>
    22cc:	e5940010 	ldr	r0, [r4, #16]
    22d0:	e59039c4 	ldr	r3, [r0, #2500]	@ 0x9c4
    22d4:	e1530001 	cmp	r3, r1
    22d8:	0a0001ac 	beq	2990 <w2c_0x24coremark0x2Ewasm_free+0x984>
    22dc:	e59f3cfc 	ldr	r3, [pc, #3324]	@ 2fe0 <w2c_0x24coremark0x2Ewasm_free+0xfd4>
    22e0:	e79f3003 	ldr	r3, [pc, r3]
    22e4:	e7952003 	ldr	r2, [r5, r3]
    22e8:	e2422002 	sub	r2, r2, #2
    22ec:	eaffff69 	b	2098 <w2c_0x24coremark0x2Ewasm_free+0x8c>
    22f0:	e5940010 	ldr	r0, [r4, #16]
    22f4:	e7809002 	str	r9, [r0, r2]
    22f8:	e2912008 	adds	r2, r1, #8
    22fc:	e2a30000 	adc	r0, r3, #0
    2300:	e594c030 	ldr	ip, [r4, #48]	@ 0x30
    2304:	e15c0002 	cmp	ip, r2
    2308:	e5942034 	ldr	r2, [r4, #52]	@ 0x34
    230c:	e0d22000 	sbcs	r2, r2, r0
    2310:	3affffc4 	bcc	2228 <w2c_0x24coremark0x2Ewasm_free+0x21c>
    2314:	e5942010 	ldr	r2, [r4, #16]
    2318:	e3890001 	orr	r0, r9, #1
    231c:	e35900ff 	cmp	r9, #255	@ 0xff
    2320:	e0822001 	add	r2, r2, r1
    2324:	e5820004 	str	r0, [r2, #4]
    2328:	e5940030 	ldr	r0, [r4, #48]	@ 0x30
    232c:	e594c034 	ldr	ip, [r4, #52]	@ 0x34
    2330:	9a0000b8 	bls	2618 <w2c_0x24coremark0x2Ewasm_free+0x60c>
    2334:	e3590401 	cmp	r9, #16777216	@ 0x1000000
    2338:	2a0001a1 	bcs	29c4 <w2c_0x24coremark0x2Ewasm_free+0x9b8>
    233c:	e1a02429 	lsr	r2, r9, #8
    2340:	e16f2f12 	clz	r2, r2
    2344:	e262e026 	rsb	lr, r2, #38	@ 0x26
    2348:	e1a02082 	lsl	r2, r2, #1
    234c:	e1a0ee39 	lsr	lr, r9, lr
    2350:	e262203e 	rsb	r2, r2, #62	@ 0x3e
    2354:	e20ee001 	and	lr, lr, #1
    2358:	e082200e 	add	r2, r2, lr
    235c:	e2916020 	adds	r6, r1, #32
    2360:	e2a3e000 	adc	lr, r3, #0
    2364:	e1500006 	cmp	r0, r6
    2368:	e0dce00e 	sbcs	lr, ip, lr
    236c:	3affffad 	bcc	2228 <w2c_0x24coremark0x2Ewasm_free+0x21c>
    2370:	e5940010 	ldr	r0, [r4, #16]
    2374:	e0800001 	add	r0, r0, r1
    2378:	e580201c 	str	r2, [r0, #28]
    237c:	e2910018 	adds	r0, r1, #24
    2380:	e2a3c000 	adc	ip, r3, #0
    2384:	e594e030 	ldr	lr, [r4, #48]	@ 0x30
    2388:	e15e0000 	cmp	lr, r0
    238c:	e5940034 	ldr	r0, [r4, #52]	@ 0x34
    2390:	e0d0000c 	sbcs	r0, r0, ip
    2394:	3affffa3 	bcc	2228 <w2c_0x24coremark0x2Ewasm_free+0x21c>
    2398:	e5940010 	ldr	r0, [r4, #16]
    239c:	e3a0c000 	mov	ip, #0
    23a0:	e30079b8 	movw	r7, #2488	@ 0x9b8
    23a4:	e0800001 	add	r0, r0, r1
    23a8:	e580c010 	str	ip, [r0, #16]
    23ac:	e580c014 	str	ip, [r0, #20]
    23b0:	e594c030 	ldr	ip, [r4, #48]	@ 0x30
    23b4:	e5940034 	ldr	r0, [r4, #52]	@ 0x34
    23b8:	e15c0007 	cmp	ip, r7
    23bc:	e2d0e000 	sbcs	lr, r0, #0
    23c0:	3affff98 	bcc	2228 <w2c_0x24coremark0x2Ewasm_free+0x21c>
    23c4:	e594e010 	ldr	lr, [r4, #16]
    23c8:	e1a06102 	lsl	r6, r2, #2
    23cc:	e286beae 	add	fp, r6, #2784	@ 0xae0
    23d0:	e59ea9b4 	ldr	sl, [lr, #2484]	@ 0x9b4
    23d4:	e3a08001 	mov	r8, #1
    23d8:	e28b6004 	add	r6, fp, #4
    23dc:	e1a08218 	lsl	r8, r8, r2
    23e0:	e118000a 	tst	r8, sl
    23e4:	1a0001c4 	bne	2afc <w2c_0x24coremark0x2Ewasm_free+0xaf0>
    23e8:	e15c0006 	cmp	ip, r6
    23ec:	e2d00000 	sbcs	r0, r0, #0
    23f0:	3a000165 	bcc	298c <w2c_0x24coremark0x2Ewasm_free+0x980>
    23f4:	e78e100b 	str	r1, [lr, fp]
    23f8:	e5942030 	ldr	r2, [r4, #48]	@ 0x30
    23fc:	e1520007 	cmp	r2, r7
    2400:	e5942034 	ldr	r2, [r4, #52]	@ 0x34
    2404:	e2d22000 	sbcs	r2, r2, #0
    2408:	3a00015f 	bcc	298c <w2c_0x24coremark0x2Ewasm_free+0x980>
    240c:	e5942010 	ldr	r2, [r4, #16]
    2410:	e188800a 	orr	r8, r8, sl
    2414:	e58289b4 	str	r8, [r2, #2484]	@ 0x9b4
    2418:	e291201c 	adds	r2, r1, #28
    241c:	e2a30000 	adc	r0, r3, #0
    2420:	e594c030 	ldr	ip, [r4, #48]	@ 0x30
    2424:	e15c0002 	cmp	ip, r2
    2428:	e5942034 	ldr	r2, [r4, #52]	@ 0x34
    242c:	e0d22000 	sbcs	r2, r2, r0
    2430:	3a000155 	bcc	298c <w2c_0x24coremark0x2Ewasm_free+0x980>
    2434:	e5942010 	ldr	r2, [r4, #16]
    2438:	e0822001 	add	r2, r2, r1
    243c:	e582b018 	str	fp, [r2, #24]
    2440:	e291200c 	adds	r2, r1, #12
    2444:	e2a30000 	adc	r0, r3, #0
    2448:	e594c030 	ldr	ip, [r4, #48]	@ 0x30
    244c:	e15c0002 	cmp	ip, r2
    2450:	e5942034 	ldr	r2, [r4, #52]	@ 0x34
    2454:	e0d22000 	sbcs	r2, r2, r0
    2458:	3a00014b 	bcc	298c <w2c_0x24coremark0x2Ewasm_free+0x980>
    245c:	e5942010 	ldr	r2, [r4, #16]
    2460:	e0822001 	add	r2, r2, r1
    2464:	e5821008 	str	r1, [r2, #8]
    2468:	e2912010 	adds	r2, r1, #16
    246c:	e2a33000 	adc	r3, r3, #0
    2470:	e5940030 	ldr	r0, [r4, #48]	@ 0x30
    2474:	e1500002 	cmp	r0, r2
    2478:	e5942034 	ldr	r2, [r4, #52]	@ 0x34
    247c:	e0d22003 	sbcs	r2, r2, r3
    2480:	3a000141 	bcc	298c <w2c_0x24coremark0x2Ewasm_free+0x980>
    2484:	e5943010 	ldr	r3, [r4, #16]
    2488:	e0833001 	add	r3, r3, r1
    248c:	e583100c 	str	r1, [r3, #12]
    2490:	e5941030 	ldr	r1, [r4, #48]	@ 0x30
    2494:	e30029d4 	movw	r2, #2516	@ 0x9d4
    2498:	e5943034 	ldr	r3, [r4, #52]	@ 0x34
    249c:	e1510002 	cmp	r1, r2
    24a0:	e2d33000 	sbcs	r3, r3, #0
    24a4:	3affff5f 	bcc	2228 <w2c_0x24coremark0x2Ewasm_free+0x21c>
    24a8:	e5941010 	ldr	r1, [r4, #16]
    24ac:	e59139d0 	ldr	r3, [r1, #2512]	@ 0x9d0
    24b0:	e59f2b2c 	ldr	r2, [pc, #2860]	@ 2fe4 <w2c_0x24coremark0x2Ewasm_free+0xfd8>
    24b4:	e2533001 	subs	r3, r3, #1
    24b8:	03e03000 	mvneq	r3, #0
    24bc:	e58139d0 	str	r3, [r1, #2512]	@ 0x9d0
    24c0:	e79f2002 	ldr	r2, [pc, r2]
    24c4:	e7952002 	ldr	r2, [r5, r2]
    24c8:	e2422002 	sub	r2, r2, #2
    24cc:	eafffef1 	b	2098 <w2c_0x24coremark0x2Ewasm_free+0x8c>
    24d0:	e291001c 	adds	r0, r1, #28
    24d4:	e2a32000 	adc	r2, r3, #0
    24d8:	e1560000 	cmp	r6, r0
    24dc:	e0d72002 	sbcs	r2, r7, r2
    24e0:	3affff50 	bcc	2228 <w2c_0x24coremark0x2Ewasm_free+0x21c>
    24e4:	e088c001 	add	ip, r8, r1
    24e8:	e59c0018 	ldr	r0, [ip, #24]
    24ec:	e291e010 	adds	lr, r1, #16
    24f0:	e2a32000 	adc	r2, r3, #0
    24f4:	e156000e 	cmp	r6, lr
    24f8:	e0d72002 	sbcs	r2, r7, r2
    24fc:	3affff49 	bcc	2228 <w2c_0x24coremark0x2Ewasm_free+0x21c>
    2500:	e59c200c 	ldr	r2, [ip, #12]
    2504:	e1510002 	cmp	r1, r2
    2508:	0a0000e8 	beq	28b0 <w2c_0x24coremark0x2Ewasm_free+0x8a4>
    250c:	e291e00c 	adds	lr, r1, #12
    2510:	e1a0b00e 	mov	fp, lr
    2514:	e2a3e000 	adc	lr, r3, #0
    2518:	e156000b 	cmp	r6, fp
    251c:	e0d7e00e 	sbcs	lr, r7, lr
    2520:	3affff40 	bcc	2228 <w2c_0x24coremark0x2Ewasm_free+0x21c>
    2524:	e59cc008 	ldr	ip, [ip, #8]
    2528:	e292e00c 	adds	lr, r2, #12
    252c:	e1a0b00e 	mov	fp, lr
    2530:	e2a3e000 	adc	lr, r3, #0
    2534:	e156000b 	cmp	r6, fp
    2538:	e0d7e00e 	sbcs	lr, r7, lr
    253c:	3affff39 	bcc	2228 <w2c_0x24coremark0x2Ewasm_free+0x21c>
    2540:	e0888002 	add	r8, r8, r2
    2544:	e29ce010 	adds	lr, ip, #16
    2548:	e2a36000 	adc	r6, r3, #0
    254c:	e588c008 	str	ip, [r8, #8]
    2550:	e5947030 	ldr	r7, [r4, #48]	@ 0x30
    2554:	e157000e 	cmp	r7, lr
    2558:	e594e034 	ldr	lr, [r4, #52]	@ 0x34
    255c:	e0dee006 	sbcs	lr, lr, r6
    2560:	3affff30 	bcc	2228 <w2c_0x24coremark0x2Ewasm_free+0x21c>
    2564:	e594e010 	ldr	lr, [r4, #16]
    2568:	e08ec00c 	add	ip, lr, ip
    256c:	e58c200c 	str	r2, [ip, #12]
    2570:	e3500000 	cmp	r0, #0
    2574:	0affff06 	beq	2194 <w2c_0x24coremark0x2Ewasm_free+0x188>
    2578:	e5947030 	ldr	r7, [r4, #48]	@ 0x30
    257c:	e291e020 	adds	lr, r1, #32
    2580:	e5946034 	ldr	r6, [r4, #52]	@ 0x34
    2584:	e2a3c000 	adc	ip, r3, #0
    2588:	e157000e 	cmp	r7, lr
    258c:	e0d6c00c 	sbcs	ip, r6, ip
    2590:	3affff24 	bcc	2228 <w2c_0x24coremark0x2Ewasm_free+0x21c>
    2594:	e594e010 	ldr	lr, [r4, #16]
    2598:	e08ec001 	add	ip, lr, r1
    259c:	e59cc01c 	ldr	ip, [ip, #28]
    25a0:	e58dc000 	str	ip, [sp]
    25a4:	e1a0c10c 	lsl	ip, ip, #2
    25a8:	e28cceae 	add	ip, ip, #2784	@ 0xae0
    25ac:	e29cb004 	adds	fp, ip, #4
    25b0:	23a08001 	movcs	r8, #1
    25b4:	33a08000 	movcc	r8, #0
    25b8:	e157000b 	cmp	r7, fp
    25bc:	e0d68008 	sbcs	r8, r6, r8
    25c0:	3affff18 	bcc	2228 <w2c_0x24coremark0x2Ewasm_free+0x21c>
    25c4:	e79e800c 	ldr	r8, [lr, ip]
    25c8:	e1510008 	cmp	r1, r8
    25cc:	1a000176 	bne	2bac <w2c_0x24coremark0x2Ewasm_free+0xba0>
    25d0:	e3520000 	cmp	r2, #0
    25d4:	e78e200c 	str	r2, [lr, ip]
    25d8:	1a000187 	bne	2bfc <w2c_0x24coremark0x2Ewasm_free+0xbf0>
    25dc:	e5940030 	ldr	r0, [r4, #48]	@ 0x30
    25e0:	e30029b8 	movw	r2, #2488	@ 0x9b8
    25e4:	e5943034 	ldr	r3, [r4, #52]	@ 0x34
    25e8:	e1500002 	cmp	r0, r2
    25ec:	e2d33000 	sbcs	r3, r3, #0
    25f0:	3affff0c 	bcc	2228 <w2c_0x24coremark0x2Ewasm_free+0x21c>
    25f4:	e5940010 	ldr	r0, [r4, #16]
    25f8:	e59029b4 	ldr	r2, [r0, #2484]	@ 0x9b4
    25fc:	e59d3000 	ldr	r3, [sp]
    2600:	e3e0c001 	mvn	ip, #1
    2604:	e203301f 	and	r3, r3, #31
    2608:	e2633020 	rsb	r3, r3, #32
    260c:	e002237c 	and	r2, r2, ip, ror r3
    2610:	e58029b4 	str	r2, [r0, #2484]	@ 0x9b4
    2614:	eafffede 	b	2194 <w2c_0x24coremark0x2Ewasm_free+0x188>
    2618:	e30039b4 	movw	r3, #2484	@ 0x9b4
    261c:	e1500003 	cmp	r0, r3
    2620:	e2dc3000 	sbcs	r3, ip, #0
    2624:	3afffeff 	bcc	2228 <w2c_0x24coremark0x2Ewasm_free+0x21c>
    2628:	e3c9e007 	bic	lr, r9, #7
    262c:	e5947010 	ldr	r7, [r4, #16]
    2630:	e28e2e9d 	add	r2, lr, #2512	@ 0x9d0
    2634:	e2822008 	add	r2, r2, #8
    2638:	e59769b0 	ldr	r6, [r7, #2480]	@ 0x9b0
    263c:	e3a03001 	mov	r3, #1
    2640:	e1a091a9 	lsr	r9, r9, #3
    2644:	e1a03913 	lsl	r3, r3, r9
    2648:	e1130006 	tst	r3, r6
    264c:	1a00014e 	bne	2b8c <w2c_0x24coremark0x2Ewasm_free+0xb80>
    2650:	e1833006 	orr	r3, r3, r6
    2654:	e58739b0 	str	r3, [r7, #2480]	@ 0x9b0
    2658:	e1a03002 	mov	r3, r2
    265c:	e5940030 	ldr	r0, [r4, #48]	@ 0x30
    2660:	e594c034 	ldr	ip, [r4, #52]	@ 0x34
    2664:	e2938010 	adds	r8, r3, #16
    2668:	e3a06000 	mov	r6, #0
    266c:	e2a67000 	adc	r7, r6, #0
    2670:	e1500008 	cmp	r0, r8
    2674:	e0dc7007 	sbcs	r7, ip, r7
    2678:	3afffeea 	bcc	2228 <w2c_0x24coremark0x2Ewasm_free+0x21c>
    267c:	e5940010 	ldr	r0, [r4, #16]
    2680:	e0800003 	add	r0, r0, r3
    2684:	e580100c 	str	r1, [r0, #12]
    2688:	e28e0e9e 	add	r0, lr, #2528	@ 0x9e0
    268c:	e2800004 	add	r0, r0, #4
    2690:	e594c030 	ldr	ip, [r4, #48]	@ 0x30
    2694:	e15c0000 	cmp	ip, r0
    2698:	e5940034 	ldr	r0, [r4, #52]	@ 0x34
    269c:	e2d00000 	sbcs	r0, r0, #0
    26a0:	3afffee0 	bcc	2228 <w2c_0x24coremark0x2Ewasm_free+0x21c>
    26a4:	e5940010 	ldr	r0, [r4, #16]
    26a8:	e080000e 	add	r0, r0, lr
    26ac:	e58019e0 	str	r1, [r0, #2528]	@ 0x9e0
    26b0:	e2910010 	adds	r0, r1, #16
    26b4:	e2a6c000 	adc	ip, r6, #0
    26b8:	e594e030 	ldr	lr, [r4, #48]	@ 0x30
    26bc:	e15e0000 	cmp	lr, r0
    26c0:	e5940034 	ldr	r0, [r4, #52]	@ 0x34
    26c4:	e0d0000c 	sbcs	r0, r0, ip
    26c8:	3afffed6 	bcc	2228 <w2c_0x24coremark0x2Ewasm_free+0x21c>
    26cc:	e5940010 	ldr	r0, [r4, #16]
    26d0:	e0800001 	add	r0, r0, r1
    26d4:	e580200c 	str	r2, [r0, #12]
    26d8:	e291000c 	adds	r0, r1, #12
    26dc:	e2a62000 	adc	r2, r6, #0
    26e0:	e594c030 	ldr	ip, [r4, #48]	@ 0x30
    26e4:	e15c0000 	cmp	ip, r0
    26e8:	e5940034 	ldr	r0, [r4, #52]	@ 0x34
    26ec:	e0d00002 	sbcs	r0, r0, r2
    26f0:	3a0000a5 	bcc	298c <w2c_0x24coremark0x2Ewasm_free+0x980>
    26f4:	e5940010 	ldr	r0, [r4, #16]
    26f8:	e59f28e8 	ldr	r2, [pc, #2280]	@ 2fe8 <w2c_0x24coremark0x2Ewasm_free+0xfdc>
    26fc:	e0801001 	add	r1, r0, r1
    2700:	e5813008 	str	r3, [r1, #8]
    2704:	e79f2002 	ldr	r2, [pc, r2]
    2708:	e7952002 	ldr	r2, [r5, r2]
    270c:	e2422002 	sub	r2, r2, #2
    2710:	eafffe60 	b	2098 <w2c_0x24coremark0x2Ewasm_free+0x8c>
    2714:	e59829b0 	ldr	r2, [r8, #2480]	@ 0x9b0
    2718:	e1a031a0 	lsr	r3, r0, #3
    271c:	e3e00001 	mvn	r0, #1
    2720:	e2633020 	rsb	r3, r3, #32
    2724:	e0022370 	and	r2, r2, r0, ror r3
    2728:	e58829b0 	str	r2, [r8, #2480]	@ 0x9b0
    272c:	eafffe98 	b	2194 <w2c_0x24coremark0x2Ewasm_free+0x188>
    2730:	e59839c4 	ldr	r3, [r8, #2500]	@ 0x9c4
    2734:	e15a0003 	cmp	sl, r3
    2738:	0a0000a3 	beq	29cc <w2c_0x24coremark0x2Ewasm_free+0x9c0>
    273c:	e59d3000 	ldr	r3, [sp]
    2740:	e35300ff 	cmp	r3, #255	@ 0xff
    2744:	8a000174 	bhi	2d1c <w2c_0x24coremark0x2Ewasm_free+0xd10>
    2748:	e29a200c 	adds	r2, sl, #12
    274c:	e2a03000 	adc	r3, r0, #0
    2750:	e1560002 	cmp	r6, r2
    2754:	e0d73003 	sbcs	r3, r7, r3
    2758:	3afffeb2 	bcc	2228 <w2c_0x24coremark0x2Ewasm_free+0x21c>
    275c:	e088300a 	add	r3, r8, sl
    2760:	e5932008 	ldr	r2, [r3, #8]
    2764:	e29aa010 	adds	sl, sl, #16
    2768:	e2a00000 	adc	r0, r0, #0
    276c:	e156000a 	cmp	r6, sl
    2770:	e0d70000 	sbcs	r0, r7, r0
    2774:	3afffeab 	bcc	2228 <w2c_0x24coremark0x2Ewasm_free+0x21c>
    2778:	e593300c 	ldr	r3, [r3, #12]
    277c:	e1530002 	cmp	r3, r2
    2780:	0a0001ce 	beq	2ec0 <w2c_0x24coremark0x2Ewasm_free+0xeb4>
    2784:	e293000c 	adds	r0, r3, #12
    2788:	e2aee000 	adc	lr, lr, #0
    278c:	e1560000 	cmp	r6, r0
    2790:	e0d7e00e 	sbcs	lr, r7, lr
    2794:	3a00007c 	bcc	298c <w2c_0x24coremark0x2Ewasm_free+0x980>
    2798:	e0888003 	add	r8, r8, r3
    279c:	e2920010 	adds	r0, r2, #16
    27a0:	23a0c001 	movcs	ip, #1
    27a4:	33a0c000 	movcc	ip, #0
    27a8:	e5882008 	str	r2, [r8, #8]
    27ac:	e594e030 	ldr	lr, [r4, #48]	@ 0x30
    27b0:	e15e0000 	cmp	lr, r0
    27b4:	e5940034 	ldr	r0, [r4, #52]	@ 0x34
    27b8:	e0d0000c 	sbcs	r0, r0, ip
    27bc:	3a000072 	bcc	298c <w2c_0x24coremark0x2Ewasm_free+0x980>
    27c0:	e5940010 	ldr	r0, [r4, #16]
    27c4:	e0802002 	add	r2, r0, r2
    27c8:	e582300c 	str	r3, [r2, #12]
    27cc:	e59d3000 	ldr	r3, [sp]
    27d0:	e5946030 	ldr	r6, [r4, #48]	@ 0x30
    27d4:	e3c33007 	bic	r3, r3, #7
    27d8:	e5940034 	ldr	r0, [r4, #52]	@ 0x34
    27dc:	e0899003 	add	r9, r9, r3
    27e0:	e3a03000 	mov	r3, #0
    27e4:	e0892001 	add	r2, r9, r1
    27e8:	e292e004 	adds	lr, r2, #4
    27ec:	e2a3c000 	adc	ip, r3, #0
    27f0:	e156000e 	cmp	r6, lr
    27f4:	e0d0000c 	sbcs	r0, r0, ip
    27f8:	3a000063 	bcc	298c <w2c_0x24coremark0x2Ewasm_free+0x980>
    27fc:	e5940010 	ldr	r0, [r4, #16]
    2800:	e7809002 	str	r9, [r0, r2]
    2804:	e2912008 	adds	r2, r1, #8
    2808:	e2a30000 	adc	r0, r3, #0
    280c:	e594c030 	ldr	ip, [r4, #48]	@ 0x30
    2810:	e15c0002 	cmp	ip, r2
    2814:	e5942034 	ldr	r2, [r4, #52]	@ 0x34
    2818:	e0d22000 	sbcs	r2, r2, r0
    281c:	3a00005a 	bcc	298c <w2c_0x24coremark0x2Ewasm_free+0x980>
    2820:	e5942010 	ldr	r2, [r4, #16]
    2824:	e3890001 	orr	r0, r9, #1
    2828:	e0822001 	add	r2, r2, r1
    282c:	e5820004 	str	r0, [r2, #4]
    2830:	e30029c8 	movw	r2, #2504	@ 0x9c8
    2834:	e5940030 	ldr	r0, [r4, #48]	@ 0x30
    2838:	e594c034 	ldr	ip, [r4, #52]	@ 0x34
    283c:	e1500002 	cmp	r0, r2
    2840:	e2dc2000 	sbcs	r2, ip, #0
    2844:	3afffe77 	bcc	2228 <w2c_0x24coremark0x2Ewasm_free+0x21c>
    2848:	e5947010 	ldr	r7, [r4, #16]
    284c:	e59729c4 	ldr	r2, [r7, #2500]	@ 0x9c4
    2850:	e1510002 	cmp	r1, r2
    2854:	1a000193 	bne	2ea8 <w2c_0x24coremark0x2Ewasm_free+0xe9c>
    2858:	e59f378c 	ldr	r3, [pc, #1932]	@ 2fec <w2c_0x24coremark0x2Ewasm_free+0xfe0>
    285c:	e58799b8 	str	r9, [r7, #2488]	@ 0x9b8
    2860:	e79f3003 	ldr	r3, [pc, r3]
    2864:	e7952003 	ldr	r2, [r5, r3]
    2868:	e2422002 	sub	r2, r2, #2
    286c:	eafffe09 	b	2098 <w2c_0x24coremark0x2Ewasm_free+0x8c>
    2870:	e29ac008 	adds	ip, sl, #8
    2874:	e3a00000 	mov	r0, #0
    2878:	e2a03000 	adc	r3, r0, #0
    287c:	e156000c 	cmp	r6, ip
    2880:	e0d73003 	sbcs	r3, r7, r3
    2884:	3afffe67 	bcc	2228 <w2c_0x24coremark0x2Ewasm_free+0x21c>
    2888:	e28a3004 	add	r3, sl, #4
    288c:	e088c003 	add	ip, r8, r3
    2890:	e798e003 	ldr	lr, [r8, r3]
    2894:	e58de000 	str	lr, [sp]
    2898:	e20ee003 	and	lr, lr, #3
    289c:	e35e0003 	cmp	lr, #3
    28a0:	0a00006e 	beq	2a60 <w2c_0x24coremark0x2Ewasm_free+0xa54>
    28a4:	e15a0001 	cmp	sl, r1
    28a8:	9afffdfa 	bls	2098 <w2c_0x24coremark0x2Ewasm_free+0x8c>
    28ac:	eafffe4c 	b	21e4 <w2c_0x24coremark0x2Ewasm_free+0x1d8>
    28b0:	e281c014 	add	ip, r1, #20
    28b4:	e29c2004 	adds	r2, ip, #4
    28b8:	e1a0b002 	mov	fp, r2
    28bc:	e2a32000 	adc	r2, r3, #0
    28c0:	e156000b 	cmp	r6, fp
    28c4:	e0d72002 	sbcs	r2, r7, r2
    28c8:	3afffe56 	bcc	2228 <w2c_0x24coremark0x2Ewasm_free+0x21c>
    28cc:	e798200c 	ldr	r2, [r8, ip]
    28d0:	e3520000 	cmp	r2, #0
    28d4:	1a000008 	bne	28fc <w2c_0x24coremark0x2Ewasm_free+0x8f0>
    28d8:	e291b014 	adds	fp, r1, #20
    28dc:	e2a22000 	adc	r2, r2, #0
    28e0:	e156000c 	cmp	r6, ip
    28e4:	e0d72002 	sbcs	r2, r7, r2
    28e8:	3afffe4e 	bcc	2228 <w2c_0x24coremark0x2Ewasm_free+0x21c>
    28ec:	e798200e 	ldr	r2, [r8, lr]
    28f0:	e1a0c00e 	mov	ip, lr
    28f4:	e3520000 	cmp	r2, #0
    28f8:	0affff1c 	beq	2570 <w2c_0x24coremark0x2Ewasm_free+0x564>
    28fc:	e1a0b001 	mov	fp, r1
    2900:	e1a0100c 	mov	r1, ip
    2904:	e58d0000 	str	r0, [sp]
    2908:	e1a00001 	mov	r0, r1
    290c:	e1a0e002 	mov	lr, r2
    2910:	e28e2014 	add	r2, lr, #20
    2914:	e292c004 	adds	ip, r2, #4
    2918:	23a01001 	movcs	r1, #1
    291c:	33a01000 	movcc	r1, #0
    2920:	e156000c 	cmp	r6, ip
    2924:	e0d71001 	sbcs	r1, r7, r1
    2928:	3afffe3e 	bcc	2228 <w2c_0x24coremark0x2Ewasm_free+0x21c>
    292c:	e7981002 	ldr	r1, [r8, r2]
    2930:	e3510000 	cmp	r1, #0
    2934:	1a00006d 	bne	2af0 <w2c_0x24coremark0x2Ewasm_free+0xae4>
    2938:	e29ec014 	adds	ip, lr, #20
    293c:	e2a11000 	adc	r1, r1, #0
    2940:	e1560002 	cmp	r6, r2
    2944:	e0d71001 	sbcs	r1, r7, r1
    2948:	3afffe36 	bcc	2228 <w2c_0x24coremark0x2Ewasm_free+0x21c>
    294c:	e28e1010 	add	r1, lr, #16
    2950:	e7982001 	ldr	r2, [r8, r1]
    2954:	e3520000 	cmp	r2, #0
    2958:	1affffea 	bne	2908 <w2c_0x24coremark0x2Ewasm_free+0x8fc>
    295c:	e290c004 	adds	ip, r0, #4
    2960:	e1a0100b 	mov	r1, fp
    2964:	e1a0b00c 	mov	fp, ip
    2968:	e2a2c000 	adc	ip, r2, #0
    296c:	e156000b 	cmp	r6, fp
    2970:	e58d0004 	str	r0, [sp, #4]
    2974:	e0d7c00c 	sbcs	ip, r7, ip
    2978:	e59d0000 	ldr	r0, [sp]
    297c:	259dc004 	ldrcs	ip, [sp, #4]
    2980:	2788200c 	strcs	r2, [r8, ip]
    2984:	21a0200e 	movcs	r2, lr
    2988:	2afffef8 	bcs	2570 <w2c_0x24coremark0x2Ewasm_free+0x564>
    298c:	ebfff5d0 	bl	d4 <f64_store_default32.part.0>
    2990:	e580e9b8 	str	lr, [r0, #2488]	@ 0x9b8
    2994:	e5943030 	ldr	r3, [r4, #48]	@ 0x30
    2998:	e1530002 	cmp	r3, r2
    299c:	e5943034 	ldr	r3, [r4, #52]	@ 0x34
    29a0:	e2d33000 	sbcs	r3, r3, #0
    29a4:	3afffff8 	bcc	298c <w2c_0x24coremark0x2Ewasm_free+0x980>
    29a8:	e5942010 	ldr	r2, [r4, #16]
    29ac:	e59f363c 	ldr	r3, [pc, #1596]	@ 2ff0 <w2c_0x24coremark0x2Ewasm_free+0xfe4>
    29b0:	e582e9c4 	str	lr, [r2, #2500]	@ 0x9c4
    29b4:	e79f3003 	ldr	r3, [pc, r3]
    29b8:	e7952003 	ldr	r2, [r5, r3]
    29bc:	e2422002 	sub	r2, r2, #2
    29c0:	eafffdb4 	b	2098 <w2c_0x24coremark0x2Ewasm_free+0x8c>
    29c4:	e3a0201f 	mov	r2, #31
    29c8:	eafffe63 	b	235c <w2c_0x24coremark0x2Ewasm_free+0x350>
    29cc:	e58819c4 	str	r1, [r8, #2500]	@ 0x9c4
    29d0:	e30039bc 	movw	r3, #2492	@ 0x9bc
    29d4:	e5942030 	ldr	r2, [r4, #48]	@ 0x30
    29d8:	e1520003 	cmp	r2, r3
    29dc:	e5943034 	ldr	r3, [r4, #52]	@ 0x34
    29e0:	e2d33000 	sbcs	r3, r3, #0
    29e4:	3afffe0f 	bcc	2228 <w2c_0x24coremark0x2Ewasm_free+0x21c>
    29e8:	e5942010 	ldr	r2, [r4, #16]
    29ec:	e59239b8 	ldr	r3, [r2, #2488]	@ 0x9b8
    29f0:	e0893003 	add	r3, r9, r3
    29f4:	e58239b8 	str	r3, [r2, #2488]	@ 0x9b8
    29f8:	e291c008 	adds	ip, r1, #8
    29fc:	e5946030 	ldr	r6, [r4, #48]	@ 0x30
    2a00:	e2ae0000 	adc	r0, lr, #0
    2a04:	e5942034 	ldr	r2, [r4, #52]	@ 0x34
    2a08:	e156000c 	cmp	r6, ip
    2a0c:	e0d22000 	sbcs	r2, r2, r0
    2a10:	3affffdd 	bcc	298c <w2c_0x24coremark0x2Ewasm_free+0x980>
    2a14:	e5942010 	ldr	r2, [r4, #16]
    2a18:	e3830001 	orr	r0, r3, #1
    2a1c:	e0822001 	add	r2, r2, r1
    2a20:	e0831001 	add	r1, r3, r1
    2a24:	e5820004 	str	r0, [r2, #4]
    2a28:	e2912004 	adds	r2, r1, #4
    2a2c:	e2aee000 	adc	lr, lr, #0
    2a30:	e5940030 	ldr	r0, [r4, #48]	@ 0x30
    2a34:	e1500002 	cmp	r0, r2
    2a38:	e5942034 	ldr	r2, [r4, #52]	@ 0x34
    2a3c:	e0d2200e 	sbcs	r2, r2, lr
    2a40:	3affffd1 	bcc	298c <w2c_0x24coremark0x2Ewasm_free+0x980>
    2a44:	e5940010 	ldr	r0, [r4, #16]
    2a48:	e59f25a4 	ldr	r2, [pc, #1444]	@ 2ff4 <w2c_0x24coremark0x2Ewasm_free+0xfe8>
    2a4c:	e7803001 	str	r3, [r0, r1]
    2a50:	e79f2002 	ldr	r2, [pc, r2]
    2a54:	e7952002 	ldr	r2, [r5, r2]
    2a58:	e2422002 	sub	r2, r2, #2
    2a5c:	eafffd8d 	b	2098 <w2c_0x24coremark0x2Ewasm_free+0x8c>
    2a60:	e59d2000 	ldr	r2, [sp]
    2a64:	e3c22001 	bic	r2, r2, #1
    2a68:	e7882003 	str	r2, [r8, r3]
    2a6c:	e30029bc 	movw	r2, #2492	@ 0x9bc
    2a70:	e594c030 	ldr	ip, [r4, #48]	@ 0x30
    2a74:	e15c0002 	cmp	ip, r2
    2a78:	e5942034 	ldr	r2, [r4, #52]	@ 0x34
    2a7c:	e2d22000 	sbcs	r2, r2, #0
    2a80:	3affffc1 	bcc	298c <w2c_0x24coremark0x2Ewasm_free+0x980>
    2a84:	e29a2004 	adds	r2, sl, #4
    2a88:	e5942010 	ldr	r2, [r4, #16]
    2a8c:	e58299b8 	str	r9, [r2, #2488]	@ 0x9b8
    2a90:	e2a02000 	adc	r2, r0, #0
    2a94:	e594c030 	ldr	ip, [r4, #48]	@ 0x30
    2a98:	e15c0003 	cmp	ip, r3
    2a9c:	e5943034 	ldr	r3, [r4, #52]	@ 0x34
    2aa0:	e0d33002 	sbcs	r3, r3, r2
    2aa4:	3affffb8 	bcc	298c <w2c_0x24coremark0x2Ewasm_free+0x980>
    2aa8:	e5943010 	ldr	r3, [r4, #16]
    2aac:	e783900a 	str	r9, [r3, sl]
    2ab0:	e2913008 	adds	r3, r1, #8
    2ab4:	e2a00000 	adc	r0, r0, #0
    2ab8:	e5942030 	ldr	r2, [r4, #48]	@ 0x30
    2abc:	e1520003 	cmp	r2, r3
    2ac0:	e5943034 	ldr	r3, [r4, #52]	@ 0x34
    2ac4:	e0d33000 	sbcs	r3, r3, r0
    2ac8:	3affffaf 	bcc	298c <w2c_0x24coremark0x2Ewasm_free+0x980>
    2acc:	e5942010 	ldr	r2, [r4, #16]
    2ad0:	e3899001 	orr	r9, r9, #1
    2ad4:	e59f351c 	ldr	r3, [pc, #1308]	@ 2ff8 <w2c_0x24coremark0x2Ewasm_free+0xfec>
    2ad8:	e0822001 	add	r2, r2, r1
    2adc:	e5829004 	str	r9, [r2, #4]
    2ae0:	e79f3003 	ldr	r3, [pc, r3]
    2ae4:	e7952003 	ldr	r2, [r5, r3]
    2ae8:	e2422002 	sub	r2, r2, #2
    2aec:	eafffd69 	b	2098 <w2c_0x24coremark0x2Ewasm_free+0x8c>
    2af0:	e1a00002 	mov	r0, r2
    2af4:	e1a0e001 	mov	lr, r1
    2af8:	eaffff84 	b	2910 <w2c_0x24coremark0x2Ewasm_free+0x904>
    2afc:	e352001f 	cmp	r2, #31
    2b00:	11a080a2 	lsrne	r8, r2, #1
    2b04:	12688019 	rsbne	r8, r8, #25
    2b08:	11a08819 	lslne	r8, r9, r8
    2b0c:	01a08009 	moveq	r8, r9
    2b10:	e15c0006 	cmp	ip, r6
    2b14:	e2d02000 	sbcs	r2, r0, #0
    2b18:	3afffdc2 	bcc	2228 <w2c_0x24coremark0x2Ewasm_free+0x21c>
    2b1c:	e79e200b 	ldr	r2, [lr, fp]
    2b20:	e3a06000 	mov	r6, #0
    2b24:	e1a0b003 	mov	fp, r3
    2b28:	e2927008 	adds	r7, r2, #8
    2b2c:	e2a6a000 	adc	sl, r6, #0
    2b30:	e15c0007 	cmp	ip, r7
    2b34:	e0d0a00a 	sbcs	sl, r0, sl
    2b38:	3afffdba 	bcc	2228 <w2c_0x24coremark0x2Ewasm_free+0x21c>
    2b3c:	e08ea002 	add	sl, lr, r2
    2b40:	e59aa004 	ldr	sl, [sl, #4]
    2b44:	e3caa007 	bic	sl, sl, #7
    2b48:	e15a0009 	cmp	sl, r9
    2b4c:	0a0000e8 	beq	2ef4 <w2c_0x24coremark0x2Ewasm_free+0xee8>
    2b50:	e1a0aea8 	lsr	sl, r8, #29
    2b54:	e2827010 	add	r7, r2, #16
    2b58:	e20aa004 	and	sl, sl, #4
    2b5c:	e087700a 	add	r7, r7, sl
    2b60:	e2973004 	adds	r3, r7, #4
    2b64:	e2a6a000 	adc	sl, r6, #0
    2b68:	e15c0003 	cmp	ip, r3
    2b6c:	e0d0a00a 	sbcs	sl, r0, sl
    2b70:	3afffdac 	bcc	2228 <w2c_0x24coremark0x2Ewasm_free+0x21c>
    2b74:	e79ea007 	ldr	sl, [lr, r7]
    2b78:	e1a08088 	lsl	r8, r8, #1
    2b7c:	e35a0000 	cmp	sl, #0
    2b80:	0a00011e 	beq	3000 <w2c_0x24coremark0x2Ewasm_free+0xff4>
    2b84:	e1a0200a 	mov	r2, sl
    2b88:	eaffffe6 	b	2b28 <w2c_0x24coremark0x2Ewasm_free+0xb1c>
    2b8c:	e28e3e9e 	add	r3, lr, #2528	@ 0x9e0
    2b90:	e2833004 	add	r3, r3, #4
    2b94:	e1500003 	cmp	r0, r3
    2b98:	e2dc3000 	sbcs	r3, ip, #0
    2b9c:	3afffda1 	bcc	2228 <w2c_0x24coremark0x2Ewasm_free+0x21c>
    2ba0:	e087700e 	add	r7, r7, lr
    2ba4:	e59739e0 	ldr	r3, [r7, #2528]	@ 0x9e0
    2ba8:	eafffead 	b	2664 <w2c_0x24coremark0x2Ewasm_free+0x658>
    2bac:	e2908014 	adds	r8, r0, #20
    2bb0:	e3a0b000 	mov	fp, #0
    2bb4:	e2abc000 	adc	ip, fp, #0
    2bb8:	e1570008 	cmp	r7, r8
    2bbc:	e0d6c00c 	sbcs	ip, r6, ip
    2bc0:	3afffd98 	bcc	2228 <w2c_0x24coremark0x2Ewasm_free+0x21c>
    2bc4:	e08ec000 	add	ip, lr, r0
    2bc8:	e59cc010 	ldr	ip, [ip, #16]
    2bcc:	e151000c 	cmp	r1, ip
    2bd0:	13a0c014 	movne	ip, #20
    2bd4:	03a0c010 	moveq	ip, #16
    2bd8:	e08cc000 	add	ip, ip, r0
    2bdc:	e29c8004 	adds	r8, ip, #4
    2be0:	e2abb000 	adc	fp, fp, #0
    2be4:	e1570008 	cmp	r7, r8
    2be8:	e0d6600b 	sbcs	r6, r6, fp
    2bec:	3affff66 	bcc	298c <w2c_0x24coremark0x2Ewasm_free+0x980>
    2bf0:	e3520000 	cmp	r2, #0
    2bf4:	e78e200c 	str	r2, [lr, ip]
    2bf8:	0afffd65 	beq	2194 <w2c_0x24coremark0x2Ewasm_free+0x188>
    2bfc:	e5948030 	ldr	r8, [r4, #48]	@ 0x30
    2c00:	e292701c 	adds	r7, r2, #28
    2c04:	e594c034 	ldr	ip, [r4, #52]	@ 0x34
    2c08:	e3a06000 	mov	r6, #0
    2c0c:	e2a6e000 	adc	lr, r6, #0
    2c10:	e1580007 	cmp	r8, r7
    2c14:	e0dcc00e 	sbcs	ip, ip, lr
    2c18:	3affff5b 	bcc	298c <w2c_0x24coremark0x2Ewasm_free+0x980>
    2c1c:	e594c010 	ldr	ip, [r4, #16]
    2c20:	e291e014 	adds	lr, r1, #20
    2c24:	e2a33000 	adc	r3, r3, #0
    2c28:	e08cc002 	add	ip, ip, r2
    2c2c:	e58c0018 	str	r0, [ip, #24]
    2c30:	e5940030 	ldr	r0, [r4, #48]	@ 0x30
    2c34:	e594c034 	ldr	ip, [r4, #52]	@ 0x34
    2c38:	e150000e 	cmp	r0, lr
    2c3c:	e0dc3003 	sbcs	r3, ip, r3
    2c40:	3afffd78 	bcc	2228 <w2c_0x24coremark0x2Ewasm_free+0x21c>
    2c44:	e5947010 	ldr	r7, [r4, #16]
    2c48:	e0873001 	add	r3, r7, r1
    2c4c:	e5933010 	ldr	r3, [r3, #16]
    2c50:	e3530000 	cmp	r3, #0
    2c54:	0a000013 	beq	2ca8 <w2c_0x24coremark0x2Ewasm_free+0xc9c>
    2c58:	e2928014 	adds	r8, r2, #20
    2c5c:	e1a0b008 	mov	fp, r8
    2c60:	e2a68000 	adc	r8, r6, #0
    2c64:	e150000b 	cmp	r0, fp
    2c68:	e0dc8008 	sbcs	r8, ip, r8
    2c6c:	3affff46 	bcc	298c <w2c_0x24coremark0x2Ewasm_free+0x980>
    2c70:	e0870002 	add	r0, r7, r2
    2c74:	e5803010 	str	r3, [r0, #16]
    2c78:	e293001c 	adds	r0, r3, #28
    2c7c:	e2a66000 	adc	r6, r6, #0
    2c80:	e594c030 	ldr	ip, [r4, #48]	@ 0x30
    2c84:	e15c0000 	cmp	ip, r0
    2c88:	e5940034 	ldr	r0, [r4, #52]	@ 0x34
    2c8c:	e0d00006 	sbcs	r0, r0, r6
    2c90:	3affff3d 	bcc	298c <w2c_0x24coremark0x2Ewasm_free+0x980>
    2c94:	e5940010 	ldr	r0, [r4, #16]
    2c98:	e0803003 	add	r3, r0, r3
    2c9c:	e5832018 	str	r2, [r3, #24]
    2ca0:	e5940030 	ldr	r0, [r4, #48]	@ 0x30
    2ca4:	e594c034 	ldr	ip, [r4, #52]	@ 0x34
    2ca8:	e29e7004 	adds	r7, lr, #4
    2cac:	e3a06000 	mov	r6, #0
    2cb0:	e2a63000 	adc	r3, r6, #0
    2cb4:	e1500007 	cmp	r0, r7
    2cb8:	e0dc3003 	sbcs	r3, ip, r3
    2cbc:	3afffd59 	bcc	2228 <w2c_0x24coremark0x2Ewasm_free+0x21c>
    2cc0:	e5947010 	ldr	r7, [r4, #16]
    2cc4:	e797300e 	ldr	r3, [r7, lr]
    2cc8:	e1530006 	cmp	r3, r6
    2ccc:	0afffd30 	beq	2194 <w2c_0x24coremark0x2Ewasm_free+0x188>
    2cd0:	e282e014 	add	lr, r2, #20
    2cd4:	e29e8004 	adds	r8, lr, #4
    2cd8:	e1a0b008 	mov	fp, r8
    2cdc:	e2a68000 	adc	r8, r6, #0
    2ce0:	e150000b 	cmp	r0, fp
    2ce4:	e0dc8008 	sbcs	r8, ip, r8
    2ce8:	3affff27 	bcc	298c <w2c_0x24coremark0x2Ewasm_free+0x980>
    2cec:	e787300e 	str	r3, [r7, lr]
    2cf0:	e293c01c 	adds	ip, r3, #28
    2cf4:	e2a60000 	adc	r0, r6, #0
    2cf8:	e594e030 	ldr	lr, [r4, #48]	@ 0x30
    2cfc:	e15e000c 	cmp	lr, ip
    2d00:	e594c034 	ldr	ip, [r4, #52]	@ 0x34
    2d04:	e0dcc000 	sbcs	ip, ip, r0
    2d08:	3affff1f 	bcc	298c <w2c_0x24coremark0x2Ewasm_free+0x980>
    2d0c:	e5940010 	ldr	r0, [r4, #16]
    2d10:	e0803003 	add	r3, r0, r3
    2d14:	e5832018 	str	r2, [r3, #24]
    2d18:	eafffd1d 	b	2194 <w2c_0x24coremark0x2Ewasm_free+0x188>
    2d1c:	e29a301c 	adds	r3, sl, #28
    2d20:	e58d3018 	str	r3, [sp, #24]
    2d24:	e2a02000 	adc	r2, r0, #0
    2d28:	e1560003 	cmp	r6, r3
    2d2c:	e0d73002 	sbcs	r3, r7, r2
    2d30:	e58d201c 	str	r2, [sp, #28]
    2d34:	3afffd3b 	bcc	2228 <w2c_0x24coremark0x2Ewasm_free+0x21c>
    2d38:	e088300a 	add	r3, r8, sl
    2d3c:	e5932018 	ldr	r2, [r3, #24]
    2d40:	e58d200c 	str	r2, [sp, #12]
    2d44:	e29a2010 	adds	r2, sl, #16
    2d48:	e58d2014 	str	r2, [sp, #20]
    2d4c:	e2a0c000 	adc	ip, r0, #0
    2d50:	e1560002 	cmp	r6, r2
    2d54:	e0d7200c 	sbcs	r2, r7, ip
    2d58:	e58dc010 	str	ip, [sp, #16]
    2d5c:	3afffd31 	bcc	2228 <w2c_0x24coremark0x2Ewasm_free+0x21c>
    2d60:	e593200c 	ldr	r2, [r3, #12]
    2d64:	e284c010 	add	ip, r4, #16
    2d68:	e58d2004 	str	r2, [sp, #4]
    2d6c:	e58dc008 	str	ip, [sp, #8]
    2d70:	e15a0002 	cmp	sl, r2
    2d74:	0a0000c1 	beq	3080 <w2c_0x24coremark0x2Ewasm_free+0x1074>
    2d78:	e29a200c 	adds	r2, sl, #12
    2d7c:	e2a00000 	adc	r0, r0, #0
    2d80:	e1560002 	cmp	r6, r2
    2d84:	e0d70000 	sbcs	r0, r7, r0
    2d88:	3afffd26 	bcc	2228 <w2c_0x24coremark0x2Ewasm_free+0x21c>
    2d8c:	e5932008 	ldr	r2, [r3, #8]
    2d90:	e59839c0 	ldr	r3, [r8, #2496]	@ 0x9c0
    2d94:	e59de004 	ldr	lr, [sp, #4]
    2d98:	e3a03000 	mov	r3, #0
    2d9c:	e29ec00c 	adds	ip, lr, #12
    2da0:	e2a30000 	adc	r0, r3, #0
    2da4:	e156000c 	cmp	r6, ip
    2da8:	e0d70000 	sbcs	r0, r7, r0
    2dac:	3afffef6 	bcc	298c <w2c_0x24coremark0x2Ewasm_free+0x980>
    2db0:	e088800e 	add	r8, r8, lr
    2db4:	e2920010 	adds	r0, r2, #16
    2db8:	e2a33000 	adc	r3, r3, #0
    2dbc:	e5882008 	str	r2, [r8, #8]
    2dc0:	e594c030 	ldr	ip, [r4, #48]	@ 0x30
    2dc4:	e15c0000 	cmp	ip, r0
    2dc8:	e5940034 	ldr	r0, [r4, #52]	@ 0x34
    2dcc:	e0d00003 	sbcs	r0, r0, r3
    2dd0:	3afffeed 	bcc	298c <w2c_0x24coremark0x2Ewasm_free+0x980>
    2dd4:	e5943010 	ldr	r3, [r4, #16]
    2dd8:	e0833002 	add	r3, r3, r2
    2ddc:	e583e00c 	str	lr, [r3, #12]
    2de0:	e59d300c 	ldr	r3, [sp, #12]
    2de4:	e3530000 	cmp	r3, #0
    2de8:	0afffe77 	beq	27cc <w2c_0x24coremark0x2Ewasm_free+0x7c0>
    2dec:	e59d7008 	ldr	r7, [sp, #8]
    2df0:	e1cd21d8 	ldrd	r2, [sp, #24]
    2df4:	e1a00007 	mov	r0, r7
    2df8:	e58d1020 	str	r1, [sp, #32]
    2dfc:	ebfff47f 	bl	0 <i32_load_default32>
    2e00:	e1a06000 	mov	r6, r0
    2e04:	e1a00007 	mov	r0, r7
    2e08:	e3a03000 	mov	r3, #0
    2e0c:	e1a07106 	lsl	r7, r6, #2
    2e10:	e2877eae 	add	r7, r7, #2784	@ 0xae0
    2e14:	e1a02007 	mov	r2, r7
    2e18:	ebfff478 	bl	0 <i32_load_default32>
    2e1c:	e59d1020 	ldr	r1, [sp, #32]
    2e20:	e15a0000 	cmp	sl, r0
    2e24:	1a0000c3 	bne	3138 <w2c_0x24coremark0x2Ewasm_free+0x112c>
    2e28:	e5940030 	ldr	r0, [r4, #48]	@ 0x30
    2e2c:	e2972004 	adds	r2, r7, #4
    2e30:	23a03001 	movcs	r3, #1
    2e34:	33a03000 	movcc	r3, #0
    2e38:	e1500002 	cmp	r0, r2
    2e3c:	e5942034 	ldr	r2, [r4, #52]	@ 0x34
    2e40:	e0d22003 	sbcs	r2, r2, r3
    2e44:	3afffed0 	bcc	298c <w2c_0x24coremark0x2Ewasm_free+0x980>
    2e48:	e5943010 	ldr	r3, [r4, #16]
    2e4c:	e59d2004 	ldr	r2, [sp, #4]
    2e50:	e7832007 	str	r2, [r3, r7]
    2e54:	e3520000 	cmp	r2, #0
    2e58:	1a0000ce 	bne	3198 <w2c_0x24coremark0x2Ewasm_free+0x118c>
    2e5c:	e3a03000 	mov	r3, #0
    2e60:	e30029b4 	movw	r2, #2484	@ 0x9b4
    2e64:	e59d0008 	ldr	r0, [sp, #8]
    2e68:	e58d1004 	str	r1, [sp, #4]
    2e6c:	ebfff463 	bl	0 <i32_load_default32>
    2e70:	e594c030 	ldr	ip, [r4, #48]	@ 0x30
    2e74:	e30029b8 	movw	r2, #2488	@ 0x9b8
    2e78:	e5943034 	ldr	r3, [r4, #52]	@ 0x34
    2e7c:	e15c0002 	cmp	ip, r2
    2e80:	e2d33000 	sbcs	r3, r3, #0
    2e84:	3afffec0 	bcc	298c <w2c_0x24coremark0x2Ewasm_free+0x980>
    2e88:	e5942010 	ldr	r2, [r4, #16]
    2e8c:	e206301f 	and	r3, r6, #31
    2e90:	e2633020 	rsb	r3, r3, #32
    2e94:	e3e0c001 	mvn	ip, #1
    2e98:	e59d1004 	ldr	r1, [sp, #4]
    2e9c:	e000337c 	and	r3, r0, ip, ror r3
    2ea0:	e58239b4 	str	r3, [r2, #2484]	@ 0x9b4
    2ea4:	eafffe48 	b	27cc <w2c_0x24coremark0x2Ewasm_free+0x7c0>
    2ea8:	e35900ff 	cmp	r9, #255	@ 0xff
    2eac:	8afffd20 	bhi	2334 <w2c_0x24coremark0x2Ewasm_free+0x328>
    2eb0:	e3c9e007 	bic	lr, r9, #7
    2eb4:	e28e2e9d 	add	r2, lr, #2512	@ 0x9d0
    2eb8:	e2822008 	add	r2, r2, #8
    2ebc:	eafffddd 	b	2638 <w2c_0x24coremark0x2Ewasm_free+0x62c>
    2ec0:	e59839b0 	ldr	r3, [r8, #2480]	@ 0x9b0
    2ec4:	e59d2000 	ldr	r2, [sp]
    2ec8:	e3e00001 	mvn	r0, #1
    2ecc:	e1a021a2 	lsr	r2, r2, #3
    2ed0:	e2622020 	rsb	r2, r2, #32
    2ed4:	e0033270 	and	r3, r3, r0, ror r2
    2ed8:	e58839b0 	str	r3, [r8, #2480]	@ 0x9b0
    2edc:	eafffe3a 	b	27cc <w2c_0x24coremark0x2Ewasm_free+0x7c0>
    2ee0:	e59f2114 	ldr	r2, [pc, #276]	@ 2ffc <w2c_0x24coremark0x2Ewasm_free+0xff0>
    2ee4:	e79f2002 	ldr	r2, [pc, r2]
    2ee8:	e7853002 	str	r3, [r5, r2]
    2eec:	e3a0000a 	mov	r0, #10
    2ef0:	ebfffffe 	bl	0 <wasm_rt_trap>
    2ef4:	e292900c 	adds	r9, r2, #12
    2ef8:	e1a0300b 	mov	r3, fp
    2efc:	e2a6b000 	adc	fp, r6, #0
    2f00:	e15c0009 	cmp	ip, r9
    2f04:	e0d0800b 	sbcs	r8, r0, fp
    2f08:	e58d7000 	str	r7, [sp]
    2f0c:	3afffcc5 	bcc	2228 <w2c_0x24coremark0x2Ewasm_free+0x21c>
    2f10:	e79e8007 	ldr	r8, [lr, r7]
    2f14:	e298a010 	adds	sl, r8, #16
    2f18:	e2a67000 	adc	r7, r6, #0
    2f1c:	e15c000a 	cmp	ip, sl
    2f20:	e0d0a007 	sbcs	sl, r0, r7
    2f24:	3afffe98 	bcc	298c <w2c_0x24coremark0x2Ewasm_free+0x980>
    2f28:	e08ee008 	add	lr, lr, r8
    2f2c:	e58e100c 	str	r1, [lr, #12]
    2f30:	e5940030 	ldr	r0, [r4, #48]	@ 0x30
    2f34:	e1500009 	cmp	r0, r9
    2f38:	e5940034 	ldr	r0, [r4, #52]	@ 0x34
    2f3c:	e0d0000b 	sbcs	r0, r0, fp
    2f40:	3afffe91 	bcc	298c <w2c_0x24coremark0x2Ewasm_free+0x980>
    2f44:	e5940010 	ldr	r0, [r4, #16]
    2f48:	e59dc000 	ldr	ip, [sp]
    2f4c:	e780100c 	str	r1, [r0, ip]
    2f50:	e291001c 	adds	r0, r1, #28
    2f54:	e2a3c000 	adc	ip, r3, #0
    2f58:	e594e030 	ldr	lr, [r4, #48]	@ 0x30
    2f5c:	e15e0000 	cmp	lr, r0
    2f60:	e5940034 	ldr	r0, [r4, #52]	@ 0x34
    2f64:	e0d0000c 	sbcs	r0, r0, ip
    2f68:	3afffe87 	bcc	298c <w2c_0x24coremark0x2Ewasm_free+0x980>
    2f6c:	e5940010 	ldr	r0, [r4, #16]
    2f70:	e0800001 	add	r0, r0, r1
    2f74:	e5806018 	str	r6, [r0, #24]
    2f78:	e2910010 	adds	r0, r1, #16
    2f7c:	e2a3c000 	adc	ip, r3, #0
    2f80:	e594e030 	ldr	lr, [r4, #48]	@ 0x30
    2f84:	e15e0000 	cmp	lr, r0
    2f88:	e5940034 	ldr	r0, [r4, #52]	@ 0x34
    2f8c:	e0d0000c 	sbcs	r0, r0, ip
    2f90:	3afffe7d 	bcc	298c <w2c_0x24coremark0x2Ewasm_free+0x980>
    2f94:	e5940010 	ldr	r0, [r4, #16]
    2f98:	e0800001 	add	r0, r0, r1
    2f9c:	e580200c 	str	r2, [r0, #12]
    2fa0:	e291200c 	adds	r2, r1, #12
    2fa4:	e2a33000 	adc	r3, r3, #0
    2fa8:	e5940030 	ldr	r0, [r4, #48]	@ 0x30
    2fac:	e1500002 	cmp	r0, r2
    2fb0:	e5942034 	ldr	r2, [r4, #52]	@ 0x34
    2fb4:	e0d22003 	sbcs	r2, r2, r3
    2fb8:	3afffe73 	bcc	298c <w2c_0x24coremark0x2Ewasm_free+0x980>
    2fbc:	e5943010 	ldr	r3, [r4, #16]
    2fc0:	e0833001 	add	r3, r3, r1
    2fc4:	e5838008 	str	r8, [r3, #8]
    2fc8:	eafffd30 	b	2490 <w2c_0x24coremark0x2Ewasm_free+0x484>
    2fcc:	00000fa8 	.word	0x00000fa8
    2fd0:	00000f8c 	.word	0x00000f8c
    2fd4:	00000f30 	.word	0x00000f30
    2fd8:	00000e30 	.word	0x00000e30
    2fdc:	00000da0 	.word	0x00000da0
    2fe0:	00000cf8 	.word	0x00000cf8
    2fe4:	00000b1c 	.word	0x00000b1c
    2fe8:	000008dc 	.word	0x000008dc
    2fec:	00000784 	.word	0x00000784
    2ff0:	00000634 	.word	0x00000634
    2ff4:	0000059c 	.word	0x0000059c
    2ff8:	00000510 	.word	0x00000510
    2ffc:	00000110 	.word	0x00000110
    3000:	e78e1007 	str	r1, [lr, r7]
    3004:	e291001c 	adds	r0, r1, #28
    3008:	e2abc000 	adc	ip, fp, #0
    300c:	e594e030 	ldr	lr, [r4, #48]	@ 0x30
    3010:	e15e0000 	cmp	lr, r0
    3014:	e5940034 	ldr	r0, [r4, #52]	@ 0x34
    3018:	e0d0000c 	sbcs	r0, r0, ip
    301c:	3afffe5a 	bcc	298c <w2c_0x24coremark0x2Ewasm_free+0x980>
    3020:	e5940010 	ldr	r0, [r4, #16]
    3024:	e0800001 	add	r0, r0, r1
    3028:	e5802018 	str	r2, [r0, #24]
    302c:	e2912010 	adds	r2, r1, #16
    3030:	e2ab0000 	adc	r0, fp, #0
    3034:	e594c030 	ldr	ip, [r4, #48]	@ 0x30
    3038:	e15c0002 	cmp	ip, r2
    303c:	e5942034 	ldr	r2, [r4, #52]	@ 0x34
    3040:	e0d22000 	sbcs	r2, r2, r0
    3044:	3afffe50 	bcc	298c <w2c_0x24coremark0x2Ewasm_free+0x980>
    3048:	e5942010 	ldr	r2, [r4, #16]
    304c:	e0822001 	add	r2, r2, r1
    3050:	e582100c 	str	r1, [r2, #12]
    3054:	e291200c 	adds	r2, r1, #12
    3058:	e2ab3000 	adc	r3, fp, #0
    305c:	e5940030 	ldr	r0, [r4, #48]	@ 0x30
    3060:	e1500002 	cmp	r0, r2
    3064:	e5942034 	ldr	r2, [r4, #52]	@ 0x34
    3068:	e0d22003 	sbcs	r2, r2, r3
    306c:	3afffe46 	bcc	298c <w2c_0x24coremark0x2Ewasm_free+0x980>
    3070:	e5943010 	ldr	r3, [r4, #16]
    3074:	e0833001 	add	r3, r3, r1
    3078:	e5831008 	str	r1, [r3, #8]
    307c:	eafffd03 	b	2490 <w2c_0x24coremark0x2Ewasm_free+0x484>
    3080:	e28a2014 	add	r2, sl, #20
    3084:	e1a0300e 	mov	r3, lr
    3088:	e2840010 	add	r0, r4, #16
    308c:	e58d1024 	str	r1, [sp, #36]	@ 0x24
    3090:	e58d2020 	str	r2, [sp, #32]
    3094:	ebfff3d9 	bl	0 <i32_load_default32>
    3098:	e59d2020 	ldr	r2, [sp, #32]
    309c:	e2503000 	subs	r3, r0, #0
    30a0:	e59d1024 	ldr	r1, [sp, #36]	@ 0x24
    30a4:	e58d3004 	str	r3, [sp, #4]
    30a8:	1a00000a 	bne	30d8 <w2c_0x24coremark0x2Ewasm_free+0x10cc>
    30ac:	e59db014 	ldr	fp, [sp, #20]
    30b0:	e2840010 	add	r0, r4, #16
    30b4:	e59d3010 	ldr	r3, [sp, #16]
    30b8:	e1a0200b 	mov	r2, fp
    30bc:	e58d1020 	str	r1, [sp, #32]
    30c0:	ebfff3ce 	bl	0 <i32_load_default32>
    30c4:	e59d1020 	ldr	r1, [sp, #32]
    30c8:	e2503000 	subs	r3, r0, #0
    30cc:	e58d3004 	str	r3, [sp, #4]
    30d0:	0affff42 	beq	2de0 <w2c_0x24coremark0x2Ewasm_free+0xdd4>
    30d4:	e1a0200b 	mov	r2, fp
    30d8:	e59dc004 	ldr	ip, [sp, #4]
    30dc:	e3a00000 	mov	r0, #0
    30e0:	e28ce014 	add	lr, ip, #20
    30e4:	e29e3004 	adds	r3, lr, #4
    30e8:	e1a0b003 	mov	fp, r3
    30ec:	e2a03000 	adc	r3, r0, #0
    30f0:	e156000b 	cmp	r6, fp
    30f4:	e0d73003 	sbcs	r3, r7, r3
    30f8:	3afffc4a 	bcc	2228 <w2c_0x24coremark0x2Ewasm_free+0x21c>
    30fc:	e798300e 	ldr	r3, [r8, lr]
    3100:	e3530000 	cmp	r3, #0
    3104:	1a000008 	bne	312c <w2c_0x24coremark0x2Ewasm_free+0x1120>
    3108:	e29cb014 	adds	fp, ip, #20
    310c:	e2a33000 	adc	r3, r3, #0
    3110:	e156000e 	cmp	r6, lr
    3114:	e0d73003 	sbcs	r3, r7, r3
    3118:	3afffc42 	bcc	2228 <w2c_0x24coremark0x2Ewasm_free+0x21c>
    311c:	e28ce010 	add	lr, ip, #16
    3120:	e798300e 	ldr	r3, [r8, lr]
    3124:	e3530000 	cmp	r3, #0
    3128:	0a000063 	beq	32bc <w2c_0x24coremark0x2Ewasm_free+0x12b0>
    312c:	e1a0200e 	mov	r2, lr
    3130:	e1a0c003 	mov	ip, r3
    3134:	eaffffe9 	b	30e0 <w2c_0x24coremark0x2Ewasm_free+0x10d4>
    3138:	e59d600c 	ldr	r6, [sp, #12]
    313c:	e3a07000 	mov	r7, #0
    3140:	e59d0008 	ldr	r0, [sp, #8]
    3144:	e2962010 	adds	r2, r6, #16
    3148:	e58d1018 	str	r1, [sp, #24]
    314c:	e2a73000 	adc	r3, r7, #0
    3150:	ebfff3aa 	bl	0 <i32_load_default32>
    3154:	e15a0000 	cmp	sl, r0
    3158:	13a03014 	movne	r3, #20
    315c:	03a03010 	moveq	r3, #16
    3160:	e594c030 	ldr	ip, [r4, #48]	@ 0x30
    3164:	e0833006 	add	r3, r3, r6
    3168:	e2932004 	adds	r2, r3, #4
    316c:	e59d1018 	ldr	r1, [sp, #24]
    3170:	e2a70000 	adc	r0, r7, #0
    3174:	e15c0002 	cmp	ip, r2
    3178:	e5942034 	ldr	r2, [r4, #52]	@ 0x34
    317c:	e0d22000 	sbcs	r2, r2, r0
    3180:	3afffe01 	bcc	298c <w2c_0x24coremark0x2Ewasm_free+0x980>
    3184:	e5942010 	ldr	r2, [r4, #16]
    3188:	e59d0004 	ldr	r0, [sp, #4]
    318c:	e7820003 	str	r0, [r2, r3]
    3190:	e3500000 	cmp	r0, #0
    3194:	0afffd8c 	beq	27cc <w2c_0x24coremark0x2Ewasm_free+0x7c0>
    3198:	e59d3004 	ldr	r3, [sp, #4]
    319c:	e3a06000 	mov	r6, #0
    31a0:	e594c030 	ldr	ip, [r4, #48]	@ 0x30
    31a4:	e293001c 	adds	r0, r3, #28
    31a8:	e5943034 	ldr	r3, [r4, #52]	@ 0x34
    31ac:	e2a62000 	adc	r2, r6, #0
    31b0:	e15c0000 	cmp	ip, r0
    31b4:	e0d33002 	sbcs	r3, r3, r2
    31b8:	3afffdf3 	bcc	298c <w2c_0x24coremark0x2Ewasm_free+0x980>
    31bc:	e5940010 	ldr	r0, [r4, #16]
    31c0:	e59d7004 	ldr	r7, [sp, #4]
    31c4:	e58d1018 	str	r1, [sp, #24]
    31c8:	e0800007 	add	r0, r0, r7
    31cc:	e59d100c 	ldr	r1, [sp, #12]
    31d0:	e59d2014 	ldr	r2, [sp, #20]
    31d4:	e59d3010 	ldr	r3, [sp, #16]
    31d8:	e5801018 	str	r1, [r0, #24]
    31dc:	e59d0008 	ldr	r0, [sp, #8]
    31e0:	ebfff386 	bl	0 <i32_load_default32>
    31e4:	e59d1018 	ldr	r1, [sp, #24]
    31e8:	e2502000 	subs	r2, r0, #0
    31ec:	0a000013 	beq	3240 <w2c_0x24coremark0x2Ewasm_free+0x1234>
    31f0:	e594e030 	ldr	lr, [r4, #48]	@ 0x30
    31f4:	e297c014 	adds	ip, r7, #20
    31f8:	e5943034 	ldr	r3, [r4, #52]	@ 0x34
    31fc:	e2a60000 	adc	r0, r6, #0
    3200:	e15e000c 	cmp	lr, ip
    3204:	e0d33000 	sbcs	r3, r3, r0
    3208:	3afffddf 	bcc	298c <w2c_0x24coremark0x2Ewasm_free+0x980>
    320c:	e5943010 	ldr	r3, [r4, #16]
    3210:	e0833007 	add	r3, r3, r7
    3214:	e5832010 	str	r2, [r3, #16]
    3218:	e292301c 	adds	r3, r2, #28
    321c:	e2a66000 	adc	r6, r6, #0
    3220:	e5940030 	ldr	r0, [r4, #48]	@ 0x30
    3224:	e1500003 	cmp	r0, r3
    3228:	e5943034 	ldr	r3, [r4, #52]	@ 0x34
    322c:	e0d33006 	sbcs	r3, r3, r6
    3230:	3afffdd5 	bcc	298c <w2c_0x24coremark0x2Ewasm_free+0x980>
    3234:	e5943010 	ldr	r3, [r4, #16]
    3238:	e0833002 	add	r3, r3, r2
    323c:	e5837018 	str	r7, [r3, #24]
    3240:	e3a03000 	mov	r3, #0
    3244:	e59d0008 	ldr	r0, [sp, #8]
    3248:	e28a2014 	add	r2, sl, #20
    324c:	e58d100c 	str	r1, [sp, #12]
    3250:	ebfff36a 	bl	0 <i32_load_default32>
    3254:	e59d100c 	ldr	r1, [sp, #12]
    3258:	e2503000 	subs	r3, r0, #0
    325c:	0afffd5a 	beq	27cc <w2c_0x24coremark0x2Ewasm_free+0x7c0>
    3260:	e59d7004 	ldr	r7, [sp, #4]
    3264:	e3a08000 	mov	r8, #0
    3268:	e5946030 	ldr	r6, [r4, #48]	@ 0x30
    326c:	e2872014 	add	r2, r7, #20
    3270:	e5940034 	ldr	r0, [r4, #52]	@ 0x34
    3274:	e292e004 	adds	lr, r2, #4
    3278:	e2a8c000 	adc	ip, r8, #0
    327c:	e156000e 	cmp	r6, lr
    3280:	e0d0000c 	sbcs	r0, r0, ip
    3284:	3afffdc0 	bcc	298c <w2c_0x24coremark0x2Ewasm_free+0x980>
    3288:	e5940010 	ldr	r0, [r4, #16]
    328c:	e7803002 	str	r3, [r0, r2]
    3290:	e293001c 	adds	r0, r3, #28
    3294:	e2a82000 	adc	r2, r8, #0
    3298:	e594c030 	ldr	ip, [r4, #48]	@ 0x30
    329c:	e15c0000 	cmp	ip, r0
    32a0:	e5940034 	ldr	r0, [r4, #52]	@ 0x34
    32a4:	e0d00002 	sbcs	r0, r0, r2
    32a8:	3afffdb7 	bcc	298c <w2c_0x24coremark0x2Ewasm_free+0x980>
    32ac:	e5942010 	ldr	r2, [r4, #16]
    32b0:	e0823003 	add	r3, r2, r3
    32b4:	e5837018 	str	r7, [r3, #24]
    32b8:	eafffd43 	b	27cc <w2c_0x24coremark0x2Ewasm_free+0x7c0>
    32bc:	e58dc004 	str	ip, [sp, #4]
    32c0:	e292c004 	adds	ip, r2, #4
    32c4:	e2a30000 	adc	r0, r3, #0
    32c8:	e156000c 	cmp	r6, ip
    32cc:	e0d70000 	sbcs	r0, r7, r0
    32d0:	3afffdad 	bcc	298c <w2c_0x24coremark0x2Ewasm_free+0x980>
    32d4:	e7883002 	str	r3, [r8, r2]
    32d8:	eafffec0 	b	2de0 <w2c_0x24coremark0x2Ewasm_free+0xdd4>

000032dc <w2c_0x24coremark0x2Ewasm_dlmalloc>:
    32dc:	e92d4ff0 	push	{r4, r5, r6, r7, r8, r9, sl, fp, lr}
    32e0:	ee1dcf70 	mrc	15, 0, ip, cr13, cr0, {3}
    32e4:	e59f3efc 	ldr	r3, [pc, #3836]	@ 41e8 <w2c_0x24coremark0x2Ewasm_dlmalloc+0xf0c>
    32e8:	e24dd03c 	sub	sp, sp, #60	@ 0x3c
    32ec:	e59f2ef8 	ldr	r2, [pc, #3832]	@ 41ec <w2c_0x24coremark0x2Ewasm_dlmalloc+0xf10>
    32f0:	e58dc004 	str	ip, [sp, #4]
    32f4:	e79f3003 	ldr	r3, [pc, r3]
    32f8:	e79f2002 	ldr	r2, [pc, r2]
    32fc:	e79c3003 	ldr	r3, [ip, r3]
    3300:	e2833001 	add	r3, r3, #1
    3304:	e78c3002 	str	r3, [ip, r2]
    3308:	e3530f7d 	cmp	r3, #500	@ 0x1f4
    330c:	8a000598 	bhi	4974 <w2c_0x24coremark0x2Ewasm_dlmalloc+0x1698>
    3310:	e590b004 	ldr	fp, [r0, #4]
    3314:	e1a04000 	mov	r4, r0
    3318:	e5908030 	ldr	r8, [r0, #48]	@ 0x30
    331c:	e5907034 	ldr	r7, [r0, #52]	@ 0x34
    3320:	e24b3010 	sub	r3, fp, #16
    3324:	e5803004 	str	r3, [r0, #4]
    3328:	e30039cc 	movw	r3, #2508	@ 0x9cc
    332c:	e1580003 	cmp	r8, r3
    3330:	e1a00007 	mov	r0, r7
    3334:	e2d73000 	sbcs	r3, r7, #0
    3338:	e58d8008 	str	r8, [sp, #8]
    333c:	3a00006b 	bcc	34f0 <w2c_0x24coremark0x2Ewasm_dlmalloc+0x214>
    3340:	e5946010 	ldr	r6, [r4, #16]
    3344:	e2843010 	add	r3, r4, #16
    3348:	e58d300c 	str	r3, [sp, #12]
    334c:	e1a02006 	mov	r2, r6
    3350:	e59639c8 	ldr	r3, [r6, #2504]	@ 0x9c8
    3354:	e3530000 	cmp	r3, #0
    3358:	0a000046 	beq	3478 <w2c_0x24coremark0x2Ewasm_dlmalloc+0x19c>
    335c:	e35100ec 	cmp	r1, #236	@ 0xec
    3360:	9a00015e 	bls	38e0 <w2c_0x24coremark0x2Ewasm_dlmalloc+0x604>
    3364:	e3710041 	cmn	r1, #65	@ 0x41
    3368:	9a000193 	bls	39bc <w2c_0x24coremark0x2Ewasm_dlmalloc+0x6e0>
    336c:	e59619b8 	ldr	r1, [r6, #2488]	@ 0x9b8
    3370:	e3710001 	cmn	r1, #1
    3374:	1a0002df 	bne	3ef8 <w2c_0x24coremark0x2Ewasm_dlmalloc+0xc1c>
    3378:	e1a0a001 	mov	sl, r1
    337c:	e3a02000 	mov	r2, #0
    3380:	e59639c4 	ldr	r3, [r6, #2500]	@ 0x9c4
    3384:	e352000f 	cmp	r2, #15
    3388:	9a000304 	bls	3fa0 <w2c_0x24coremark0x2Ewasm_dlmalloc+0xcc4>
    338c:	e083c00a 	add	ip, r3, sl
    3390:	e3a0e000 	mov	lr, #0
    3394:	e29c0008 	adds	r0, ip, #8
    3398:	e1a05000 	mov	r5, r0
    339c:	e2ae0000 	adc	r0, lr, #0
    33a0:	e1580005 	cmp	r8, r5
    33a4:	e0d70000 	sbcs	r0, r7, r0
    33a8:	3a000050 	bcc	34f0 <w2c_0x24coremark0x2Ewasm_dlmalloc+0x214>
    33ac:	e086600c 	add	r6, r6, ip
    33b0:	e3820001 	orr	r0, r2, #1
    33b4:	e0811003 	add	r1, r1, r3
    33b8:	e5860004 	str	r0, [r6, #4]
    33bc:	e2910004 	adds	r0, r1, #4
    33c0:	e2ae6000 	adc	r6, lr, #0
    33c4:	e5947030 	ldr	r7, [r4, #48]	@ 0x30
    33c8:	e1570000 	cmp	r7, r0
    33cc:	e5940034 	ldr	r0, [r4, #52]	@ 0x34
    33d0:	e0d00006 	sbcs	r0, r0, r6
    33d4:	3a000045 	bcc	34f0 <w2c_0x24coremark0x2Ewasm_dlmalloc+0x214>
    33d8:	e5940010 	ldr	r0, [r4, #16]
    33dc:	e7802001 	str	r2, [r0, r1]
    33e0:	e2930008 	adds	r0, r3, #8
    33e4:	e2aee000 	adc	lr, lr, #0
    33e8:	e5941030 	ldr	r1, [r4, #48]	@ 0x30
    33ec:	e1510000 	cmp	r1, r0
    33f0:	e5941034 	ldr	r1, [r4, #52]	@ 0x34
    33f4:	e0d1100e 	sbcs	r1, r1, lr
    33f8:	3a00003c 	bcc	34f0 <w2c_0x24coremark0x2Ewasm_dlmalloc+0x214>
    33fc:	e5941010 	ldr	r1, [r4, #16]
    3400:	e38ae003 	orr	lr, sl, #3
    3404:	e0813003 	add	r3, r1, r3
    3408:	e583e004 	str	lr, [r3, #4]
    340c:	e594e030 	ldr	lr, [r4, #48]	@ 0x30
    3410:	e30019bc 	movw	r1, #2492	@ 0x9bc
    3414:	e5943034 	ldr	r3, [r4, #52]	@ 0x34
    3418:	e15e0001 	cmp	lr, r1
    341c:	e2d33000 	sbcs	r3, r3, #0
    3420:	3a000032 	bcc	34f0 <w2c_0x24coremark0x2Ewasm_dlmalloc+0x214>
    3424:	e5943010 	ldr	r3, [r4, #16]
    3428:	e58329b8 	str	r2, [r3, #2488]	@ 0x9b8
    342c:	e30039c8 	movw	r3, #2504	@ 0x9c8
    3430:	e5942030 	ldr	r2, [r4, #48]	@ 0x30
    3434:	e1520003 	cmp	r2, r3
    3438:	e5943034 	ldr	r3, [r4, #52]	@ 0x34
    343c:	e2d33000 	sbcs	r3, r3, #0
    3440:	3a00002a 	bcc	34f0 <w2c_0x24coremark0x2Ewasm_dlmalloc+0x214>
    3444:	e5943010 	ldr	r3, [r4, #16]
    3448:	e583c9c4 	str	ip, [r3, #2500]	@ 0x9c4
    344c:	e59f2d9c 	ldr	r2, [pc, #3484]	@ 41f0 <w2c_0x24coremark0x2Ewasm_dlmalloc+0xf14>
    3450:	e584b004 	str	fp, [r4, #4]
    3454:	e59f3d98 	ldr	r3, [pc, #3480]	@ 41f4 <w2c_0x24coremark0x2Ewasm_dlmalloc+0xf18>
    3458:	e59d1004 	ldr	r1, [sp, #4]
    345c:	e79f2002 	ldr	r2, [pc, r2]
    3460:	e79f3003 	ldr	r3, [pc, r3]
    3464:	e7912002 	ldr	r2, [r1, r2]
    3468:	e2422001 	sub	r2, r2, #1
    346c:	e7812003 	str	r2, [r1, r3]
    3470:	e28dd03c 	add	sp, sp, #60	@ 0x3c
    3474:	e8bd8ff0 	pop	{r4, r5, r6, r7, r8, r9, sl, fp, pc}
    3478:	e3000b8c 	movw	r0, #2956	@ 0xb8c
    347c:	e1580000 	cmp	r8, r0
    3480:	e2d73000 	sbcs	r3, r7, #0
    3484:	3a000019 	bcc	34f0 <w2c_0x24coremark0x2Ewasm_dlmalloc+0x214>
    3488:	e5963b88 	ldr	r3, [r6, #2952]	@ 0xb88
    348c:	e1a0c003 	mov	ip, r3
    3490:	e3530000 	cmp	r3, #0
    3494:	1a000034 	bne	356c <w2c_0x24coremark0x2Ewasm_dlmalloc+0x290>
    3498:	e3003b9c 	movw	r3, #2972	@ 0xb9c
    349c:	e1580003 	cmp	r8, r3
    34a0:	e2d77000 	sbcs	r7, r7, #0
    34a4:	3a000011 	bcc	34f0 <w2c_0x24coremark0x2Ewasm_dlmalloc+0x214>
    34a8:	e3e03000 	mvn	r3, #0
    34ac:	e5863b94 	str	r3, [r6, #2964]	@ 0xb94
    34b0:	e5863b98 	str	r3, [r6, #2968]	@ 0xb98
    34b4:	e3003b94 	movw	r3, #2964	@ 0xb94
    34b8:	e5942030 	ldr	r2, [r4, #48]	@ 0x30
    34bc:	e1520003 	cmp	r2, r3
    34c0:	e5943034 	ldr	r3, [r4, #52]	@ 0x34
    34c4:	e2d33000 	sbcs	r3, r3, #0
    34c8:	3a000008 	bcc	34f0 <w2c_0x24coremark0x2Ewasm_dlmalloc+0x214>
    34cc:	e5943010 	ldr	r3, [r4, #16]
    34d0:	e3a02801 	mov	r2, #65536	@ 0x10000
    34d4:	e5832b8c 	str	r2, [r3, #2956]	@ 0xb8c
    34d8:	e5832b90 	str	r2, [r3, #2960]	@ 0xb90
    34dc:	e5943030 	ldr	r3, [r4, #48]	@ 0x30
    34e0:	e1530000 	cmp	r3, r0
    34e4:	e5943034 	ldr	r3, [r4, #52]	@ 0x34
    34e8:	e2d33000 	sbcs	r3, r3, #0
    34ec:	2a000001 	bcs	34f8 <w2c_0x24coremark0x2Ewasm_dlmalloc+0x21c>
    34f0:	e3a00001 	mov	r0, #1
    34f4:	ebfffffe 	bl	0 <wasm_rt_trap>
    34f8:	e5940010 	ldr	r0, [r4, #16]
    34fc:	e24b2008 	sub	r2, fp, #8
    3500:	e3c2200f 	bic	r2, r2, #15
    3504:	e3053558 	movw	r3, #21848	@ 0x5558
    3508:	e3453555 	movt	r3, #21845	@ 0x5555
    350c:	e0233002 	eor	r3, r3, r2
    3510:	e5803b88 	str	r3, [r0, #2952]	@ 0xb88
    3514:	e5942030 	ldr	r2, [r4, #48]	@ 0x30
    3518:	e3520eba 	cmp	r2, #2976	@ 0xba0
    351c:	e5942034 	ldr	r2, [r4, #52]	@ 0x34
    3520:	e2d22000 	sbcs	r2, r2, #0
    3524:	3afffff1 	bcc	34f0 <w2c_0x24coremark0x2Ewasm_dlmalloc+0x214>
    3528:	e5942010 	ldr	r2, [r4, #16]
    352c:	e582cb9c 	str	ip, [r2, #2972]	@ 0xb9c
    3530:	e5942030 	ldr	r2, [r4, #48]	@ 0x30
    3534:	e3520eb7 	cmp	r2, #2928	@ 0xb70
    3538:	e5942034 	ldr	r2, [r4, #52]	@ 0x34
    353c:	e2d22000 	sbcs	r2, r2, #0
    3540:	3affffea 	bcc	34f0 <w2c_0x24coremark0x2Ewasm_dlmalloc+0x214>
    3544:	e5942010 	ldr	r2, [r4, #16]
    3548:	e3a00000 	mov	r0, #0
    354c:	e5820b6c 	str	r0, [r2, #2924]	@ 0xb6c
    3550:	e3002b74 	movw	r2, #2932	@ 0xb74
    3554:	e5940030 	ldr	r0, [r4, #48]	@ 0x30
    3558:	e1500002 	cmp	r0, r2
    355c:	e5942034 	ldr	r2, [r4, #52]	@ 0x34
    3560:	e2d22000 	sbcs	r2, r2, #0
    3564:	3affffe1 	bcc	34f0 <w2c_0x24coremark0x2Ewasm_dlmalloc+0x214>
    3568:	e5942010 	ldr	r2, [r4, #16]
    356c:	e3a00eba 	mov	r0, #2976	@ 0xba0
    3570:	e3400001 	movt	r0, #1
    3574:	e5820b70 	str	r0, [r2, #2928]	@ 0xb70
    3578:	e30029c4 	movw	r2, #2500	@ 0x9c4
    357c:	e594c030 	ldr	ip, [r4, #48]	@ 0x30
    3580:	e15c0002 	cmp	ip, r2
    3584:	e5942034 	ldr	r2, [r4, #52]	@ 0x34
    3588:	e2d22000 	sbcs	r2, r2, #0
    358c:	3affffd7 	bcc	34f0 <w2c_0x24coremark0x2Ewasm_dlmalloc+0x214>
    3590:	e5942010 	ldr	r2, [r4, #16]
    3594:	e58209c0 	str	r0, [r2, #2496]	@ 0x9c0
    3598:	e30029d8 	movw	r2, #2520	@ 0x9d8
    359c:	e5940030 	ldr	r0, [r4, #48]	@ 0x30
    35a0:	e1500002 	cmp	r0, r2
    35a4:	e5942034 	ldr	r2, [r4, #52]	@ 0x34
    35a8:	e2d22000 	sbcs	r2, r2, #0
    35ac:	3affffcf 	bcc	34f0 <w2c_0x24coremark0x2Ewasm_dlmalloc+0x214>
    35b0:	e5942010 	ldr	r2, [r4, #16]
    35b4:	e58239d4 	str	r3, [r2, #2516]	@ 0x9d4
    35b8:	e30039d4 	movw	r3, #2516	@ 0x9d4
    35bc:	e5942030 	ldr	r2, [r4, #48]	@ 0x30
    35c0:	e1520003 	cmp	r2, r3
    35c4:	e5943034 	ldr	r3, [r4, #52]	@ 0x34
    35c8:	e2d33000 	sbcs	r3, r3, #0
    35cc:	3affffc7 	bcc	34f0 <w2c_0x24coremark0x2Ewasm_dlmalloc+0x214>
    35d0:	e5943010 	ldr	r3, [r4, #16]
    35d4:	e3e02000 	mvn	r2, #0
    35d8:	e58329d0 	str	r2, [r3, #2512]	@ 0x9d0
    35dc:	e3003b78 	movw	r3, #2936	@ 0xb78
    35e0:	e5942030 	ldr	r2, [r4, #48]	@ 0x30
    35e4:	e1520003 	cmp	r2, r3
    35e8:	e5943034 	ldr	r3, [r4, #52]	@ 0x34
    35ec:	e2d33000 	sbcs	r3, r3, #0
    35f0:	3affffbe 	bcc	34f0 <w2c_0x24coremark0x2Ewasm_dlmalloc+0x214>
    35f4:	e5943010 	ldr	r3, [r4, #16]
    35f8:	e30f2460 	movw	r2, #62560	@ 0xf460
    35fc:	e5832b74 	str	r2, [r3, #2932]	@ 0xb74
    3600:	e3003b68 	movw	r3, #2920	@ 0xb68
    3604:	e5940030 	ldr	r0, [r4, #48]	@ 0x30
    3608:	e1500003 	cmp	r0, r3
    360c:	e5943034 	ldr	r3, [r4, #52]	@ 0x34
    3610:	e2d33000 	sbcs	r3, r3, #0
    3614:	3affffb5 	bcc	34f0 <w2c_0x24coremark0x2Ewasm_dlmalloc+0x214>
    3618:	e5943010 	ldr	r3, [r4, #16]
    361c:	e5832b64 	str	r2, [r3, #2916]	@ 0xb64
    3620:	e3003b64 	movw	r3, #2916	@ 0xb64
    3624:	e5940030 	ldr	r0, [r4, #48]	@ 0x30
    3628:	e1500003 	cmp	r0, r3
    362c:	e5943034 	ldr	r3, [r4, #52]	@ 0x34
    3630:	e2d33000 	sbcs	r3, r3, #0
    3634:	3affffad 	bcc	34f0 <w2c_0x24coremark0x2Ewasm_dlmalloc+0x214>
    3638:	e5943010 	ldr	r3, [r4, #16]
    363c:	e300c9e4 	movw	ip, #2532	@ 0x9e4
    3640:	e58d1024 	str	r1, [sp, #36]	@ 0x24
    3644:	e30009e8 	movw	r0, #2536	@ 0x9e8
    3648:	e30089f8 	movw	r8, #2552	@ 0x9f8
    364c:	e300e9ec 	movw	lr, #2540	@ 0x9ec
    3650:	e5832b60 	str	r2, [r3, #2912]	@ 0xb60
    3654:	e3a02000 	mov	r2, #0
    3658:	e3a03e9f 	mov	r3, #2544	@ 0x9f0
    365c:	e1a0a002 	mov	sl, r2
    3660:	e1a01002 	mov	r1, r2
    3664:	e58d2008 	str	r2, [sp, #8]
    3668:	e58d2010 	str	r2, [sp, #16]
    366c:	e30079f4 	movw	r7, #2548	@ 0x9f4
    3670:	e58d2018 	str	r2, [sp, #24]
    3674:	e30069fc 	movw	r6, #2556	@ 0x9fc
    3678:	e58d201c 	str	r2, [sp, #28]
    367c:	e58db020 	str	fp, [sp, #32]
    3680:	e5945030 	ldr	r5, [r4, #48]	@ 0x30
    3684:	e1550003 	cmp	r5, r3
    3688:	e5945034 	ldr	r5, [r4, #52]	@ 0x34
    368c:	e0d5500a 	sbcs	r5, r5, sl
    3690:	3affff96 	bcc	34f0 <w2c_0x24coremark0x2Ewasm_dlmalloc+0x214>
    3694:	e5949010 	ldr	r9, [r4, #16]
    3698:	e2435010 	sub	r5, r3, #16
    369c:	e789500e 	str	r5, [r9, lr]
    36a0:	e5949030 	ldr	r9, [r4, #48]	@ 0x30
    36a4:	e159000c 	cmp	r9, ip
    36a8:	e5949034 	ldr	r9, [r4, #52]	@ 0x34
    36ac:	e0d99002 	sbcs	r9, r9, r2
    36b0:	3affff8e 	bcc	34f0 <w2c_0x24coremark0x2Ewasm_dlmalloc+0x214>
    36b4:	e5949010 	ldr	r9, [r4, #16]
    36b8:	e243b018 	sub	fp, r3, #24
    36bc:	e789b005 	str	fp, [r9, r5]
    36c0:	e5949030 	ldr	r9, [r4, #48]	@ 0x30
    36c4:	e1590000 	cmp	r9, r0
    36c8:	e5949034 	ldr	r9, [r4, #52]	@ 0x34
    36cc:	e0d99001 	sbcs	r9, r9, r1
    36d0:	3affff86 	bcc	34f0 <w2c_0x24coremark0x2Ewasm_dlmalloc+0x214>
    36d4:	e5949010 	ldr	r9, [r4, #16]
    36d8:	e789b00c 	str	fp, [r9, ip]
    36dc:	e59db008 	ldr	fp, [sp, #8]
    36e0:	e5949030 	ldr	r9, [r4, #48]	@ 0x30
    36e4:	e1590008 	cmp	r9, r8
    36e8:	e5949034 	ldr	r9, [r4, #52]	@ 0x34
    36ec:	e0d9900b 	sbcs	r9, r9, fp
    36f0:	3affff7e 	bcc	34f0 <w2c_0x24coremark0x2Ewasm_dlmalloc+0x214>
    36f4:	e5949010 	ldr	r9, [r4, #16]
    36f8:	e59db010 	ldr	fp, [sp, #16]
    36fc:	e7890007 	str	r0, [r9, r7]
    3700:	e5949030 	ldr	r9, [r4, #48]	@ 0x30
    3704:	e159000e 	cmp	r9, lr
    3708:	e5949034 	ldr	r9, [r4, #52]	@ 0x34
    370c:	e0d9900b 	sbcs	r9, r9, fp
    3710:	3affff76 	bcc	34f0 <w2c_0x24coremark0x2Ewasm_dlmalloc+0x214>
    3714:	e5949010 	ldr	r9, [r4, #16]
    3718:	e7895000 	str	r5, [r9, r0]
    371c:	e2939010 	adds	r9, r3, #16
    3720:	e2aa5000 	adc	r5, sl, #0
    3724:	e594b030 	ldr	fp, [r4, #48]	@ 0x30
    3728:	e15b0009 	cmp	fp, r9
    372c:	e5949034 	ldr	r9, [r4, #52]	@ 0x34
    3730:	e0d99005 	sbcs	r9, r9, r5
    3734:	3affff6d 	bcc	34f0 <w2c_0x24coremark0x2Ewasm_dlmalloc+0x214>
    3738:	e5945010 	ldr	r5, [r4, #16]
    373c:	e59d9018 	ldr	r9, [sp, #24]
    3740:	e7853006 	str	r3, [r5, r6]
    3744:	e5945030 	ldr	r5, [r4, #48]	@ 0x30
    3748:	e1550007 	cmp	r5, r7
    374c:	e5945034 	ldr	r5, [r4, #52]	@ 0x34
    3750:	e0d55009 	sbcs	r5, r5, r9
    3754:	3affff65 	bcc	34f0 <w2c_0x24coremark0x2Ewasm_dlmalloc+0x214>
    3758:	e5945010 	ldr	r5, [r4, #16]
    375c:	e59db01c 	ldr	fp, [sp, #28]
    3760:	e7850003 	str	r0, [r5, r3]
    3764:	e5945030 	ldr	r5, [r4, #48]	@ 0x30
    3768:	e1550006 	cmp	r5, r6
    376c:	e5945034 	ldr	r5, [r4, #52]	@ 0x34
    3770:	e0d5500b 	sbcs	r5, r5, fp
    3774:	3affff5d 	bcc	34f0 <w2c_0x24coremark0x2Ewasm_dlmalloc+0x214>
    3778:	e2935020 	adds	r5, r3, #32
    377c:	e2aaa000 	adc	sl, sl, #0
    3780:	e2966020 	adds	r6, r6, #32
    3784:	e2abb000 	adc	fp, fp, #0
    3788:	e2977020 	adds	r7, r7, #32
    378c:	e2a99000 	adc	r9, r9, #0
    3790:	e58d9018 	str	r9, [sp, #24]
    3794:	e59d9010 	ldr	r9, [sp, #16]
    3798:	e29ee020 	adds	lr, lr, #32
    379c:	e58db01c 	str	fp, [sp, #28]
    37a0:	e2a99000 	adc	r9, r9, #0
    37a4:	e58d9010 	str	r9, [sp, #16]
    37a8:	e5949010 	ldr	r9, [r4, #16]
    37ac:	e59db008 	ldr	fp, [sp, #8]
    37b0:	e7893008 	str	r3, [r9, r8]
    37b4:	e2988020 	adds	r8, r8, #32
    37b8:	e1a03005 	mov	r3, r5
    37bc:	e2ab5000 	adc	r5, fp, #0
    37c0:	e2900020 	adds	r0, r0, #32
    37c4:	e58d5008 	str	r5, [sp, #8]
    37c8:	e2a11000 	adc	r1, r1, #0
    37cc:	e2435eaf 	sub	r5, r3, #2800	@ 0xaf0
    37d0:	e29cc020 	adds	ip, ip, #32
    37d4:	e2a22000 	adc	r2, r2, #0
    37d8:	e195500a 	orrs	r5, r5, sl
    37dc:	1affffa7 	bne	3680 <w2c_0x24coremark0x2Ewasm_dlmalloc+0x3a4>
    37e0:	e5940030 	ldr	r0, [r4, #48]	@ 0x30
    37e4:	e3003baf 	movw	r3, #2991	@ 0xbaf
    37e8:	e3403001 	movt	r3, #1
    37ec:	e5942034 	ldr	r2, [r4, #52]	@ 0x34
    37f0:	e1530000 	cmp	r3, r0
    37f4:	e3a03000 	mov	r3, #0
    37f8:	e59db020 	ldr	fp, [sp, #32]
    37fc:	e0d33002 	sbcs	r3, r3, r2
    3800:	e59d1024 	ldr	r1, [sp, #36]	@ 0x24
    3804:	2affff39 	bcs	34f0 <w2c_0x24coremark0x2Ewasm_dlmalloc+0x214>
    3808:	e5943010 	ldr	r3, [r4, #16]
    380c:	e30f2421 	movw	r2, #62497	@ 0xf421
    3810:	e2833801 	add	r3, r3, #65536	@ 0x10000
    3814:	e5832bac 	str	r2, [r3, #2988]	@ 0xbac
    3818:	e3003b9c 	movw	r3, #2972	@ 0xb9c
    381c:	e5942030 	ldr	r2, [r4, #48]	@ 0x30
    3820:	e1520003 	cmp	r2, r3
    3824:	e5943034 	ldr	r3, [r4, #52]	@ 0x34
    3828:	e2d33000 	sbcs	r3, r3, #0
    382c:	3affff2f 	bcc	34f0 <w2c_0x24coremark0x2Ewasm_dlmalloc+0x214>
    3830:	e5943010 	ldr	r3, [r4, #16]
    3834:	e5932b98 	ldr	r2, [r3, #2968]	@ 0xb98
    3838:	e58329cc 	str	r2, [r3, #2508]	@ 0x9cc
    383c:	e5943030 	ldr	r3, [r4, #48]	@ 0x30
    3840:	e3530d27 	cmp	r3, #2496	@ 0x9c0
    3844:	e5943034 	ldr	r3, [r4, #52]	@ 0x34
    3848:	e2d33000 	sbcs	r3, r3, #0
    384c:	3affff27 	bcc	34f0 <w2c_0x24coremark0x2Ewasm_dlmalloc+0x214>
    3850:	e5943010 	ldr	r3, [r4, #16]
    3854:	e30f2420 	movw	r2, #62496	@ 0xf420
    3858:	e58329bc 	str	r2, [r3, #2492]	@ 0x9bc
    385c:	e30039cc 	movw	r3, #2508	@ 0x9cc
    3860:	e5942030 	ldr	r2, [r4, #48]	@ 0x30
    3864:	e1520003 	cmp	r2, r3
    3868:	e5943034 	ldr	r3, [r4, #52]	@ 0x34
    386c:	e2d33000 	sbcs	r3, r3, #0
    3870:	3affff1e 	bcc	34f0 <w2c_0x24coremark0x2Ewasm_dlmalloc+0x214>
    3874:	e5942010 	ldr	r2, [r4, #16]
    3878:	e3003ba8 	movw	r3, #2984	@ 0xba8
    387c:	e3403001 	movt	r3, #1
    3880:	e30f0fcf 	movw	r0, #65487	@ 0xffcf
    3884:	e3400001 	movt	r0, #1
    3888:	e58239c8 	str	r3, [r2, #2504]	@ 0x9c8
    388c:	e3a02000 	mov	r2, #0
    3890:	e594c030 	ldr	ip, [r4, #48]	@ 0x30
    3894:	e150000c 	cmp	r0, ip
    3898:	e5940034 	ldr	r0, [r4, #52]	@ 0x34
    389c:	e0d22000 	sbcs	r2, r2, r0
    38a0:	2a000352 	bcs	45f0 <w2c_0x24coremark0x2Ewasm_dlmalloc+0x1314>
    38a4:	e5942010 	ldr	r2, [r4, #16]
    38a8:	e3a00038 	mov	r0, #56	@ 0x38
    38ac:	e35100ec 	cmp	r1, #236	@ 0xec
    38b0:	e2822a1f 	add	r2, r2, #126976	@ 0x1f000
    38b4:	e5820fcc 	str	r0, [r2, #4044]	@ 0xfcc
    38b8:	e5947034 	ldr	r7, [r4, #52]	@ 0x34
    38bc:	e5948030 	ldr	r8, [r4, #48]	@ 0x30
    38c0:	e1a00007 	mov	r0, r7
    38c4:	e58d8008 	str	r8, [sp, #8]
    38c8:	8a000033 	bhi	399c <w2c_0x24coremark0x2Ewasm_dlmalloc+0x6c0>
    38cc:	e30029b4 	movw	r2, #2484	@ 0x9b4
    38d0:	e1580002 	cmp	r8, r2
    38d4:	e2d72000 	sbcs	r2, r7, #0
    38d8:	3affff04 	bcc	34f0 <w2c_0x24coremark0x2Ewasm_dlmalloc+0x214>
    38dc:	e5946010 	ldr	r6, [r4, #16]
    38e0:	e59629b0 	ldr	r2, [r6, #2480]	@ 0x9b0
    38e4:	e58d2008 	str	r2, [sp, #8]
    38e8:	e351000a 	cmp	r1, #10
    38ec:	e59d2008 	ldr	r2, [sp, #8]
    38f0:	82811013 	addhi	r1, r1, #19
    38f4:	93a00002 	movls	r0, #2
    38f8:	8201ae1f 	andhi	sl, r1, #496	@ 0x1f0
    38fc:	93a0a010 	movls	sl, #16
    3900:	81a001aa 	lsrhi	r0, sl, #3
    3904:	e1a02032 	lsr	r2, r2, r0
    3908:	e212c003 	ands	ip, r2, #3
    390c:	0a0000ae 	beq	3bcc <w2c_0x24coremark0x2Ewasm_dlmalloc+0x8f0>
    3910:	e2022001 	and	r2, r2, #1
    3914:	e3a01000 	mov	r1, #0
    3918:	e1822000 	orr	r2, r2, r0
    391c:	e2222001 	eor	r2, r2, #1
    3920:	e1a0c182 	lsl	ip, r2, #3
    3924:	e28c3e9e 	add	r3, ip, #2528	@ 0x9e0
    3928:	e2833004 	add	r3, r3, #4
    392c:	e1580003 	cmp	r8, r3
    3930:	e2d73000 	sbcs	r3, r7, #0
    3934:	3afffeed 	bcc	34f0 <w2c_0x24coremark0x2Ewasm_dlmalloc+0x214>
    3938:	e28cae9e 	add	sl, ip, #2528	@ 0x9e0
    393c:	e796300a 	ldr	r3, [r6, sl]
    3940:	e293e00c 	adds	lr, r3, #12
    3944:	e2a10000 	adc	r0, r1, #0
    3948:	e158000e 	cmp	r8, lr
    394c:	e0d70000 	sbcs	r0, r7, r0
    3950:	3afffee6 	bcc	34f0 <w2c_0x24coremark0x2Ewasm_dlmalloc+0x214>
    3954:	e2830008 	add	r0, r3, #8
    3958:	e28c7e9d 	add	r7, ip, #2512	@ 0x9d0
    395c:	e2877008 	add	r7, r7, #8
    3960:	e796e000 	ldr	lr, [r6, r0]
    3964:	e157000e 	cmp	r7, lr
    3968:	0a000138 	beq	3e50 <w2c_0x24coremark0x2Ewasm_dlmalloc+0xb74>
    396c:	e786e00a 	str	lr, [r6, sl]
    3970:	e29e2010 	adds	r2, lr, #16
    3974:	e2a16000 	adc	r6, r1, #0
    3978:	e5948030 	ldr	r8, [r4, #48]	@ 0x30
    397c:	e1580002 	cmp	r8, r2
    3980:	e5942034 	ldr	r2, [r4, #52]	@ 0x34
    3984:	e0d22006 	sbcs	r2, r2, r6
    3988:	3afffed8 	bcc	34f0 <w2c_0x24coremark0x2Ewasm_dlmalloc+0x214>
    398c:	e5942010 	ldr	r2, [r4, #16]
    3990:	e082200e 	add	r2, r2, lr
    3994:	e582700c 	str	r7, [r2, #12]
    3998:	ea000131 	b	3e64 <w2c_0x24coremark0x2Ewasm_dlmalloc+0xb88>
    399c:	e3710041 	cmn	r1, #65	@ 0x41
    39a0:	83e0a000 	mvnhi	sl, #0
    39a4:	8a000195 	bhi	4000 <w2c_0x24coremark0x2Ewasm_dlmalloc+0xd24>
    39a8:	e30029b8 	movw	r2, #2488	@ 0x9b8
    39ac:	e1580002 	cmp	r8, r2
    39b0:	e2d72000 	sbcs	r2, r7, #0
    39b4:	3afffecd 	bcc	34f0 <w2c_0x24coremark0x2Ewasm_dlmalloc+0x214>
    39b8:	e5946010 	ldr	r6, [r4, #16]
    39bc:	e2811013 	add	r1, r1, #19
    39c0:	e596e9b4 	ldr	lr, [r6, #2484]	@ 0x9b4
    39c4:	e3c1a00f 	bic	sl, r1, #15
    39c8:	e35e0000 	cmp	lr, #0
    39cc:	0a00018b 	beq	4000 <w2c_0x24coremark0x2Ewasm_dlmalloc+0xd24>
    39d0:	e35a0401 	cmp	sl, #16777216	@ 0x1000000
    39d4:	2a00013c 	bcs	3ecc <w2c_0x24coremark0x2Ewasm_dlmalloc+0xbf0>
    39d8:	e1a01421 	lsr	r1, r1, #8
    39dc:	e16f1f11 	clz	r1, r1
    39e0:	e2612026 	rsb	r2, r1, #38	@ 0x26
    39e4:	e1a01081 	lsl	r1, r1, #1
    39e8:	e1a0223a 	lsr	r2, sl, r2
    39ec:	e261103e 	rsb	r1, r1, #62	@ 0x3e
    39f0:	e2022001 	and	r2, r2, #1
    39f4:	e0812002 	add	r2, r1, r2
    39f8:	e58d2018 	str	r2, [sp, #24]
    39fc:	e1a02102 	lsl	r2, r2, #2
    3a00:	e2821eae 	add	r1, r2, #2784	@ 0xae0
    3a04:	e1a02001 	mov	r2, r1
    3a08:	e2811004 	add	r1, r1, #4
    3a0c:	e1580001 	cmp	r8, r1
    3a10:	e2d71000 	sbcs	r1, r7, #0
    3a14:	3afffeb5 	bcc	34f0 <w2c_0x24coremark0x2Ewasm_dlmalloc+0x214>
    3a18:	e7962002 	ldr	r2, [r6, r2]
    3a1c:	e26a9000 	rsb	r9, sl, #0
    3a20:	e3520000 	cmp	r2, #0
    3a24:	0a00003b 	beq	3b18 <w2c_0x24coremark0x2Ewasm_dlmalloc+0x83c>
    3a28:	e59d1018 	ldr	r1, [sp, #24]
    3a2c:	e3a05000 	mov	r5, #0
    3a30:	e58d0020 	str	r0, [sp, #32]
    3a34:	e1a00009 	mov	r0, r9
    3a38:	e351001f 	cmp	r1, #31
    3a3c:	e58d5010 	str	r5, [sp, #16]
    3a40:	11a010a1 	lsrne	r1, r1, #1
    3a44:	01a0c00a 	moveq	ip, sl
    3a48:	12611019 	rsbne	r1, r1, #25
    3a4c:	e58d301c 	str	r3, [sp, #28]
    3a50:	11a0c11a 	lslne	ip, sl, r1
    3a54:	e2921008 	adds	r1, r2, #8
    3a58:	23a03001 	movcs	r3, #1
    3a5c:	33a03000 	movcc	r3, #0
    3a60:	e1580001 	cmp	r8, r1
    3a64:	e0d73003 	sbcs	r3, r7, r3
    3a68:	3afffea0 	bcc	34f0 <w2c_0x24coremark0x2Ewasm_dlmalloc+0x214>
    3a6c:	e0863002 	add	r3, r6, r2
    3a70:	e5931004 	ldr	r1, [r3, #4]
    3a74:	e3c11007 	bic	r1, r1, #7
    3a78:	e041100a 	sub	r1, r1, sl
    3a7c:	e1500001 	cmp	r0, r1
    3a80:	9a000003 	bls	3a94 <w2c_0x24coremark0x2Ewasm_dlmalloc+0x7b8>
    3a84:	e3510000 	cmp	r1, #0
    3a88:	0a0002d9 	beq	45f4 <w2c_0x24coremark0x2Ewasm_dlmalloc+0x1318>
    3a8c:	e1a00001 	mov	r0, r1
    3a90:	e58d2010 	str	r2, [sp, #16]
    3a94:	e2823014 	add	r3, r2, #20
    3a98:	e2939004 	adds	r9, r3, #4
    3a9c:	23a01001 	movcs	r1, #1
    3aa0:	33a01000 	movcc	r1, #0
    3aa4:	e1580009 	cmp	r8, r9
    3aa8:	e0d71001 	sbcs	r1, r7, r1
    3aac:	3afffe8f 	bcc	34f0 <w2c_0x24coremark0x2Ewasm_dlmalloc+0x214>
    3ab0:	e7963003 	ldr	r3, [r6, r3]
    3ab4:	e1a01eac 	lsr	r1, ip, #29
    3ab8:	e2822010 	add	r2, r2, #16
    3abc:	e2011004 	and	r1, r1, #4
    3ac0:	e0822001 	add	r2, r2, r1
    3ac4:	e2929004 	adds	r9, r2, #4
    3ac8:	23a01001 	movcs	r1, #1
    3acc:	33a01000 	movcc	r1, #0
    3ad0:	e1580009 	cmp	r8, r9
    3ad4:	e0d71001 	sbcs	r1, r7, r1
    3ad8:	3afffe84 	bcc	34f0 <w2c_0x24coremark0x2Ewasm_dlmalloc+0x214>
    3adc:	e7962002 	ldr	r2, [r6, r2]
    3ae0:	e1520003 	cmp	r2, r3
    3ae4:	e1a0c08c 	lsl	ip, ip, #1
    3ae8:	11a01003 	movne	r1, r3
    3aec:	01a01005 	moveq	r1, r5
    3af0:	e3530000 	cmp	r3, #0
    3af4:	11a05001 	movne	r5, r1
    3af8:	e3520000 	cmp	r2, #0
    3afc:	1affffd4 	bne	3a54 <w2c_0x24coremark0x2Ewasm_dlmalloc+0x778>
    3b00:	e59d2010 	ldr	r2, [sp, #16]
    3b04:	e1a09000 	mov	r9, r0
    3b08:	e59d301c 	ldr	r3, [sp, #28]
    3b0c:	e59d0020 	ldr	r0, [sp, #32]
    3b10:	e1922005 	orrs	r2, r2, r5
    3b14:	1a000302 	bne	4724 <w2c_0x24coremark0x2Ewasm_dlmalloc+0x1448>
    3b18:	e59d1018 	ldr	r1, [sp, #24]
    3b1c:	e3e02001 	mvn	r2, #1
    3b20:	e01e2112 	ands	r2, lr, r2, lsl r1
    3b24:	0a000141 	beq	4030 <w2c_0x24coremark0x2Ewasm_dlmalloc+0xd54>
    3b28:	e6ff2f32 	rbit	r2, r2
    3b2c:	e16f2f12 	clz	r2, r2
    3b30:	e1a02102 	lsl	r2, r2, #2
    3b34:	e2821eae 	add	r1, r2, #2784	@ 0xae0
    3b38:	e2811004 	add	r1, r1, #4
    3b3c:	e1580001 	cmp	r8, r1
    3b40:	e2d71000 	sbcs	r1, r7, #0
    3b44:	3afffe69 	bcc	34f0 <w2c_0x24coremark0x2Ewasm_dlmalloc+0x214>
    3b48:	e0862002 	add	r2, r6, r2
    3b4c:	e5922ae0 	ldr	r2, [r2, #2784]	@ 0xae0
    3b50:	e3520000 	cmp	r2, #0
    3b54:	13a01000 	movne	r1, #0
    3b58:	158d1010 	strne	r1, [sp, #16]
    3b5c:	0a000133 	beq	4030 <w2c_0x24coremark0x2Ewasm_dlmalloc+0xd54>
    3b60:	e58d3018 	str	r3, [sp, #24]
    3b64:	e1a03009 	mov	r3, r9
    3b68:	e292c008 	adds	ip, r2, #8
    3b6c:	23a01001 	movcs	r1, #1
    3b70:	33a01000 	movcc	r1, #0
    3b74:	e158000c 	cmp	r8, ip
    3b78:	e0d71001 	sbcs	r1, r7, r1
    3b7c:	3afffe5b 	bcc	34f0 <w2c_0x24coremark0x2Ewasm_dlmalloc+0x214>
    3b80:	e0869002 	add	r9, r6, r2
    3b84:	e5991004 	ldr	r1, [r9, #4]
    3b88:	e2925014 	adds	r5, r2, #20
    3b8c:	23a0c001 	movcs	ip, #1
    3b90:	33a0c000 	movcc	ip, #0
    3b94:	e1580005 	cmp	r8, r5
    3b98:	e0d7c00c 	sbcs	ip, r7, ip
    3b9c:	3afffe53 	bcc	34f0 <w2c_0x24coremark0x2Ewasm_dlmalloc+0x214>
    3ba0:	e599c010 	ldr	ip, [r9, #16]
    3ba4:	e35c0000 	cmp	ip, #0
    3ba8:	0a000124 	beq	4040 <w2c_0x24coremark0x2Ewasm_dlmalloc+0xd64>
    3bac:	e3c11007 	bic	r1, r1, #7
    3bb0:	e041100a 	sub	r1, r1, sl
    3bb4:	e1530001 	cmp	r3, r1
    3bb8:	9a000180 	bls	41c0 <w2c_0x24coremark0x2Ewasm_dlmalloc+0xee4>
    3bbc:	e58d2010 	str	r2, [sp, #16]
    3bc0:	21a03001 	movcs	r3, r1
    3bc4:	e1a0200c 	mov	r2, ip
    3bc8:	eaffffe6 	b	3b68 <w2c_0x24coremark0x2Ewasm_dlmalloc+0x88c>
    3bcc:	e30019bc 	movw	r1, #2492	@ 0x9bc
    3bd0:	e1580001 	cmp	r8, r1
    3bd4:	e2d71000 	sbcs	r1, r7, #0
    3bd8:	3afffe44 	bcc	34f0 <w2c_0x24coremark0x2Ewasm_dlmalloc+0x214>
    3bdc:	e59619b8 	ldr	r1, [r6, #2488]	@ 0x9b8
    3be0:	e15a0001 	cmp	sl, r1
    3be4:	9a0000bd 	bls	3ee0 <w2c_0x24coremark0x2Ewasm_dlmalloc+0xc04>
    3be8:	e3520000 	cmp	r2, #0
    3bec:	0a000176 	beq	41cc <w2c_0x24coremark0x2Ewasm_dlmalloc+0xef0>
    3bf0:	e3c23001 	bic	r3, r2, #1
    3bf4:	e1a03013 	lsl	r3, r3, r0
    3bf8:	e6ff3f33 	rbit	r3, r3
    3bfc:	e16f3f13 	clz	r3, r3
    3c00:	e1a0e183 	lsl	lr, r3, #3
    3c04:	e28e2e9e 	add	r2, lr, #2528	@ 0x9e0
    3c08:	e2822004 	add	r2, r2, #4
    3c0c:	e1580002 	cmp	r8, r2
    3c10:	e2d72000 	sbcs	r2, r7, #0
    3c14:	3afffe35 	bcc	34f0 <w2c_0x24coremark0x2Ewasm_dlmalloc+0x214>
    3c18:	e28e5e9e 	add	r5, lr, #2528	@ 0x9e0
    3c1c:	e7962005 	ldr	r2, [r6, r5]
    3c20:	e292000c 	adds	r0, r2, #12
    3c24:	e1a09000 	mov	r9, r0
    3c28:	e2ac0000 	adc	r0, ip, #0
    3c2c:	e1580009 	cmp	r8, r9
    3c30:	e0d70000 	sbcs	r0, r7, r0
    3c34:	3afffe2d 	bcc	34f0 <w2c_0x24coremark0x2Ewasm_dlmalloc+0x214>
    3c38:	e2820008 	add	r0, r2, #8
    3c3c:	e28e8e9d 	add	r8, lr, #2512	@ 0x9d0
    3c40:	e2888008 	add	r8, r8, #8
    3c44:	e7967000 	ldr	r7, [r6, r0]
    3c48:	e1580007 	cmp	r8, r7
    3c4c:	0a00010f 	beq	4090 <w2c_0x24coremark0x2Ewasm_dlmalloc+0xdb4>
    3c50:	e7867005 	str	r7, [r6, r5]
    3c54:	e2976010 	adds	r6, r7, #16
    3c58:	e2ac3000 	adc	r3, ip, #0
    3c5c:	e5945030 	ldr	r5, [r4, #48]	@ 0x30
    3c60:	e1550006 	cmp	r5, r6
    3c64:	e5946034 	ldr	r6, [r4, #52]	@ 0x34
    3c68:	e0d66003 	sbcs	r6, r6, r3
    3c6c:	3afffe1f 	bcc	34f0 <w2c_0x24coremark0x2Ewasm_dlmalloc+0x214>
    3c70:	e5943010 	ldr	r3, [r4, #16]
    3c74:	e0833007 	add	r3, r3, r7
    3c78:	e583800c 	str	r8, [r3, #12]
    3c7c:	e5946030 	ldr	r6, [r4, #48]	@ 0x30
    3c80:	e2923008 	adds	r3, r2, #8
    3c84:	e2acc000 	adc	ip, ip, #0
    3c88:	e1560003 	cmp	r6, r3
    3c8c:	e5943034 	ldr	r3, [r4, #52]	@ 0x34
    3c90:	e0d3300c 	sbcs	r3, r3, ip
    3c94:	3afffe15 	bcc	34f0 <w2c_0x24coremark0x2Ewasm_dlmalloc+0x214>
    3c98:	e5943010 	ldr	r3, [r4, #16]
    3c9c:	e38ac003 	orr	ip, sl, #3
    3ca0:	e0833002 	add	r3, r3, r2
    3ca4:	e583c004 	str	ip, [r3, #4]
    3ca8:	e08e3002 	add	r3, lr, r2
    3cac:	e2938004 	adds	r8, r3, #4
    3cb0:	e3a0c000 	mov	ip, #0
    3cb4:	e5945030 	ldr	r5, [r4, #48]	@ 0x30
    3cb8:	e2ac6000 	adc	r6, ip, #0
    3cbc:	e5947034 	ldr	r7, [r4, #52]	@ 0x34
    3cc0:	e1550008 	cmp	r5, r8
    3cc4:	e0d76006 	sbcs	r6, r7, r6
    3cc8:	3afffe08 	bcc	34f0 <w2c_0x24coremark0x2Ewasm_dlmalloc+0x214>
    3ccc:	e5946010 	ldr	r6, [r4, #16]
    3cd0:	e04ee00a 	sub	lr, lr, sl
    3cd4:	e08a2002 	add	r2, sl, r2
    3cd8:	e786e003 	str	lr, [r6, r3]
    3cdc:	e2923008 	adds	r3, r2, #8
    3ce0:	e2acc000 	adc	ip, ip, #0
    3ce4:	e5946030 	ldr	r6, [r4, #48]	@ 0x30
    3ce8:	e1560003 	cmp	r6, r3
    3cec:	e5943034 	ldr	r3, [r4, #52]	@ 0x34
    3cf0:	e0d3300c 	sbcs	r3, r3, ip
    3cf4:	3afffdfd 	bcc	34f0 <w2c_0x24coremark0x2Ewasm_dlmalloc+0x214>
    3cf8:	e5943010 	ldr	r3, [r4, #16]
    3cfc:	e38ec001 	orr	ip, lr, #1
    3d00:	e3510000 	cmp	r1, #0
    3d04:	e0833002 	add	r3, r3, r2
    3d08:	e583c004 	str	ip, [r3, #4]
    3d0c:	0a00003e 	beq	3e0c <w2c_0x24coremark0x2Ewasm_dlmalloc+0xb30>
    3d10:	e5948030 	ldr	r8, [r4, #48]	@ 0x30
    3d14:	e30039c8 	movw	r3, #2504	@ 0x9c8
    3d18:	e5947034 	ldr	r7, [r4, #52]	@ 0x34
    3d1c:	e1580003 	cmp	r8, r3
    3d20:	e2d73000 	sbcs	r3, r7, #0
    3d24:	3afffdf1 	bcc	34f0 <w2c_0x24coremark0x2Ewasm_dlmalloc+0x214>
    3d28:	e5943010 	ldr	r3, [r4, #16]
    3d2c:	e3c1a007 	bic	sl, r1, #7
    3d30:	e28a6e9d 	add	r6, sl, #2512	@ 0x9d0
    3d34:	e1a05003 	mov	r5, r3
    3d38:	e2866008 	add	r6, r6, #8
    3d3c:	e59339c4 	ldr	r3, [r3, #2500]	@ 0x9c4
    3d40:	e3a0c001 	mov	ip, #1
    3d44:	e1a011a1 	lsr	r1, r1, #3
    3d48:	e1a0c11c 	lsl	ip, ip, r1
    3d4c:	e59d1008 	ldr	r1, [sp, #8]
    3d50:	e111000c 	tst	r1, ip
    3d54:	1a00026a 	bne	4704 <w2c_0x24coremark0x2Ewasm_dlmalloc+0x1428>
    3d58:	e59d1008 	ldr	r1, [sp, #8]
    3d5c:	e181c00c 	orr	ip, r1, ip
    3d60:	e585c9b0 	str	ip, [r5, #2480]	@ 0x9b0
    3d64:	e1a01006 	mov	r1, r6
    3d68:	e5948030 	ldr	r8, [r4, #48]	@ 0x30
    3d6c:	e5947034 	ldr	r7, [r4, #52]	@ 0x34
    3d70:	e2915010 	adds	r5, r1, #16
    3d74:	e3a0c000 	mov	ip, #0
    3d78:	e2ac9000 	adc	r9, ip, #0
    3d7c:	e1580005 	cmp	r8, r5
    3d80:	e0d77009 	sbcs	r7, r7, r9
    3d84:	3afffdd9 	bcc	34f0 <w2c_0x24coremark0x2Ewasm_dlmalloc+0x214>
    3d88:	e5947010 	ldr	r7, [r4, #16]
    3d8c:	e0877001 	add	r7, r7, r1
    3d90:	e587300c 	str	r3, [r7, #12]
    3d94:	e28a7e9e 	add	r7, sl, #2528	@ 0x9e0
    3d98:	e2877004 	add	r7, r7, #4
    3d9c:	e5948030 	ldr	r8, [r4, #48]	@ 0x30
    3da0:	e1580007 	cmp	r8, r7
    3da4:	e5947034 	ldr	r7, [r4, #52]	@ 0x34
    3da8:	e2d77000 	sbcs	r7, r7, #0
    3dac:	3afffdcf 	bcc	34f0 <w2c_0x24coremark0x2Ewasm_dlmalloc+0x214>
    3db0:	e5947010 	ldr	r7, [r4, #16]
    3db4:	e087700a 	add	r7, r7, sl
    3db8:	e58739e0 	str	r3, [r7, #2528]	@ 0x9e0
    3dbc:	e2937010 	adds	r7, r3, #16
    3dc0:	e2ac8000 	adc	r8, ip, #0
    3dc4:	e594a030 	ldr	sl, [r4, #48]	@ 0x30
    3dc8:	e15a0007 	cmp	sl, r7
    3dcc:	e5947034 	ldr	r7, [r4, #52]	@ 0x34
    3dd0:	e0d77008 	sbcs	r7, r7, r8
    3dd4:	3afffdc5 	bcc	34f0 <w2c_0x24coremark0x2Ewasm_dlmalloc+0x214>
    3dd8:	e5947010 	ldr	r7, [r4, #16]
    3ddc:	e0877003 	add	r7, r7, r3
    3de0:	e587600c 	str	r6, [r7, #12]
    3de4:	e293600c 	adds	r6, r3, #12
    3de8:	e2acc000 	adc	ip, ip, #0
    3dec:	e5947030 	ldr	r7, [r4, #48]	@ 0x30
    3df0:	e1570006 	cmp	r7, r6
    3df4:	e5946034 	ldr	r6, [r4, #52]	@ 0x34
    3df8:	e0d6600c 	sbcs	r6, r6, ip
    3dfc:	3a0001fb 	bcc	45f0 <w2c_0x24coremark0x2Ewasm_dlmalloc+0x1314>
    3e00:	e594c010 	ldr	ip, [r4, #16]
    3e04:	e08c3003 	add	r3, ip, r3
    3e08:	e5831008 	str	r1, [r3, #8]
    3e0c:	e594c030 	ldr	ip, [r4, #48]	@ 0x30
    3e10:	e30019c8 	movw	r1, #2504	@ 0x9c8
    3e14:	e5943034 	ldr	r3, [r4, #52]	@ 0x34
    3e18:	e15c0001 	cmp	ip, r1
    3e1c:	e2d33000 	sbcs	r3, r3, #0
    3e20:	3afffdb2 	bcc	34f0 <w2c_0x24coremark0x2Ewasm_dlmalloc+0x214>
    3e24:	e5943010 	ldr	r3, [r4, #16]
    3e28:	e58329c4 	str	r2, [r3, #2500]	@ 0x9c4
    3e2c:	e30039bc 	movw	r3, #2492	@ 0x9bc
    3e30:	e5942030 	ldr	r2, [r4, #48]	@ 0x30
    3e34:	e1520003 	cmp	r2, r3
    3e38:	e5943034 	ldr	r3, [r4, #52]	@ 0x34
    3e3c:	e2d33000 	sbcs	r3, r3, #0
    3e40:	3afffdaa 	bcc	34f0 <w2c_0x24coremark0x2Ewasm_dlmalloc+0x214>
    3e44:	e5943010 	ldr	r3, [r4, #16]
    3e48:	e583e9b8 	str	lr, [r3, #2488]	@ 0x9b8
    3e4c:	eafffd7e 	b	344c <w2c_0x24coremark0x2Ewasm_dlmalloc+0x170>
    3e50:	e59d5008 	ldr	r5, [sp, #8]
    3e54:	e2622020 	rsb	r2, r2, #32
    3e58:	e3e0e001 	mvn	lr, #1
    3e5c:	e005227e 	and	r2, r5, lr, ror r2
    3e60:	e58629b0 	str	r2, [r6, #2480]	@ 0x9b0
    3e64:	e594e030 	ldr	lr, [r4, #48]	@ 0x30
    3e68:	e2932008 	adds	r2, r3, #8
    3e6c:	e2a11000 	adc	r1, r1, #0
    3e70:	e15e0002 	cmp	lr, r2
    3e74:	e5942034 	ldr	r2, [r4, #52]	@ 0x34
    3e78:	e0d22001 	sbcs	r2, r2, r1
    3e7c:	3afffd9b 	bcc	34f0 <w2c_0x24coremark0x2Ewasm_dlmalloc+0x214>
    3e80:	e5941010 	ldr	r1, [r4, #16]
    3e84:	e38c2003 	orr	r2, ip, #3
    3e88:	e0811003 	add	r1, r1, r3
    3e8c:	e08c3003 	add	r3, ip, r3
    3e90:	e5812004 	str	r2, [r1, #4]
    3e94:	e2932008 	adds	r2, r3, #8
    3e98:	23a01001 	movcs	r1, #1
    3e9c:	33a01000 	movcc	r1, #0
    3ea0:	e594c030 	ldr	ip, [r4, #48]	@ 0x30
    3ea4:	e15c0002 	cmp	ip, r2
    3ea8:	e5942034 	ldr	r2, [r4, #52]	@ 0x34
    3eac:	e0d22001 	sbcs	r2, r2, r1
    3eb0:	3afffd8e 	bcc	34f0 <w2c_0x24coremark0x2Ewasm_dlmalloc+0x214>
    3eb4:	e5941010 	ldr	r1, [r4, #16]
    3eb8:	e2833004 	add	r3, r3, #4
    3ebc:	e7912003 	ldr	r2, [r1, r3]
    3ec0:	e3822001 	orr	r2, r2, #1
    3ec4:	e7812003 	str	r2, [r1, r3]
    3ec8:	eafffd5f 	b	344c <w2c_0x24coremark0x2Ewasm_dlmalloc+0x170>
    3ecc:	e3a0201f 	mov	r2, #31
    3ed0:	e3a01eb6 	mov	r1, #2912	@ 0xb60
    3ed4:	e58d2018 	str	r2, [sp, #24]
    3ed8:	e3002b5c 	movw	r2, #2908	@ 0xb5c
    3edc:	eafffeca 	b	3a0c <w2c_0x24coremark0x2Ewasm_dlmalloc+0x730>
    3ee0:	e30039c8 	movw	r3, #2504	@ 0x9c8
    3ee4:	e1580003 	cmp	r8, r3
    3ee8:	e2d73000 	sbcs	r3, r7, #0
    3eec:	3afffd7f 	bcc	34f0 <w2c_0x24coremark0x2Ewasm_dlmalloc+0x214>
    3ef0:	e041200a 	sub	r2, r1, sl
    3ef4:	eafffd21 	b	3380 <w2c_0x24coremark0x2Ewasm_dlmalloc+0xa4>
    3ef8:	e3e0a000 	mvn	sl, #0
    3efc:	e59699bc 	ldr	r9, [r6, #2492]	@ 0x9bc
    3f00:	e159000a 	cmp	r9, sl
    3f04:	9a000069 	bls	40b0 <w2c_0x24coremark0x2Ewasm_dlmalloc+0xdd4>
    3f08:	e083000a 	add	r0, r3, sl
    3f0c:	e3a0c000 	mov	ip, #0
    3f10:	e290e008 	adds	lr, r0, #8
    3f14:	e2ac1000 	adc	r1, ip, #0
    3f18:	e158000e 	cmp	r8, lr
    3f1c:	e0d71001 	sbcs	r1, r7, r1
    3f20:	3afffd72 	bcc	34f0 <w2c_0x24coremark0x2Ewasm_dlmalloc+0x214>
    3f24:	e0866000 	add	r6, r6, r0
    3f28:	e049200a 	sub	r2, r9, sl
    3f2c:	e3821001 	orr	r1, r2, #1
    3f30:	e5861004 	str	r1, [r6, #4]
    3f34:	e30019cc 	movw	r1, #2508	@ 0x9cc
    3f38:	e594e030 	ldr	lr, [r4, #48]	@ 0x30
    3f3c:	e15e0001 	cmp	lr, r1
    3f40:	e5941034 	ldr	r1, [r4, #52]	@ 0x34
    3f44:	e2d11000 	sbcs	r1, r1, #0
    3f48:	3afffd68 	bcc	34f0 <w2c_0x24coremark0x2Ewasm_dlmalloc+0x214>
    3f4c:	e5941010 	ldr	r1, [r4, #16]
    3f50:	e58109c8 	str	r0, [r1, #2504]	@ 0x9c8
    3f54:	e5941030 	ldr	r1, [r4, #48]	@ 0x30
    3f58:	e3510d27 	cmp	r1, #2496	@ 0x9c0
    3f5c:	e5941034 	ldr	r1, [r4, #52]	@ 0x34
    3f60:	e2d11000 	sbcs	r1, r1, #0
    3f64:	3afffd61 	bcc	34f0 <w2c_0x24coremark0x2Ewasm_dlmalloc+0x214>
    3f68:	e5941010 	ldr	r1, [r4, #16]
    3f6c:	e2930008 	adds	r0, r3, #8
    3f70:	e58129bc 	str	r2, [r1, #2492]	@ 0x9bc
    3f74:	e2ac2000 	adc	r2, ip, #0
    3f78:	e5941030 	ldr	r1, [r4, #48]	@ 0x30
    3f7c:	e1510000 	cmp	r1, r0
    3f80:	e5941034 	ldr	r1, [r4, #52]	@ 0x34
    3f84:	e0d11002 	sbcs	r1, r1, r2
    3f88:	3afffd58 	bcc	34f0 <w2c_0x24coremark0x2Ewasm_dlmalloc+0x214>
    3f8c:	e5942010 	ldr	r2, [r4, #16]
    3f90:	e38a1003 	orr	r1, sl, #3
    3f94:	e0823003 	add	r3, r2, r3
    3f98:	e5831004 	str	r1, [r3, #4]
    3f9c:	eafffd2a 	b	344c <w2c_0x24coremark0x2Ewasm_dlmalloc+0x170>
    3fa0:	e2930008 	adds	r0, r3, #8
    3fa4:	e3a02000 	mov	r2, #0
    3fa8:	e2a2c000 	adc	ip, r2, #0
    3fac:	e1580000 	cmp	r8, r0
    3fb0:	e0d7c00c 	sbcs	ip, r7, ip
    3fb4:	3afffd4d 	bcc	34f0 <w2c_0x24coremark0x2Ewasm_dlmalloc+0x214>
    3fb8:	e0866003 	add	r6, r6, r3
    3fbc:	e0813003 	add	r3, r1, r3
    3fc0:	e3811003 	orr	r1, r1, #3
    3fc4:	e5861004 	str	r1, [r6, #4]
    3fc8:	e2931008 	adds	r1, r3, #8
    3fcc:	e2a2c000 	adc	ip, r2, #0
    3fd0:	e594e030 	ldr	lr, [r4, #48]	@ 0x30
    3fd4:	e15e0001 	cmp	lr, r1
    3fd8:	e5941034 	ldr	r1, [r4, #52]	@ 0x34
    3fdc:	e0d1100c 	sbcs	r1, r1, ip
    3fe0:	3afffd42 	bcc	34f0 <w2c_0x24coremark0x2Ewasm_dlmalloc+0x214>
    3fe4:	e594c010 	ldr	ip, [r4, #16]
    3fe8:	e2833004 	add	r3, r3, #4
    3fec:	e79c1003 	ldr	r1, [ip, r3]
    3ff0:	e3811001 	orr	r1, r1, #1
    3ff4:	e78c1003 	str	r1, [ip, r3]
    3ff8:	e1a0c002 	mov	ip, r2
    3ffc:	eafffd02 	b	340c <w2c_0x24coremark0x2Ewasm_dlmalloc+0x130>
    4000:	e30029bc 	movw	r2, #2492	@ 0x9bc
    4004:	e1580002 	cmp	r8, r2
    4008:	e2d72000 	sbcs	r2, r7, #0
    400c:	3afffd37 	bcc	34f0 <w2c_0x24coremark0x2Ewasm_dlmalloc+0x214>
    4010:	e5946010 	ldr	r6, [r4, #16]
    4014:	e59619b8 	ldr	r1, [r6, #2488]	@ 0x9b8
    4018:	e151000a 	cmp	r1, sl
    401c:	2affffaf 	bcs	3ee0 <w2c_0x24coremark0x2Ewasm_dlmalloc+0xc04>
    4020:	e3580d27 	cmp	r8, #2496	@ 0x9c0
    4024:	e2d72000 	sbcs	r2, r7, #0
    4028:	2affffb3 	bcs	3efc <w2c_0x24coremark0x2Ewasm_dlmalloc+0xc20>
    402c:	eafffd2f 	b	34f0 <w2c_0x24coremark0x2Ewasm_dlmalloc+0x214>
    4030:	e59619b8 	ldr	r1, [r6, #2488]	@ 0x9b8
    4034:	e15a0001 	cmp	sl, r1
    4038:	9affffac 	bls	3ef0 <w2c_0x24coremark0x2Ewasm_dlmalloc+0xc14>
    403c:	eaffffae 	b	3efc <w2c_0x24coremark0x2Ewasm_dlmalloc+0xc20>
    4040:	e2955004 	adds	r5, r5, #4
    4044:	e2acc000 	adc	ip, ip, #0
    4048:	e1580005 	cmp	r8, r5
    404c:	e0d7c00c 	sbcs	ip, r7, ip
    4050:	3afffd26 	bcc	34f0 <w2c_0x24coremark0x2Ewasm_dlmalloc+0x214>
    4054:	e599c014 	ldr	ip, [r9, #20]
    4058:	e3c11007 	bic	r1, r1, #7
    405c:	e59d9010 	ldr	r9, [sp, #16]
    4060:	e041100a 	sub	r1, r1, sl
    4064:	e1530001 	cmp	r3, r1
    4068:	31a05003 	movcc	r5, r3
    406c:	21a05001 	movcs	r5, r1
    4070:	e1530001 	cmp	r3, r1
    4074:	81a09002 	movhi	r9, r2
    4078:	e35c0000 	cmp	ip, #0
    407c:	e58d9010 	str	r9, [sp, #16]
    4080:	0a00005c 	beq	41f8 <w2c_0x24coremark0x2Ewasm_dlmalloc+0xf1c>
    4084:	e1a03005 	mov	r3, r5
    4088:	e1a0200c 	mov	r2, ip
    408c:	eafffeb5 	b	3b68 <w2c_0x24coremark0x2Ewasm_dlmalloc+0x88c>
    4090:	e59d5008 	ldr	r5, [sp, #8]
    4094:	e203301f 	and	r3, r3, #31
    4098:	e2633020 	rsb	r3, r3, #32
    409c:	e3e07001 	mvn	r7, #1
    40a0:	e0053377 	and	r3, r5, r7, ror r3
    40a4:	e58d3008 	str	r3, [sp, #8]
    40a8:	e58639b0 	str	r3, [r6, #2480]	@ 0x9b0
    40ac:	eafffef2 	b	3c7c <w2c_0x24coremark0x2Ewasm_dlmalloc+0x9a0>
    40b0:	e300eb8c 	movw	lr, #2956	@ 0xb8c
    40b4:	e158000e 	cmp	r8, lr
    40b8:	e2d71000 	sbcs	r1, r7, #0
    40bc:	3afffd0b 	bcc	34f0 <w2c_0x24coremark0x2Ewasm_dlmalloc+0x214>
    40c0:	e5961b88 	ldr	r1, [r6, #2952]	@ 0xb88
    40c4:	e3510000 	cmp	r1, #0
    40c8:	1a0000cc 	bne	4400 <w2c_0x24coremark0x2Ewasm_dlmalloc+0x1124>
    40cc:	e3000b9c 	movw	r0, #2972	@ 0xb9c
    40d0:	e1580000 	cmp	r8, r0
    40d4:	e2d77000 	sbcs	r7, r7, #0
    40d8:	3afffd04 	bcc	34f0 <w2c_0x24coremark0x2Ewasm_dlmalloc+0x214>
    40dc:	e3e00000 	mvn	r0, #0
    40e0:	e5860b94 	str	r0, [r6, #2964]	@ 0xb94
    40e4:	e5860b98 	str	r0, [r6, #2968]	@ 0xb98
    40e8:	e3000b94 	movw	r0, #2964	@ 0xb94
    40ec:	e594c030 	ldr	ip, [r4, #48]	@ 0x30
    40f0:	e15c0000 	cmp	ip, r0
    40f4:	e5940034 	ldr	r0, [r4, #52]	@ 0x34
    40f8:	e2d00000 	sbcs	r0, r0, #0
    40fc:	3afffcfb 	bcc	34f0 <w2c_0x24coremark0x2Ewasm_dlmalloc+0x214>
    4100:	e5940010 	ldr	r0, [r4, #16]
    4104:	e3a0c801 	mov	ip, #65536	@ 0x10000
    4108:	e580cb8c 	str	ip, [r0, #2956]	@ 0xb8c
    410c:	e580cb90 	str	ip, [r0, #2960]	@ 0xb90
    4110:	e5940030 	ldr	r0, [r4, #48]	@ 0x30
    4114:	e150000e 	cmp	r0, lr
    4118:	e5940034 	ldr	r0, [r4, #52]	@ 0x34
    411c:	e2d00000 	sbcs	r0, r0, #0
    4120:	3afffcf2 	bcc	34f0 <w2c_0x24coremark0x2Ewasm_dlmalloc+0x214>
    4124:	e594e010 	ldr	lr, [r4, #16]
    4128:	e24bc004 	sub	ip, fp, #4
    412c:	e3ccc00f 	bic	ip, ip, #15
    4130:	e3050558 	movw	r0, #21848	@ 0x5558
    4134:	e3450555 	movt	r0, #21845	@ 0x5555
    4138:	e020000c 	eor	r0, r0, ip
    413c:	e58e0b88 	str	r0, [lr, #2952]	@ 0xb88
    4140:	e5940030 	ldr	r0, [r4, #48]	@ 0x30
    4144:	e3500eba 	cmp	r0, #2976	@ 0xba0
    4148:	e5940034 	ldr	r0, [r4, #52]	@ 0x34
    414c:	e2d00000 	sbcs	r0, r0, #0
    4150:	3a000126 	bcc	45f0 <w2c_0x24coremark0x2Ewasm_dlmalloc+0x1314>
    4154:	e5940010 	ldr	r0, [r4, #16]
    4158:	e5801b9c 	str	r1, [r0, #2972]	@ 0xb9c
    415c:	e5940030 	ldr	r0, [r4, #48]	@ 0x30
    4160:	e3500eb7 	cmp	r0, #2928	@ 0xb70
    4164:	e5940034 	ldr	r0, [r4, #52]	@ 0x34
    4168:	e2d00000 	sbcs	r0, r0, #0
    416c:	3a00011f 	bcc	45f0 <w2c_0x24coremark0x2Ewasm_dlmalloc+0x1314>
    4170:	e5940010 	ldr	r0, [r4, #16]
    4174:	e5801b6c 	str	r1, [r0, #2924]	@ 0xb6c
    4178:	e28a1801 	add	r1, sl, #65536	@ 0x10000
    417c:	e2811047 	add	r1, r1, #71	@ 0x47
    4180:	e5942030 	ldr	r2, [r4, #48]	@ 0x30
    4184:	e1a07821 	lsr	r7, r1, #16
    4188:	e5940034 	ldr	r0, [r4, #52]	@ 0x34
    418c:	e58d2008 	str	r2, [sp, #8]
    4190:	e1a07807 	lsl	r7, r7, #16
    4194:	e157000a 	cmp	r7, sl
    4198:	8a000169 	bhi	4744 <w2c_0x24coremark0x2Ewasm_dlmalloc+0x1468>
    419c:	e59d3008 	ldr	r3, [sp, #8]
    41a0:	e3530e9b 	cmp	r3, #2480	@ 0x9b0
    41a4:	e2d00000 	sbcs	r0, r0, #0
    41a8:	3afffcd0 	bcc	34f0 <w2c_0x24coremark0x2Ewasm_dlmalloc+0x214>
    41ac:	e5946010 	ldr	r6, [r4, #16]
    41b0:	e3a03030 	mov	r3, #48	@ 0x30
    41b4:	e3a00000 	mov	r0, #0
    41b8:	e58639ac 	str	r3, [r6, #2476]	@ 0x9ac
    41bc:	eafffca2 	b	344c <w2c_0x24coremark0x2Ewasm_dlmalloc+0x170>
    41c0:	21a03001 	movcs	r3, r1
    41c4:	e1a0200c 	mov	r2, ip
    41c8:	eafffe66 	b	3b68 <w2c_0x24coremark0x2Ewasm_dlmalloc+0x88c>
    41cc:	e59609b4 	ldr	r0, [r6, #2484]	@ 0x9b4
    41d0:	e58d0010 	str	r0, [sp, #16]
    41d4:	e3500000 	cmp	r0, #0
    41d8:	1a00010a 	bne	4608 <w2c_0x24coremark0x2Ewasm_dlmalloc+0x132c>
    41dc:	e1a00007 	mov	r0, r7
    41e0:	e58d8008 	str	r8, [sp, #8]
    41e4:	eaffff8b 	b	4018 <w2c_0x24coremark0x2Ewasm_dlmalloc+0xd3c>
    41e8:	00000eec 	.word	0x00000eec
    41ec:	00000eec 	.word	0x00000eec
    41f0:	00000d8c 	.word	0x00000d8c
    41f4:	00000d8c 	.word	0x00000d8c
    41f8:	e59d3018 	ldr	r3, [sp, #24]
    41fc:	e58d5018 	str	r5, [sp, #24]
    4200:	e59dc010 	ldr	ip, [sp, #16]
    4204:	e59619b8 	ldr	r1, [r6, #2488]	@ 0x9b8
    4208:	e35c0000 	cmp	ip, #0
    420c:	0a000149 	beq	4738 <w2c_0x24coremark0x2Ewasm_dlmalloc+0x145c>
    4210:	e59d5018 	ldr	r5, [sp, #24]
    4214:	e041200a 	sub	r2, r1, sl
    4218:	e1550002 	cmp	r5, r2
    421c:	2a000135 	bcs	46f8 <w2c_0x24coremark0x2Ewasm_dlmalloc+0x141c>
    4220:	e29c201c 	adds	r2, ip, #28
    4224:	e3a00000 	mov	r0, #0
    4228:	e2a03000 	adc	r3, r0, #0
    422c:	e1580002 	cmp	r8, r2
    4230:	e0d73003 	sbcs	r3, r7, r3
    4234:	3afffcad 	bcc	34f0 <w2c_0x24coremark0x2Ewasm_dlmalloc+0x214>
    4238:	e086100c 	add	r1, r6, ip
    423c:	e5913018 	ldr	r3, [r1, #24]
    4240:	e58d3008 	str	r3, [sp, #8]
    4244:	e29c2010 	adds	r2, ip, #16
    4248:	e2a03000 	adc	r3, r0, #0
    424c:	e1580002 	cmp	r8, r2
    4250:	e0d73003 	sbcs	r3, r7, r3
    4254:	3afffca5 	bcc	34f0 <w2c_0x24coremark0x2Ewasm_dlmalloc+0x214>
    4258:	e591000c 	ldr	r0, [r1, #12]
    425c:	e15c0000 	cmp	ip, r0
    4260:	0a0001c5 	beq	497c <w2c_0x24coremark0x2Ewasm_dlmalloc+0x16a0>
    4264:	e59d3010 	ldr	r3, [sp, #16]
    4268:	e3a0c000 	mov	ip, #0
    426c:	e293200c 	adds	r2, r3, #12
    4270:	e2ac3000 	adc	r3, ip, #0
    4274:	e1580002 	cmp	r8, r2
    4278:	e0d73003 	sbcs	r3, r7, r3
    427c:	3afffc9b 	bcc	34f0 <w2c_0x24coremark0x2Ewasm_dlmalloc+0x214>
    4280:	e5913008 	ldr	r3, [r1, #8]
    4284:	e59629c0 	ldr	r2, [r6, #2496]	@ 0x9c0
    4288:	e290100c 	adds	r1, r0, #12
    428c:	e2ac2000 	adc	r2, ip, #0
    4290:	e1580001 	cmp	r8, r1
    4294:	e0d72002 	sbcs	r2, r7, r2
    4298:	3afffc94 	bcc	34f0 <w2c_0x24coremark0x2Ewasm_dlmalloc+0x214>
    429c:	e0866000 	add	r6, r6, r0
    42a0:	e2931010 	adds	r1, r3, #16
    42a4:	e2ac2000 	adc	r2, ip, #0
    42a8:	e5863008 	str	r3, [r6, #8]
    42ac:	e594c030 	ldr	ip, [r4, #48]	@ 0x30
    42b0:	e15c0001 	cmp	ip, r1
    42b4:	e5941034 	ldr	r1, [r4, #52]	@ 0x34
    42b8:	e0d11002 	sbcs	r1, r1, r2
    42bc:	3a0000cb 	bcc	45f0 <w2c_0x24coremark0x2Ewasm_dlmalloc+0x1314>
    42c0:	e5942010 	ldr	r2, [r4, #16]
    42c4:	e1a0c000 	mov	ip, r0
    42c8:	e0823003 	add	r3, r2, r3
    42cc:	e583000c 	str	r0, [r3, #12]
    42d0:	e5948030 	ldr	r8, [r4, #48]	@ 0x30
    42d4:	e5947034 	ldr	r7, [r4, #52]	@ 0x34
    42d8:	e59d3008 	ldr	r3, [sp, #8]
    42dc:	e3530000 	cmp	r3, #0
    42e0:	0a000025 	beq	437c <w2c_0x24coremark0x2Ewasm_dlmalloc+0x10a0>
    42e4:	e59d9010 	ldr	r9, [sp, #16]
    42e8:	e2992020 	adds	r2, r9, #32
    42ec:	23a03001 	movcs	r3, #1
    42f0:	33a03000 	movcc	r3, #0
    42f4:	e1580002 	cmp	r8, r2
    42f8:	e0d73003 	sbcs	r3, r7, r3
    42fc:	3afffc7b 	bcc	34f0 <w2c_0x24coremark0x2Ewasm_dlmalloc+0x214>
    4300:	e5940010 	ldr	r0, [r4, #16]
    4304:	e0803009 	add	r3, r0, r9
    4308:	e593501c 	ldr	r5, [r3, #28]
    430c:	e1a03105 	lsl	r3, r5, #2
    4310:	e3a06000 	mov	r6, #0
    4314:	e2831eae 	add	r1, r3, #2784	@ 0xae0
    4318:	e2912004 	adds	r2, r1, #4
    431c:	e2a63000 	adc	r3, r6, #0
    4320:	e1580002 	cmp	r8, r2
    4324:	e0d73003 	sbcs	r3, r7, r3
    4328:	3afffc70 	bcc	34f0 <w2c_0x24coremark0x2Ewasm_dlmalloc+0x214>
    432c:	e7903001 	ldr	r3, [r0, r1]
    4330:	e1590003 	cmp	r9, r3
    4334:	1a000281 	bne	4d40 <w2c_0x24coremark0x2Ewasm_dlmalloc+0x1a64>
    4338:	e35c0000 	cmp	ip, #0
    433c:	e780c001 	str	ip, [r0, r1]
    4340:	1a000293 	bne	4d94 <w2c_0x24coremark0x2Ewasm_dlmalloc+0x1ab8>
    4344:	e5941030 	ldr	r1, [r4, #48]	@ 0x30
    4348:	e30029b8 	movw	r2, #2488	@ 0x9b8
    434c:	e5943034 	ldr	r3, [r4, #52]	@ 0x34
    4350:	e1510002 	cmp	r1, r2
    4354:	e2d33000 	sbcs	r3, r3, #0
    4358:	3a0000a4 	bcc	45f0 <w2c_0x24coremark0x2Ewasm_dlmalloc+0x1314>
    435c:	e5942010 	ldr	r2, [r4, #16]
    4360:	e205301f 	and	r3, r5, #31
    4364:	e2633020 	rsb	r3, r3, #32
    4368:	e3e01001 	mvn	r1, #1
    436c:	e00ee371 	and	lr, lr, r1, ror r3
    4370:	e582e9b4 	str	lr, [r2, #2484]	@ 0x9b4
    4374:	e5948030 	ldr	r8, [r4, #48]	@ 0x30
    4378:	e5947034 	ldr	r7, [r4, #52]	@ 0x34
    437c:	e59d3018 	ldr	r3, [sp, #24]
    4380:	e59d0010 	ldr	r0, [sp, #16]
    4384:	e353000f 	cmp	r3, #15
    4388:	8a0001b5 	bhi	4a64 <w2c_0x24coremark0x2Ewasm_dlmalloc+0x1788>
    438c:	e2902008 	adds	r2, r0, #8
    4390:	23a03001 	movcs	r3, #1
    4394:	33a03000 	movcc	r3, #0
    4398:	e1580002 	cmp	r8, r2
    439c:	e1a09002 	mov	r9, r2
    43a0:	e0d73003 	sbcs	r3, r7, r3
    43a4:	3a000091 	bcc	45f0 <w2c_0x24coremark0x2Ewasm_dlmalloc+0x1314>
    43a8:	e5941010 	ldr	r1, [r4, #16]
    43ac:	e59d3018 	ldr	r3, [sp, #24]
    43b0:	e0811000 	add	r1, r1, r0
    43b4:	e183200a 	orr	r2, r3, sl
    43b8:	e0803002 	add	r3, r0, r2
    43bc:	e3822003 	orr	r2, r2, #3
    43c0:	e5812004 	str	r2, [r1, #4]
    43c4:	e2932008 	adds	r2, r3, #8
    43c8:	23a01001 	movcs	r1, #1
    43cc:	33a01000 	movcc	r1, #0
    43d0:	e5940030 	ldr	r0, [r4, #48]	@ 0x30
    43d4:	e1500002 	cmp	r0, r2
    43d8:	e5942034 	ldr	r2, [r4, #52]	@ 0x34
    43dc:	e0d22001 	sbcs	r2, r2, r1
    43e0:	3afffc42 	bcc	34f0 <w2c_0x24coremark0x2Ewasm_dlmalloc+0x214>
    43e4:	e5941010 	ldr	r1, [r4, #16]
    43e8:	e2833004 	add	r3, r3, #4
    43ec:	e7912003 	ldr	r2, [r1, r3]
    43f0:	e3822001 	orr	r2, r2, #1
    43f4:	e7812003 	str	r2, [r1, r3]
    43f8:	e1a00009 	mov	r0, r9
    43fc:	eafffc12 	b	344c <w2c_0x24coremark0x2Ewasm_dlmalloc+0x170>
    4400:	e3001b94 	movw	r1, #2964	@ 0xb94
    4404:	e1580001 	cmp	r8, r1
    4408:	e2d77000 	sbcs	r7, r7, #0
    440c:	3afffc37 	bcc	34f0 <w2c_0x24coremark0x2Ewasm_dlmalloc+0x214>
    4410:	e5961b90 	ldr	r1, [r6, #2960]	@ 0xb90
    4414:	e28a2047 	add	r2, sl, #71	@ 0x47
    4418:	e2618000 	rsb	r8, r1, #0
    441c:	e0821001 	add	r1, r2, r1
    4420:	e58d2010 	str	r2, [sp, #16]
    4424:	e0087001 	and	r7, r8, r1
    4428:	e157000a 	cmp	r7, sl
    442c:	9affff5f 	bls	41b0 <w2c_0x24coremark0x2Ewasm_dlmalloc+0xed4>
    4430:	e596eb68 	ldr	lr, [r6, #2920]	@ 0xb68
    4434:	e35e0000 	cmp	lr, #0
    4438:	0a00000d 	beq	4474 <w2c_0x24coremark0x2Ewasm_dlmalloc+0x1198>
    443c:	e5962b60 	ldr	r2, [r6, #2912]	@ 0xb60
    4440:	e087c002 	add	ip, r7, r2
    4444:	e15c0002 	cmp	ip, r2
    4448:	83a02001 	movhi	r2, #1
    444c:	93a02000 	movls	r2, #0
    4450:	e15c000e 	cmp	ip, lr
    4454:	83a02000 	movhi	r2, #0
    4458:	e3520000 	cmp	r2, #0
    445c:	0affff53 	beq	41b0 <w2c_0x24coremark0x2Ewasm_dlmalloc+0xed4>
    4460:	e59d2008 	ldr	r2, [sp, #8]
    4464:	e242eeb6 	sub	lr, r2, #2912	@ 0xb60
    4468:	e24ee00c 	sub	lr, lr, #12
    446c:	e19ee000 	orrs	lr, lr, r0
    4470:	0afffc1e 	beq	34f0 <w2c_0x24coremark0x2Ewasm_dlmalloc+0x214>
    4474:	e5d6eb6c 	ldrb	lr, [r6, #2924]	@ 0xb6c
    4478:	e21e2004 	ands	r2, lr, #4
    447c:	e58d2018 	str	r2, [sp, #24]
    4480:	1a000174 	bne	4a58 <w2c_0x24coremark0x2Ewasm_dlmalloc+0x177c>
    4484:	e3a05eb7 	mov	r5, #2928	@ 0xb70
    4488:	e58d1024 	str	r1, [sp, #36]	@ 0x24
    448c:	e59dc018 	ldr	ip, [sp, #24]
    4490:	e2952004 	adds	r2, r5, #4
    4494:	e59d1008 	ldr	r1, [sp, #8]
    4498:	e2acc000 	adc	ip, ip, #0
    449c:	e58d201c 	str	r2, [sp, #28]
    44a0:	e1510002 	cmp	r1, r2
    44a4:	e58dc020 	str	ip, [sp, #32]
    44a8:	e0d0200c 	sbcs	r2, r0, ip
    44ac:	3afffc0f 	bcc	34f0 <w2c_0x24coremark0x2Ewasm_dlmalloc+0x214>
    44b0:	e7962005 	ldr	r2, [r6, r5]
    44b4:	e1530002 	cmp	r3, r2
    44b8:	3a00000a 	bcc	44e8 <w2c_0x24coremark0x2Ewasm_dlmalloc+0x120c>
    44bc:	e59dc018 	ldr	ip, [sp, #24]
    44c0:	e295e008 	adds	lr, r5, #8
    44c4:	e2acc000 	adc	ip, ip, #0
    44c8:	e151000e 	cmp	r1, lr
    44cc:	e0d0c00c 	sbcs	ip, r0, ip
    44d0:	3afffc06 	bcc	34f0 <w2c_0x24coremark0x2Ewasm_dlmalloc+0x214>
    44d4:	e086c005 	add	ip, r6, r5
    44d8:	e59cc004 	ldr	ip, [ip, #4]
    44dc:	e082200c 	add	r2, r2, ip
    44e0:	e1520003 	cmp	r2, r3
    44e4:	8a0006d7 	bhi	6048 <w2c_0x24coremark0x2Ewasm_dlmalloc+0x2d6c>
    44e8:	e59d2018 	ldr	r2, [sp, #24]
    44ec:	e295c00c 	adds	ip, r5, #12
    44f0:	e59d1008 	ldr	r1, [sp, #8]
    44f4:	e2a22000 	adc	r2, r2, #0
    44f8:	e151000c 	cmp	r1, ip
    44fc:	e0d02002 	sbcs	r2, r0, r2
    4500:	3afffbfa 	bcc	34f0 <w2c_0x24coremark0x2Ewasm_dlmalloc+0x214>
    4504:	e0865005 	add	r5, r6, r5
    4508:	e5955008 	ldr	r5, [r5, #8]
    450c:	e3550000 	cmp	r5, #0
    4510:	1affffdd 	bne	448c <w2c_0x24coremark0x2Ewasm_dlmalloc+0x11b0>
    4514:	e1a01005 	mov	r1, r5
    4518:	e1a00004 	mov	r0, r4
    451c:	ebfff031 	bl	5e8 <w2c_0x24coremark0x2Ewasm_sbrk>
    4520:	e1a06000 	mov	r6, r0
    4524:	e3700001 	cmn	r0, #1
    4528:	0a000014 	beq	4580 <w2c_0x24coremark0x2Ewasm_dlmalloc+0x12a4>
    452c:	e3002b8c 	movw	r2, #2956	@ 0xb8c
    4530:	e3a03000 	mov	r3, #0
    4534:	e59d000c 	ldr	r0, [sp, #12]
    4538:	ebffeeb0 	bl	0 <i32_load_default32>
    453c:	e2403001 	sub	r3, r0, #1
    4540:	e1160003 	tst	r6, r3
    4544:	058d7008 	streq	r7, [sp, #8]
    4548:	10862003 	addne	r2, r6, r3
    454c:	12603000 	rsbne	r3, r0, #0
    4550:	10033002 	andne	r3, r3, r2
    4554:	10472006 	subne	r2, r7, r6
    4558:	10823003 	addne	r3, r2, r3
    455c:	158d3008 	strne	r3, [sp, #8]
    4560:	e59d2008 	ldr	r2, [sp, #8]
    4564:	e372010a 	cmn	r2, #-2147483646	@ 0x80000002
    4568:	93a03000 	movls	r3, #0
    456c:	83a03001 	movhi	r3, #1
    4570:	e152000a 	cmp	r2, sl
    4574:	93833001 	orrls	r3, r3, #1
    4578:	e3530000 	cmp	r3, #0
    457c:	0a00064e 	beq	5ebc <w2c_0x24coremark0x2Ewasm_dlmalloc+0x2be0>
    4580:	e3a03000 	mov	r3, #0
    4584:	e59d000c 	ldr	r0, [sp, #12]
    4588:	e3002b6c 	movw	r2, #2924	@ 0xb6c
    458c:	ebffee9b 	bl	0 <i32_load_default32>
    4590:	e5943030 	ldr	r3, [r4, #48]	@ 0x30
    4594:	e3530eb7 	cmp	r3, #2928	@ 0xb70
    4598:	e5943034 	ldr	r3, [r4, #52]	@ 0x34
    459c:	e2d33000 	sbcs	r3, r3, #0
    45a0:	3a000012 	bcc	45f0 <w2c_0x24coremark0x2Ewasm_dlmalloc+0x1314>
    45a4:	e5942010 	ldr	r2, [r4, #16]
    45a8:	e3803004 	orr	r3, r0, #4
    45ac:	e377010a 	cmn	r7, #-2147483646	@ 0x80000002
    45b0:	e5823b6c 	str	r3, [r2, #2924]	@ 0xb6c
    45b4:	8a000009 	bhi	45e0 <w2c_0x24coremark0x2Ewasm_dlmalloc+0x1304>
    45b8:	e1a01007 	mov	r1, r7
    45bc:	e1a00004 	mov	r0, r4
    45c0:	ebfff008 	bl	5e8 <w2c_0x24coremark0x2Ewasm_sbrk>
    45c4:	e3a01000 	mov	r1, #0
    45c8:	e1a08000 	mov	r8, r0
    45cc:	e1a00004 	mov	r0, r4
    45d0:	ebfff004 	bl	5e8 <w2c_0x24coremark0x2Ewasm_sbrk>
    45d4:	e3700001 	cmn	r0, #1
    45d8:	11580000 	cmpne	r8, r0
    45dc:	3a00023b 	bcc	4ed0 <w2c_0x24coremark0x2Ewasm_dlmalloc+0x1bf4>
    45e0:	e1c423d0 	ldrd	r2, [r4, #48]	@ 0x30
    45e4:	e3520e9b 	cmp	r2, #2480	@ 0x9b0
    45e8:	e2d33000 	sbcs	r3, r3, #0
    45ec:	2afffeee 	bcs	41ac <w2c_0x24coremark0x2Ewasm_dlmalloc+0xed0>
    45f0:	ebffeeb7 	bl	d4 <f64_store_default32.part.0>
    45f4:	e59d301c 	ldr	r3, [sp, #28]
    45f8:	e1a09001 	mov	r9, r1
    45fc:	e59d0020 	ldr	r0, [sp, #32]
    4600:	e58d2010 	str	r2, [sp, #16]
    4604:	eafffd55 	b	3b60 <w2c_0x24coremark0x2Ewasm_dlmalloc+0x884>
    4608:	e59d3010 	ldr	r3, [sp, #16]
    460c:	e6ff3f33 	rbit	r3, r3
    4610:	e16f3f13 	clz	r3, r3
    4614:	e1a03103 	lsl	r3, r3, #2
    4618:	e2830eae 	add	r0, r3, #2784	@ 0xae0
    461c:	e2800004 	add	r0, r0, #4
    4620:	e1580000 	cmp	r8, r0
    4624:	e2d70000 	sbcs	r0, r7, #0
    4628:	3afffbb0 	bcc	34f0 <w2c_0x24coremark0x2Ewasm_dlmalloc+0x214>
    462c:	e0863003 	add	r3, r6, r3
    4630:	e5935ae0 	ldr	r5, [r3, #2784]	@ 0xae0
    4634:	e2950008 	adds	r0, r5, #8
    4638:	e2a23000 	adc	r3, r2, #0
    463c:	e1580000 	cmp	r8, r0
    4640:	e0d73003 	sbcs	r3, r7, r3
    4644:	3afffba9 	bcc	34f0 <w2c_0x24coremark0x2Ewasm_dlmalloc+0x214>
    4648:	e0860005 	add	r0, r6, r5
    464c:	e5903004 	ldr	r3, [r0, #4]
    4650:	e295c014 	adds	ip, r5, #20
    4654:	e2a2e000 	adc	lr, r2, #0
    4658:	e158000c 	cmp	r8, ip
    465c:	e0d7e00e 	sbcs	lr, r7, lr
    4660:	3afffba2 	bcc	34f0 <w2c_0x24coremark0x2Ewasm_dlmalloc+0x214>
    4664:	e3c33007 	bic	r3, r3, #7
    4668:	e043e00a 	sub	lr, r3, sl
    466c:	e5903010 	ldr	r3, [r0, #16]
    4670:	e3530000 	cmp	r3, #0
    4674:	1a000007 	bne	4698 <w2c_0x24coremark0x2Ewasm_dlmalloc+0x13bc>
    4678:	e29cc004 	adds	ip, ip, #4
    467c:	e2a33000 	adc	r3, r3, #0
    4680:	e158000c 	cmp	r8, ip
    4684:	e0d73003 	sbcs	r3, r7, r3
    4688:	3afffb98 	bcc	34f0 <w2c_0x24coremark0x2Ewasm_dlmalloc+0x214>
    468c:	e5903014 	ldr	r3, [r0, #20]
    4690:	e3530000 	cmp	r3, #0
    4694:	0a000038 	beq	477c <w2c_0x24coremark0x2Ewasm_dlmalloc+0x14a0>
    4698:	e293c008 	adds	ip, r3, #8
    469c:	e2a20000 	adc	r0, r2, #0
    46a0:	e158000c 	cmp	r8, ip
    46a4:	e0d70000 	sbcs	r0, r7, r0
    46a8:	3afffb90 	bcc	34f0 <w2c_0x24coremark0x2Ewasm_dlmalloc+0x214>
    46ac:	e0860003 	add	r0, r6, r3
    46b0:	e590c004 	ldr	ip, [r0, #4]
    46b4:	e3ccc007 	bic	ip, ip, #7
    46b8:	e04cc00a 	sub	ip, ip, sl
    46bc:	e15c000e 	cmp	ip, lr
    46c0:	31a0900c 	movcc	r9, ip
    46c4:	21a0900e 	movcs	r9, lr
    46c8:	e15c000e 	cmp	ip, lr
    46cc:	31a05003 	movcc	r5, r3
    46d0:	e293c014 	adds	ip, r3, #20
    46d4:	e2a23000 	adc	r3, r2, #0
    46d8:	e158000c 	cmp	r8, ip
    46dc:	e0d73003 	sbcs	r3, r7, r3
    46e0:	3afffb82 	bcc	34f0 <w2c_0x24coremark0x2Ewasm_dlmalloc+0x214>
    46e4:	e5903010 	ldr	r3, [r0, #16]
    46e8:	e1a0e009 	mov	lr, r9
    46ec:	e3530000 	cmp	r3, #0
    46f0:	0affffe0 	beq	4678 <w2c_0x24coremark0x2Ewasm_dlmalloc+0x139c>
    46f4:	eaffffe7 	b	4698 <w2c_0x24coremark0x2Ewasm_dlmalloc+0x13bc>
    46f8:	e15a0001 	cmp	sl, r1
    46fc:	9afffb1f 	bls	3380 <w2c_0x24coremark0x2Ewasm_dlmalloc+0xa4>
    4700:	eafffdfd 	b	3efc <w2c_0x24coremark0x2Ewasm_dlmalloc+0xc20>
    4704:	e28a1e9e 	add	r1, sl, #2528	@ 0x9e0
    4708:	e2811004 	add	r1, r1, #4
    470c:	e1580001 	cmp	r8, r1
    4710:	e2d71000 	sbcs	r1, r7, #0
    4714:	3afffb75 	bcc	34f0 <w2c_0x24coremark0x2Ewasm_dlmalloc+0x214>
    4718:	e085100a 	add	r1, r5, sl
    471c:	e59119e0 	ldr	r1, [r1, #2528]	@ 0x9e0
    4720:	eafffd92 	b	3d70 <w2c_0x24coremark0x2Ewasm_dlmalloc+0xa94>
    4724:	e1a02005 	mov	r2, r5
    4728:	e3550000 	cmp	r5, #0
    472c:	1afffd0b 	bne	3b60 <w2c_0x24coremark0x2Ewasm_dlmalloc+0x884>
    4730:	e58d9018 	str	r9, [sp, #24]
    4734:	eafffeb1 	b	4200 <w2c_0x24coremark0x2Ewasm_dlmalloc+0xf24>
    4738:	e15a0001 	cmp	sl, r1
    473c:	9afffdeb 	bls	3ef0 <w2c_0x24coremark0x2Ewasm_dlmalloc+0xc14>
    4740:	eafffded 	b	3efc <w2c_0x24coremark0x2Ewasm_dlmalloc+0xc20>
    4744:	e59d2008 	ldr	r2, [sp, #8]
    4748:	e300eb6c 	movw	lr, #2924	@ 0xb6c
    474c:	e152000e 	cmp	r2, lr
    4750:	e2d0e000 	sbcs	lr, r0, #0
    4754:	3afffb65 	bcc	34f0 <w2c_0x24coremark0x2Ewasm_dlmalloc+0x214>
    4758:	e5946010 	ldr	r6, [r4, #16]
    475c:	e28a2047 	add	r2, sl, #71	@ 0x47
    4760:	e58d2010 	str	r2, [sp, #16]
    4764:	e596eb68 	ldr	lr, [r6, #2920]	@ 0xb68
    4768:	e3a08000 	mov	r8, #0
    476c:	e34f8fff 	movt	r8, #65535	@ 0xffff
    4770:	e35e0000 	cmp	lr, #0
    4774:	0affff39 	beq	4460 <w2c_0x24coremark0x2Ewasm_dlmalloc+0x1184>
    4778:	eaffff2f 	b	443c <w2c_0x24coremark0x2Ewasm_dlmalloc+0x1160>
    477c:	e295201c 	adds	r2, r5, #28
    4780:	e1a0c003 	mov	ip, r3
    4784:	e58d301c 	str	r3, [sp, #28]
    4788:	e2a33000 	adc	r3, r3, #0
    478c:	e1580002 	cmp	r8, r2
    4790:	e58d5018 	str	r5, [sp, #24]
    4794:	e0d73003 	sbcs	r3, r7, r3
    4798:	e58de020 	str	lr, [sp, #32]
    479c:	3afffb53 	bcc	34f0 <w2c_0x24coremark0x2Ewasm_dlmalloc+0x214>
    47a0:	e0863005 	add	r3, r6, r5
    47a4:	e5932018 	ldr	r2, [r3, #24]
    47a8:	e58d2024 	str	r2, [sp, #36]	@ 0x24
    47ac:	e2952010 	adds	r2, r5, #16
    47b0:	e58d2028 	str	r2, [sp, #40]	@ 0x28
    47b4:	e2acc000 	adc	ip, ip, #0
    47b8:	e1580002 	cmp	r8, r2
    47bc:	e0d7200c 	sbcs	r2, r7, ip
    47c0:	e58dc02c 	str	ip, [sp, #44]	@ 0x2c
    47c4:	3afffb49 	bcc	34f0 <w2c_0x24coremark0x2Ewasm_dlmalloc+0x214>
    47c8:	e593200c 	ldr	r2, [r3, #12]
    47cc:	e1a09002 	mov	r9, r2
    47d0:	e1550002 	cmp	r5, r2
    47d4:	0a000123 	beq	4c68 <w2c_0x24coremark0x2Ewasm_dlmalloc+0x198c>
    47d8:	e59d2018 	ldr	r2, [sp, #24]
    47dc:	e59dc01c 	ldr	ip, [sp, #28]
    47e0:	e292000c 	adds	r0, r2, #12
    47e4:	e2ac2000 	adc	r2, ip, #0
    47e8:	e1580000 	cmp	r8, r0
    47ec:	e0d72002 	sbcs	r2, r7, r2
    47f0:	3afffb3e 	bcc	34f0 <w2c_0x24coremark0x2Ewasm_dlmalloc+0x214>
    47f4:	e5933008 	ldr	r3, [r3, #8]
    47f8:	e59629c0 	ldr	r2, [r6, #2496]	@ 0x9c0
    47fc:	e299000c 	adds	r0, r9, #12
    4800:	e2ac2000 	adc	r2, ip, #0
    4804:	e1580000 	cmp	r8, r0
    4808:	e0d72002 	sbcs	r2, r7, r2
    480c:	3affff77 	bcc	45f0 <w2c_0x24coremark0x2Ewasm_dlmalloc+0x1314>
    4810:	e0866009 	add	r6, r6, r9
    4814:	e2932010 	adds	r2, r3, #16
    4818:	e2ac0000 	adc	r0, ip, #0
    481c:	e5863008 	str	r3, [r6, #8]
    4820:	e594c030 	ldr	ip, [r4, #48]	@ 0x30
    4824:	e15c0002 	cmp	ip, r2
    4828:	e5942034 	ldr	r2, [r4, #52]	@ 0x34
    482c:	e0d22000 	sbcs	r2, r2, r0
    4830:	3affff6e 	bcc	45f0 <w2c_0x24coremark0x2Ewasm_dlmalloc+0x1314>
    4834:	e5942010 	ldr	r2, [r4, #16]
    4838:	e0823003 	add	r3, r2, r3
    483c:	e583900c 	str	r9, [r3, #12]
    4840:	e59d3024 	ldr	r3, [sp, #36]	@ 0x24
    4844:	e3530000 	cmp	r3, #0
    4848:	0a000027 	beq	48ec <w2c_0x24coremark0x2Ewasm_dlmalloc+0x1610>
    484c:	e59de018 	ldr	lr, [sp, #24]
    4850:	e5948030 	ldr	r8, [r4, #48]	@ 0x30
    4854:	e59d301c 	ldr	r3, [sp, #28]
    4858:	e29e2020 	adds	r2, lr, #32
    485c:	e5945034 	ldr	r5, [r4, #52]	@ 0x34
    4860:	e2a33000 	adc	r3, r3, #0
    4864:	e1580002 	cmp	r8, r2
    4868:	e0d53003 	sbcs	r3, r5, r3
    486c:	e58d5030 	str	r5, [sp, #48]	@ 0x30
    4870:	3afffb1e 	bcc	34f0 <w2c_0x24coremark0x2Ewasm_dlmalloc+0x214>
    4874:	e5946010 	ldr	r6, [r4, #16]
    4878:	e086300e 	add	r3, r6, lr
    487c:	e593301c 	ldr	r3, [r3, #28]
    4880:	e1a02103 	lsl	r2, r3, #2
    4884:	e3a07000 	mov	r7, #0
    4888:	e2822eae 	add	r2, r2, #2784	@ 0xae0
    488c:	e292c004 	adds	ip, r2, #4
    4890:	e2a70000 	adc	r0, r7, #0
    4894:	e158000c 	cmp	r8, ip
    4898:	e0d50000 	sbcs	r0, r5, r0
    489c:	3afffb13 	bcc	34f0 <w2c_0x24coremark0x2Ewasm_dlmalloc+0x214>
    48a0:	e7960002 	ldr	r0, [r6, r2]
    48a4:	e15e0000 	cmp	lr, r0
    48a8:	1a000655 	bne	6204 <w2c_0x24coremark0x2Ewasm_dlmalloc+0x2f28>
    48ac:	e3590000 	cmp	r9, #0
    48b0:	e7869002 	str	r9, [r6, r2]
    48b4:	1a000667 	bne	6258 <w2c_0x24coremark0x2Ewasm_dlmalloc+0x2f7c>
    48b8:	e594c030 	ldr	ip, [r4, #48]	@ 0x30
    48bc:	e30009b8 	movw	r0, #2488	@ 0x9b8
    48c0:	e5942034 	ldr	r2, [r4, #52]	@ 0x34
    48c4:	e15c0000 	cmp	ip, r0
    48c8:	e2d22000 	sbcs	r2, r2, #0
    48cc:	3affff47 	bcc	45f0 <w2c_0x24coremark0x2Ewasm_dlmalloc+0x1314>
    48d0:	e5942010 	ldr	r2, [r4, #16]
    48d4:	e203301f 	and	r3, r3, #31
    48d8:	e59dc010 	ldr	ip, [sp, #16]
    48dc:	e2633020 	rsb	r3, r3, #32
    48e0:	e3e00001 	mvn	r0, #1
    48e4:	e00c3370 	and	r3, ip, r0, ror r3
    48e8:	e58239b4 	str	r3, [r2, #2484]	@ 0x9b4
    48ec:	e59d3020 	ldr	r3, [sp, #32]
    48f0:	e5940030 	ldr	r0, [r4, #48]	@ 0x30
    48f4:	e5942034 	ldr	r2, [r4, #52]	@ 0x34
    48f8:	e353000f 	cmp	r3, #15
    48fc:	8a0001fe 	bhi	50fc <w2c_0x24coremark0x2Ewasm_dlmalloc+0x1e20>
    4900:	e59dc018 	ldr	ip, [sp, #24]
    4904:	e59d301c 	ldr	r3, [sp, #28]
    4908:	e29c7008 	adds	r7, ip, #8
    490c:	e2a33000 	adc	r3, r3, #0
    4910:	e1500007 	cmp	r0, r7
    4914:	e0d22003 	sbcs	r2, r2, r3
    4918:	3affff34 	bcc	45f0 <w2c_0x24coremark0x2Ewasm_dlmalloc+0x1314>
    491c:	e5941010 	ldr	r1, [r4, #16]
    4920:	e59d3020 	ldr	r3, [sp, #32]
    4924:	e081100c 	add	r1, r1, ip
    4928:	e18a2003 	orr	r2, sl, r3
    492c:	e082300c 	add	r3, r2, ip
    4930:	e3822003 	orr	r2, r2, #3
    4934:	e5812004 	str	r2, [r1, #4]
    4938:	e2932008 	adds	r2, r3, #8
    493c:	23a01001 	movcs	r1, #1
    4940:	33a01000 	movcc	r1, #0
    4944:	e5940030 	ldr	r0, [r4, #48]	@ 0x30
    4948:	e1500002 	cmp	r0, r2
    494c:	e5942034 	ldr	r2, [r4, #52]	@ 0x34
    4950:	e0d22001 	sbcs	r2, r2, r1
    4954:	3afffae5 	bcc	34f0 <w2c_0x24coremark0x2Ewasm_dlmalloc+0x214>
    4958:	e5941010 	ldr	r1, [r4, #16]
    495c:	e2833004 	add	r3, r3, #4
    4960:	e7912003 	ldr	r2, [r1, r3]
    4964:	e3822001 	orr	r2, r2, #1
    4968:	e7812003 	str	r2, [r1, r3]
    496c:	e1a00007 	mov	r0, r7
    4970:	eafffab5 	b	344c <w2c_0x24coremark0x2Ewasm_dlmalloc+0x170>
    4974:	e3a0000a 	mov	r0, #10
    4978:	ebfffffe 	bl	0 <wasm_rt_trap>
    497c:	e28c1014 	add	r1, ip, #20
    4980:	e2910004 	adds	r0, r1, #4
    4984:	23a03001 	movcs	r3, #1
    4988:	33a03000 	movcc	r3, #0
    498c:	e1580000 	cmp	r8, r0
    4990:	e0d73003 	sbcs	r3, r7, r3
    4994:	3afffad5 	bcc	34f0 <w2c_0x24coremark0x2Ewasm_dlmalloc+0x214>
    4998:	e796c001 	ldr	ip, [r6, r1]
    499c:	e35c0000 	cmp	ip, #0
    49a0:	1a000009 	bne	49cc <w2c_0x24coremark0x2Ewasm_dlmalloc+0x16f0>
    49a4:	e59d3010 	ldr	r3, [sp, #16]
    49a8:	e2933014 	adds	r3, r3, #20
    49ac:	e2ac3000 	adc	r3, ip, #0
    49b0:	e1580001 	cmp	r8, r1
    49b4:	e0d73003 	sbcs	r3, r7, r3
    49b8:	3afffacc 	bcc	34f0 <w2c_0x24coremark0x2Ewasm_dlmalloc+0x214>
    49bc:	e796c002 	ldr	ip, [r6, r2]
    49c0:	e1a01002 	mov	r1, r2
    49c4:	e35c0000 	cmp	ip, #0
    49c8:	0afffe42 	beq	42d8 <w2c_0x24coremark0x2Ewasm_dlmalloc+0xffc>
    49cc:	e1a0200c 	mov	r2, ip
    49d0:	e3a05000 	mov	r5, #0
    49d4:	e1a00001 	mov	r0, r1
    49d8:	e1a0c002 	mov	ip, r2
    49dc:	e28c2014 	add	r2, ip, #20
    49e0:	e2921004 	adds	r1, r2, #4
    49e4:	e2a53000 	adc	r3, r5, #0
    49e8:	e1580001 	cmp	r8, r1
    49ec:	e0d73003 	sbcs	r3, r7, r3
    49f0:	3afffabe 	bcc	34f0 <w2c_0x24coremark0x2Ewasm_dlmalloc+0x214>
    49f4:	e7963002 	ldr	r3, [r6, r2]
    49f8:	e3530000 	cmp	r3, #0
    49fc:	1a000012 	bne	4a4c <w2c_0x24coremark0x2Ewasm_dlmalloc+0x1770>
    4a00:	e29c1014 	adds	r1, ip, #20
    4a04:	e2a33000 	adc	r3, r3, #0
    4a08:	e1580002 	cmp	r8, r2
    4a0c:	e0d73003 	sbcs	r3, r7, r3
    4a10:	3afffab6 	bcc	34f0 <w2c_0x24coremark0x2Ewasm_dlmalloc+0x214>
    4a14:	e28c1010 	add	r1, ip, #16
    4a18:	e7963001 	ldr	r3, [r6, r1]
    4a1c:	e1a02003 	mov	r2, r3
    4a20:	e3530000 	cmp	r3, #0
    4a24:	1affffea 	bne	49d4 <w2c_0x24coremark0x2Ewasm_dlmalloc+0x16f8>
    4a28:	e2901004 	adds	r1, r0, #4
    4a2c:	e2a32000 	adc	r2, r3, #0
    4a30:	e1580001 	cmp	r8, r1
    4a34:	e0d72002 	sbcs	r2, r7, r2
    4a38:	3afffeec 	bcc	45f0 <w2c_0x24coremark0x2Ewasm_dlmalloc+0x1314>
    4a3c:	e7863000 	str	r3, [r6, r0]
    4a40:	e5948030 	ldr	r8, [r4, #48]	@ 0x30
    4a44:	e5947034 	ldr	r7, [r4, #52]	@ 0x34
    4a48:	eafffe22 	b	42d8 <w2c_0x24coremark0x2Ewasm_dlmalloc+0xffc>
    4a4c:	e1a00002 	mov	r0, r2
    4a50:	e1a0c003 	mov	ip, r3
    4a54:	eaffffe0 	b	49dc <w2c_0x24coremark0x2Ewasm_dlmalloc+0x1700>
    4a58:	e377010a 	cmn	r7, #-2147483646	@ 0x80000002
    4a5c:	8afffdd3 	bhi	41b0 <w2c_0x24coremark0x2Ewasm_dlmalloc+0xed4>
    4a60:	eafffed4 	b	45b8 <w2c_0x24coremark0x2Ewasm_dlmalloc+0x12dc>
    4a64:	e080600a 	add	r6, r0, sl
    4a68:	e3a0c000 	mov	ip, #0
    4a6c:	e2962008 	adds	r2, r6, #8
    4a70:	e2ac3000 	adc	r3, ip, #0
    4a74:	e1580002 	cmp	r8, r2
    4a78:	e0d73003 	sbcs	r3, r7, r3
    4a7c:	3afffedb 	bcc	45f0 <w2c_0x24coremark0x2Ewasm_dlmalloc+0x1314>
    4a80:	e5943010 	ldr	r3, [r4, #16]
    4a84:	e2905008 	adds	r5, r0, #8
    4a88:	e59d1018 	ldr	r1, [sp, #24]
    4a8c:	e1a09005 	mov	r9, r5
    4a90:	e0833006 	add	r3, r3, r6
    4a94:	e3812001 	orr	r2, r1, #1
    4a98:	e5832004 	str	r2, [r3, #4]
    4a9c:	e2ac2000 	adc	r2, ip, #0
    4aa0:	e5943030 	ldr	r3, [r4, #48]	@ 0x30
    4aa4:	e1530005 	cmp	r3, r5
    4aa8:	e5943034 	ldr	r3, [r4, #52]	@ 0x34
    4aac:	e0d33002 	sbcs	r3, r3, r2
    4ab0:	3afffece 	bcc	45f0 <w2c_0x24coremark0x2Ewasm_dlmalloc+0x1314>
    4ab4:	e5943010 	ldr	r3, [r4, #16]
    4ab8:	e38a2003 	orr	r2, sl, #3
    4abc:	e1a05001 	mov	r5, r1
    4ac0:	e0833000 	add	r3, r3, r0
    4ac4:	e5832004 	str	r2, [r3, #4]
    4ac8:	e0812006 	add	r2, r1, r6
    4acc:	e2920004 	adds	r0, r2, #4
    4ad0:	e2ac1000 	adc	r1, ip, #0
    4ad4:	e594c030 	ldr	ip, [r4, #48]	@ 0x30
    4ad8:	e5943034 	ldr	r3, [r4, #52]	@ 0x34
    4adc:	e15c0000 	cmp	ip, r0
    4ae0:	e0d33001 	sbcs	r3, r3, r1
    4ae4:	3afffec1 	bcc	45f0 <w2c_0x24coremark0x2Ewasm_dlmalloc+0x1314>
    4ae8:	e5943010 	ldr	r3, [r4, #16]
    4aec:	e35500ff 	cmp	r5, #255	@ 0xff
    4af0:	e7835002 	str	r5, [r3, r2]
    4af4:	e5941030 	ldr	r1, [r4, #48]	@ 0x30
    4af8:	e5942034 	ldr	r2, [r4, #52]	@ 0x34
    4afc:	9a0001fb 	bls	52f0 <w2c_0x24coremark0x2Ewasm_dlmalloc+0x2014>
    4b00:	e59d3018 	ldr	r3, [sp, #24]
    4b04:	e3530401 	cmp	r3, #16777216	@ 0x1000000
    4b08:	2a000234 	bcs	53e0 <w2c_0x24coremark0x2Ewasm_dlmalloc+0x2104>
    4b0c:	e59dc018 	ldr	ip, [sp, #24]
    4b10:	e1a0342c 	lsr	r3, ip, #8
    4b14:	e16f3f13 	clz	r3, r3
    4b18:	e2630026 	rsb	r0, r3, #38	@ 0x26
    4b1c:	e1a03083 	lsl	r3, r3, #1
    4b20:	e1a0003c 	lsr	r0, ip, r0
    4b24:	e263303e 	rsb	r3, r3, #62	@ 0x3e
    4b28:	e2000001 	and	r0, r0, #1
    4b2c:	e0833000 	add	r3, r3, r0
    4b30:	e296c020 	adds	ip, r6, #32
    4b34:	e3a05000 	mov	r5, #0
    4b38:	e2a50000 	adc	r0, r5, #0
    4b3c:	e151000c 	cmp	r1, ip
    4b40:	e0d20000 	sbcs	r0, r2, r0
    4b44:	3afffea9 	bcc	45f0 <w2c_0x24coremark0x2Ewasm_dlmalloc+0x1314>
    4b48:	e5942010 	ldr	r2, [r4, #16]
    4b4c:	e0822006 	add	r2, r2, r6
    4b50:	e582301c 	str	r3, [r2, #28]
    4b54:	e2962018 	adds	r2, r6, #24
    4b58:	e2a51000 	adc	r1, r5, #0
    4b5c:	e5940030 	ldr	r0, [r4, #48]	@ 0x30
    4b60:	e1500002 	cmp	r0, r2
    4b64:	e5942034 	ldr	r2, [r4, #52]	@ 0x34
    4b68:	e0d22001 	sbcs	r2, r2, r1
    4b6c:	3a000534 	bcc	6044 <w2c_0x24coremark0x2Ewasm_dlmalloc+0x2d68>
    4b70:	e5942010 	ldr	r2, [r4, #16]
    4b74:	e3a0c001 	mov	ip, #1
    4b78:	e1a00103 	lsl	r0, r3, #2
    4b7c:	e0822006 	add	r2, r2, r6
    4b80:	e01e131c 	ands	r1, lr, ip, lsl r3
    4b84:	e1a0c31c 	lsl	ip, ip, r3
    4b88:	e1a01005 	mov	r1, r5
    4b8c:	e5825010 	str	r5, [r2, #16]
    4b90:	e5825014 	str	r5, [r2, #20]
    4b94:	e2802eae 	add	r2, r0, #2784	@ 0xae0
    4b98:	1a0004fe 	bne	5f98 <w2c_0x24coremark0x2Ewasm_dlmalloc+0x2cbc>
    4b9c:	e5941030 	ldr	r1, [r4, #48]	@ 0x30
    4ba0:	e2803eae 	add	r3, r0, #2784	@ 0xae0
    4ba4:	e2833004 	add	r3, r3, #4
    4ba8:	e1510003 	cmp	r1, r3
    4bac:	e5943034 	ldr	r3, [r4, #52]	@ 0x34
    4bb0:	e2d33000 	sbcs	r3, r3, #0
    4bb4:	3afffe8d 	bcc	45f0 <w2c_0x24coremark0x2Ewasm_dlmalloc+0x1314>
    4bb8:	e5943010 	ldr	r3, [r4, #16]
    4bbc:	e7836002 	str	r6, [r3, r2]
    4bc0:	e30039b8 	movw	r3, #2488	@ 0x9b8
    4bc4:	e5941030 	ldr	r1, [r4, #48]	@ 0x30
    4bc8:	e1510003 	cmp	r1, r3
    4bcc:	e5943034 	ldr	r3, [r4, #52]	@ 0x34
    4bd0:	e2d33000 	sbcs	r3, r3, #0
    4bd4:	3afffe85 	bcc	45f0 <w2c_0x24coremark0x2Ewasm_dlmalloc+0x1314>
    4bd8:	e5941010 	ldr	r1, [r4, #16]
    4bdc:	e18e300c 	orr	r3, lr, ip
    4be0:	e58139b4 	str	r3, [r1, #2484]	@ 0x9b4
    4be4:	e296301c 	adds	r3, r6, #28
    4be8:	23a01001 	movcs	r1, #1
    4bec:	33a01000 	movcc	r1, #0
    4bf0:	e5940030 	ldr	r0, [r4, #48]	@ 0x30
    4bf4:	e1500003 	cmp	r0, r3
    4bf8:	e5943034 	ldr	r3, [r4, #52]	@ 0x34
    4bfc:	e0d33001 	sbcs	r3, r3, r1
    4c00:	3afffe7a 	bcc	45f0 <w2c_0x24coremark0x2Ewasm_dlmalloc+0x1314>
    4c04:	e5943010 	ldr	r3, [r4, #16]
    4c08:	e3a00000 	mov	r0, #0
    4c0c:	e0833006 	add	r3, r3, r6
    4c10:	e5832018 	str	r2, [r3, #24]
    4c14:	e296300c 	adds	r3, r6, #12
    4c18:	e2a02000 	adc	r2, r0, #0
    4c1c:	e5941030 	ldr	r1, [r4, #48]	@ 0x30
    4c20:	e1510003 	cmp	r1, r3
    4c24:	e5943034 	ldr	r3, [r4, #52]	@ 0x34
    4c28:	e0d33002 	sbcs	r3, r3, r2
    4c2c:	3afffe6f 	bcc	45f0 <w2c_0x24coremark0x2Ewasm_dlmalloc+0x1314>
    4c30:	e5943010 	ldr	r3, [r4, #16]
    4c34:	e0833006 	add	r3, r3, r6
    4c38:	e5836008 	str	r6, [r3, #8]
    4c3c:	e2963010 	adds	r3, r6, #16
    4c40:	e2a02000 	adc	r2, r0, #0
    4c44:	e5941030 	ldr	r1, [r4, #48]	@ 0x30
    4c48:	e1510003 	cmp	r1, r3
    4c4c:	e5943034 	ldr	r3, [r4, #52]	@ 0x34
    4c50:	e0d33002 	sbcs	r3, r3, r2
    4c54:	3afffe65 	bcc	45f0 <w2c_0x24coremark0x2Ewasm_dlmalloc+0x1314>
    4c58:	e5943010 	ldr	r3, [r4, #16]
    4c5c:	e0833006 	add	r3, r3, r6
    4c60:	e583600c 	str	r6, [r3, #12]
    4c64:	eafffde3 	b	43f8 <w2c_0x24coremark0x2Ewasm_dlmalloc+0x111c>
    4c68:	e59d3018 	ldr	r3, [sp, #24]
    4c6c:	e59d000c 	ldr	r0, [sp, #12]
    4c70:	e2832014 	add	r2, r3, #20
    4c74:	e59d301c 	ldr	r3, [sp, #28]
    4c78:	e58d1034 	str	r1, [sp, #52]	@ 0x34
    4c7c:	e58d2030 	str	r2, [sp, #48]	@ 0x30
    4c80:	ebffecde 	bl	0 <i32_load_default32>
    4c84:	e2503000 	subs	r3, r0, #0
    4c88:	e59d2030 	ldr	r2, [sp, #48]	@ 0x30
    4c8c:	e59d1034 	ldr	r1, [sp, #52]	@ 0x34
    4c90:	e1a09003 	mov	r9, r3
    4c94:	1a00000a 	bne	4cc4 <w2c_0x24coremark0x2Ewasm_dlmalloc+0x19e8>
    4c98:	e59d5028 	ldr	r5, [sp, #40]	@ 0x28
    4c9c:	e59d302c 	ldr	r3, [sp, #44]	@ 0x2c
    4ca0:	e59d000c 	ldr	r0, [sp, #12]
    4ca4:	e1a02005 	mov	r2, r5
    4ca8:	e58d1030 	str	r1, [sp, #48]	@ 0x30
    4cac:	ebffecd3 	bl	0 <i32_load_default32>
    4cb0:	e2503000 	subs	r3, r0, #0
    4cb4:	e59d1030 	ldr	r1, [sp, #48]	@ 0x30
    4cb8:	e1a09003 	mov	r9, r3
    4cbc:	0afffedf 	beq	4840 <w2c_0x24coremark0x2Ewasm_dlmalloc+0x1564>
    4cc0:	e1a02005 	mov	r2, r5
    4cc4:	e1a0c009 	mov	ip, r9
    4cc8:	e1a0e00c 	mov	lr, ip
    4ccc:	e1a00002 	mov	r0, r2
    4cd0:	e28e2014 	add	r2, lr, #20
    4cd4:	e292c004 	adds	ip, r2, #4
    4cd8:	23a03001 	movcs	r3, #1
    4cdc:	33a03000 	movcc	r3, #0
    4ce0:	e158000c 	cmp	r8, ip
    4ce4:	e0d73003 	sbcs	r3, r7, r3
    4ce8:	3afffa00 	bcc	34f0 <w2c_0x24coremark0x2Ewasm_dlmalloc+0x214>
    4cec:	e7963002 	ldr	r3, [r6, r2]
    4cf0:	e3530000 	cmp	r3, #0
    4cf4:	1a000073 	bne	4ec8 <w2c_0x24coremark0x2Ewasm_dlmalloc+0x1bec>
    4cf8:	e29ec014 	adds	ip, lr, #20
    4cfc:	e2a33000 	adc	r3, r3, #0
    4d00:	e1580002 	cmp	r8, r2
    4d04:	e0d73003 	sbcs	r3, r7, r3
    4d08:	3afff9f8 	bcc	34f0 <w2c_0x24coremark0x2Ewasm_dlmalloc+0x214>
    4d0c:	e28e2010 	add	r2, lr, #16
    4d10:	e7963002 	ldr	r3, [r6, r2]
    4d14:	e1a0c003 	mov	ip, r3
    4d18:	e3530000 	cmp	r3, #0
    4d1c:	1affffe9 	bne	4cc8 <w2c_0x24coremark0x2Ewasm_dlmalloc+0x19ec>
    4d20:	e290c004 	adds	ip, r0, #4
    4d24:	e1a0900e 	mov	r9, lr
    4d28:	e2a32000 	adc	r2, r3, #0
    4d2c:	e158000c 	cmp	r8, ip
    4d30:	e0d72002 	sbcs	r2, r7, r2
    4d34:	3afffe2d 	bcc	45f0 <w2c_0x24coremark0x2Ewasm_dlmalloc+0x1314>
    4d38:	e7863000 	str	r3, [r6, r0]
    4d3c:	eafffebf 	b	4840 <w2c_0x24coremark0x2Ewasm_dlmalloc+0x1564>
    4d40:	e59d2008 	ldr	r2, [sp, #8]
    4d44:	e2922014 	adds	r2, r2, #20
    4d48:	e2a63000 	adc	r3, r6, #0
    4d4c:	e1580002 	cmp	r8, r2
    4d50:	e0d73003 	sbcs	r3, r7, r3
    4d54:	3afff9e5 	bcc	34f0 <w2c_0x24coremark0x2Ewasm_dlmalloc+0x214>
    4d58:	e59d2008 	ldr	r2, [sp, #8]
    4d5c:	e0803002 	add	r3, r0, r2
    4d60:	e5933010 	ldr	r3, [r3, #16]
    4d64:	e1590003 	cmp	r9, r3
    4d68:	13a03014 	movne	r3, #20
    4d6c:	03a03010 	moveq	r3, #16
    4d70:	e0833002 	add	r3, r3, r2
    4d74:	e2931004 	adds	r1, r3, #4
    4d78:	e2a62000 	adc	r2, r6, #0
    4d7c:	e1580001 	cmp	r8, r1
    4d80:	e0d72002 	sbcs	r2, r7, r2
    4d84:	3afffe19 	bcc	45f0 <w2c_0x24coremark0x2Ewasm_dlmalloc+0x1314>
    4d88:	e35c0000 	cmp	ip, #0
    4d8c:	e780c003 	str	ip, [r0, r3]
    4d90:	0a000049 	beq	4ebc <w2c_0x24coremark0x2Ewasm_dlmalloc+0x1be0>
    4d94:	e5945030 	ldr	r5, [r4, #48]	@ 0x30
    4d98:	e29c101c 	adds	r1, ip, #28
    4d9c:	e5942034 	ldr	r2, [r4, #52]	@ 0x34
    4da0:	e3a00000 	mov	r0, #0
    4da4:	e2a03000 	adc	r3, r0, #0
    4da8:	e1550001 	cmp	r5, r1
    4dac:	e0d23003 	sbcs	r3, r2, r3
    4db0:	3afffe0e 	bcc	45f0 <w2c_0x24coremark0x2Ewasm_dlmalloc+0x1314>
    4db4:	e5943010 	ldr	r3, [r4, #16]
    4db8:	e59d2008 	ldr	r2, [sp, #8]
    4dbc:	e083300c 	add	r3, r3, ip
    4dc0:	e5832018 	str	r2, [r3, #24]
    4dc4:	e59d2010 	ldr	r2, [sp, #16]
    4dc8:	e5948030 	ldr	r8, [r4, #48]	@ 0x30
    4dcc:	e2926014 	adds	r6, r2, #20
    4dd0:	e5947034 	ldr	r7, [r4, #52]	@ 0x34
    4dd4:	23a03001 	movcs	r3, #1
    4dd8:	33a03000 	movcc	r3, #0
    4ddc:	e1580006 	cmp	r8, r6
    4de0:	e0d73003 	sbcs	r3, r7, r3
    4de4:	3afff9c1 	bcc	34f0 <w2c_0x24coremark0x2Ewasm_dlmalloc+0x214>
    4de8:	e5941010 	ldr	r1, [r4, #16]
    4dec:	e0813002 	add	r3, r1, r2
    4df0:	e5933010 	ldr	r3, [r3, #16]
    4df4:	e3530000 	cmp	r3, #0
    4df8:	0a000012 	beq	4e48 <w2c_0x24coremark0x2Ewasm_dlmalloc+0x1b6c>
    4dfc:	e29c5014 	adds	r5, ip, #20
    4e00:	e2a02000 	adc	r2, r0, #0
    4e04:	e1580005 	cmp	r8, r5
    4e08:	e0d72002 	sbcs	r2, r7, r2
    4e0c:	3afffdf7 	bcc	45f0 <w2c_0x24coremark0x2Ewasm_dlmalloc+0x1314>
    4e10:	e081200c 	add	r2, r1, ip
    4e14:	e5823010 	str	r3, [r2, #16]
    4e18:	e293201c 	adds	r2, r3, #28
    4e1c:	e2a00000 	adc	r0, r0, #0
    4e20:	e5941030 	ldr	r1, [r4, #48]	@ 0x30
    4e24:	e1510002 	cmp	r1, r2
    4e28:	e5942034 	ldr	r2, [r4, #52]	@ 0x34
    4e2c:	e0d22000 	sbcs	r2, r2, r0
    4e30:	3afffdee 	bcc	45f0 <w2c_0x24coremark0x2Ewasm_dlmalloc+0x1314>
    4e34:	e5942010 	ldr	r2, [r4, #16]
    4e38:	e0823003 	add	r3, r2, r3
    4e3c:	e583c018 	str	ip, [r3, #24]
    4e40:	e5948030 	ldr	r8, [r4, #48]	@ 0x30
    4e44:	e5947034 	ldr	r7, [r4, #52]	@ 0x34
    4e48:	e2966004 	adds	r6, r6, #4
    4e4c:	e3a00000 	mov	r0, #0
    4e50:	e2a03000 	adc	r3, r0, #0
    4e54:	e1580006 	cmp	r8, r6
    4e58:	e0d73003 	sbcs	r3, r7, r3
    4e5c:	3afff9a3 	bcc	34f0 <w2c_0x24coremark0x2Ewasm_dlmalloc+0x214>
    4e60:	e5946010 	ldr	r6, [r4, #16]
    4e64:	e59d3010 	ldr	r3, [sp, #16]
    4e68:	e0863003 	add	r3, r6, r3
    4e6c:	e5933014 	ldr	r3, [r3, #20]
    4e70:	e1530000 	cmp	r3, r0
    4e74:	0afffd40 	beq	437c <w2c_0x24coremark0x2Ewasm_dlmalloc+0x10a0>
    4e78:	e28c2014 	add	r2, ip, #20
    4e7c:	e2925004 	adds	r5, r2, #4
    4e80:	e2a01000 	adc	r1, r0, #0
    4e84:	e1580005 	cmp	r8, r5
    4e88:	e0d71001 	sbcs	r1, r7, r1
    4e8c:	3afffdd7 	bcc	45f0 <w2c_0x24coremark0x2Ewasm_dlmalloc+0x1314>
    4e90:	e7863002 	str	r3, [r6, r2]
    4e94:	e293201c 	adds	r2, r3, #28
    4e98:	e2a01000 	adc	r1, r0, #0
    4e9c:	e5940030 	ldr	r0, [r4, #48]	@ 0x30
    4ea0:	e1500002 	cmp	r0, r2
    4ea4:	e5942034 	ldr	r2, [r4, #52]	@ 0x34
    4ea8:	e0d22001 	sbcs	r2, r2, r1
    4eac:	3afffdcf 	bcc	45f0 <w2c_0x24coremark0x2Ewasm_dlmalloc+0x1314>
    4eb0:	e5942010 	ldr	r2, [r4, #16]
    4eb4:	e0823003 	add	r3, r2, r3
    4eb8:	e583c018 	str	ip, [r3, #24]
    4ebc:	e5948030 	ldr	r8, [r4, #48]	@ 0x30
    4ec0:	e5947034 	ldr	r7, [r4, #52]	@ 0x34
    4ec4:	eafffd2c 	b	437c <w2c_0x24coremark0x2Ewasm_dlmalloc+0x10a0>
    4ec8:	e1a0e003 	mov	lr, r3
    4ecc:	eaffff7e 	b	4ccc <w2c_0x24coremark0x2Ewasm_dlmalloc+0x19f0>
    4ed0:	e0402008 	sub	r2, r0, r8
    4ed4:	e28a3038 	add	r3, sl, #56	@ 0x38
    4ed8:	e1520003 	cmp	r2, r3
    4edc:	e58d2008 	str	r2, [sp, #8]
    4ee0:	9afffdbe 	bls	45e0 <w2c_0x24coremark0x2Ewasm_dlmalloc+0x1304>
    4ee4:	e59d500c 	ldr	r5, [sp, #12]
    4ee8:	e3a02eb6 	mov	r2, #2912	@ 0xb60
    4eec:	e3a03000 	mov	r3, #0
    4ef0:	e1a00005 	mov	r0, r5
    4ef4:	ebffec41 	bl	0 <i32_load_default32>
    4ef8:	e5941030 	ldr	r1, [r4, #48]	@ 0x30
    4efc:	e5943034 	ldr	r3, [r4, #52]	@ 0x34
    4f00:	e3002b64 	movw	r2, #2916	@ 0xb64
    4f04:	e1510002 	cmp	r1, r2
    4f08:	e2d33000 	sbcs	r3, r3, #0
    4f0c:	3afffdb7 	bcc	45f0 <w2c_0x24coremark0x2Ewasm_dlmalloc+0x1314>
    4f10:	e59d3008 	ldr	r3, [sp, #8]
    4f14:	e3002b64 	movw	r2, #2916	@ 0xb64
    4f18:	e0836000 	add	r6, r3, r0
    4f1c:	e5943010 	ldr	r3, [r4, #16]
    4f20:	e1a00005 	mov	r0, r5
    4f24:	e5836b60 	str	r6, [r3, #2912]	@ 0xb60
    4f28:	e3a03000 	mov	r3, #0
    4f2c:	ebffec33 	bl	0 <i32_load_default32>
    4f30:	e1560000 	cmp	r6, r0
    4f34:	9a000007 	bls	4f58 <w2c_0x24coremark0x2Ewasm_dlmalloc+0x1c7c>
    4f38:	e5941030 	ldr	r1, [r4, #48]	@ 0x30
    4f3c:	e3002b68 	movw	r2, #2920	@ 0xb68
    4f40:	e5943034 	ldr	r3, [r4, #52]	@ 0x34
    4f44:	e1510002 	cmp	r1, r2
    4f48:	e2d33000 	sbcs	r3, r3, #0
    4f4c:	3afffda7 	bcc	45f0 <w2c_0x24coremark0x2Ewasm_dlmalloc+0x1314>
    4f50:	e5943010 	ldr	r3, [r4, #16]
    4f54:	e5836b64 	str	r6, [r3, #2916]	@ 0xb64
    4f58:	e59d000c 	ldr	r0, [sp, #12]
    4f5c:	e3a03000 	mov	r3, #0
    4f60:	e30029c8 	movw	r2, #2504	@ 0x9c8
    4f64:	ebffec25 	bl	0 <i32_load_default32>
    4f68:	e2507000 	subs	r7, r0, #0
    4f6c:	0a0001b0 	beq	5634 <w2c_0x24coremark0x2Ewasm_dlmalloc+0x2358>
    4f70:	e5946030 	ldr	r6, [r4, #48]	@ 0x30
    4f74:	e3a02eb7 	mov	r2, #2928	@ 0xb70
    4f78:	e5949034 	ldr	r9, [r4, #52]	@ 0x34
    4f7c:	e3a00000 	mov	r0, #0
    4f80:	e292e004 	adds	lr, r2, #4
    4f84:	e2a03000 	adc	r3, r0, #0
    4f88:	e156000e 	cmp	r6, lr
    4f8c:	e0d93003 	sbcs	r3, r9, r3
    4f90:	3afff956 	bcc	34f0 <w2c_0x24coremark0x2Ewasm_dlmalloc+0x214>
    4f94:	e5941010 	ldr	r1, [r4, #16]
    4f98:	e7913002 	ldr	r3, [r1, r2]
    4f9c:	e292c008 	adds	ip, r2, #8
    4fa0:	e58dc020 	str	ip, [sp, #32]
    4fa4:	e2a05000 	adc	r5, r0, #0
    4fa8:	e156000c 	cmp	r6, ip
    4fac:	e0d9c005 	sbcs	ip, r9, r5
    4fb0:	e58d5024 	str	r5, [sp, #36]	@ 0x24
    4fb4:	3afff94d 	bcc	34f0 <w2c_0x24coremark0x2Ewasm_dlmalloc+0x214>
    4fb8:	e791c00e 	ldr	ip, [r1, lr]
    4fbc:	e08c5003 	add	r5, ip, r3
    4fc0:	e1580005 	cmp	r8, r5
    4fc4:	0a00010e 	beq	5404 <w2c_0x24coremark0x2Ewasm_dlmalloc+0x2128>
    4fc8:	e292c00c 	adds	ip, r2, #12
    4fcc:	e2a03000 	adc	r3, r0, #0
    4fd0:	e156000c 	cmp	r6, ip
    4fd4:	e0d93003 	sbcs	r3, r9, r3
    4fd8:	3afff944 	bcc	34f0 <w2c_0x24coremark0x2Ewasm_dlmalloc+0x214>
    4fdc:	e0812002 	add	r2, r1, r2
    4fe0:	e5922008 	ldr	r2, [r2, #8]
    4fe4:	e3520000 	cmp	r2, #0
    4fe8:	1affffe4 	bne	4f80 <w2c_0x24coremark0x2Ewasm_dlmalloc+0x1ca4>
    4fec:	e58d1010 	str	r1, [sp, #16]
    4ff0:	e59d000c 	ldr	r0, [sp, #12]
    4ff4:	e3a02d27 	mov	r2, #2496	@ 0x9c0
    4ff8:	e3a03000 	mov	r3, #0
    4ffc:	ebffebff 	bl	0 <i32_load_default32>
    5000:	e1580000 	cmp	r8, r0
    5004:	2a000005 	bcs	5020 <w2c_0x24coremark0x2Ewasm_dlmalloc+0x1d44>
    5008:	e30039c4 	movw	r3, #2500	@ 0x9c4
    500c:	e1560003 	cmp	r6, r3
    5010:	e2d93000 	sbcs	r3, r9, #0
    5014:	3afffd75 	bcc	45f0 <w2c_0x24coremark0x2Ewasm_dlmalloc+0x1314>
    5018:	e59d3010 	ldr	r3, [sp, #16]
    501c:	e58389c0 	str	r8, [r3, #2496]	@ 0x9c0
    5020:	e59d3008 	ldr	r3, [sp, #8]
    5024:	e3a06eb7 	mov	r6, #2928	@ 0xb70
    5028:	e594c030 	ldr	ip, [r4, #48]	@ 0x30
    502c:	e5940034 	ldr	r0, [r4, #52]	@ 0x34
    5030:	e0883003 	add	r3, r8, r3
    5034:	e58d3010 	str	r3, [sp, #16]
    5038:	e2965004 	adds	r5, r6, #4
    503c:	23a09001 	movcs	r9, #1
    5040:	33a09000 	movcc	r9, #0
    5044:	e15c0005 	cmp	ip, r5
    5048:	e0d02009 	sbcs	r2, r0, r9
    504c:	3afff927 	bcc	34f0 <w2c_0x24coremark0x2Ewasm_dlmalloc+0x214>
    5050:	e5942010 	ldr	r2, [r4, #16]
    5054:	e0821006 	add	r1, r2, r6
    5058:	e792e006 	ldr	lr, [r2, r6]
    505c:	e59d3010 	ldr	r3, [sp, #16]
    5060:	e153000e 	cmp	r3, lr
    5064:	0a000373 	beq	5e38 <w2c_0x24coremark0x2Ewasm_dlmalloc+0x2b5c>
    5068:	e296600c 	adds	r6, r6, #12
    506c:	23a0e001 	movcs	lr, #1
    5070:	33a0e000 	movcc	lr, #0
    5074:	e15c0006 	cmp	ip, r6
    5078:	e0d0e00e 	sbcs	lr, r0, lr
    507c:	3afff91b 	bcc	34f0 <w2c_0x24coremark0x2Ewasm_dlmalloc+0x214>
    5080:	e5916008 	ldr	r6, [r1, #8]
    5084:	e3560000 	cmp	r6, #0
    5088:	1affffea 	bne	5038 <w2c_0x24coremark0x2Ewasm_dlmalloc+0x1d5c>
    508c:	e3a03eb7 	mov	r3, #2928	@ 0xb70
    5090:	e3a01000 	mov	r1, #0
    5094:	e2935004 	adds	r5, r3, #4
    5098:	e2a1e000 	adc	lr, r1, #0
    509c:	e15c0005 	cmp	ip, r5
    50a0:	e0d0e00e 	sbcs	lr, r0, lr
    50a4:	3afff911 	bcc	34f0 <w2c_0x24coremark0x2Ewasm_dlmalloc+0x214>
    50a8:	e792e003 	ldr	lr, [r2, r3]
    50ac:	e157000e 	cmp	r7, lr
    50b0:	3a000009 	bcc	50dc <w2c_0x24coremark0x2Ewasm_dlmalloc+0x1e00>
    50b4:	e2936008 	adds	r6, r3, #8
    50b8:	e2a15000 	adc	r5, r1, #0
    50bc:	e15c0006 	cmp	ip, r6
    50c0:	e0d05005 	sbcs	r5, r0, r5
    50c4:	3afff909 	bcc	34f0 <w2c_0x24coremark0x2Ewasm_dlmalloc+0x214>
    50c8:	e0825003 	add	r5, r2, r3
    50cc:	e5955004 	ldr	r5, [r5, #4]
    50d0:	e08e5005 	add	r5, lr, r5
    50d4:	e1570005 	cmp	r7, r5
    50d8:	3a000221 	bcc	5964 <w2c_0x24coremark0x2Ewasm_dlmalloc+0x2688>
    50dc:	e293500c 	adds	r5, r3, #12
    50e0:	e2a1e000 	adc	lr, r1, #0
    50e4:	e15c0005 	cmp	ip, r5
    50e8:	e0d0e00e 	sbcs	lr, r0, lr
    50ec:	3afff8ff 	bcc	34f0 <w2c_0x24coremark0x2Ewasm_dlmalloc+0x214>
    50f0:	e0823003 	add	r3, r2, r3
    50f4:	e5933008 	ldr	r3, [r3, #8]
    50f8:	eaffffe5 	b	5094 <w2c_0x24coremark0x2Ewasm_dlmalloc+0x1db8>
    50fc:	e59d5018 	ldr	r5, [sp, #24]
    5100:	e3a06000 	mov	r6, #0
    5104:	e08ae005 	add	lr, sl, r5
    5108:	e29ec008 	adds	ip, lr, #8
    510c:	e1a0900e 	mov	r9, lr
    5110:	e2a63000 	adc	r3, r6, #0
    5114:	e150000c 	cmp	r0, ip
    5118:	e0d22003 	sbcs	r2, r2, r3
    511c:	3afffd33 	bcc	45f0 <w2c_0x24coremark0x2Ewasm_dlmalloc+0x1314>
    5120:	e5943010 	ldr	r3, [r4, #16]
    5124:	e2957008 	adds	r7, r5, #8
    5128:	e59dc020 	ldr	ip, [sp, #32]
    512c:	e083300e 	add	r3, r3, lr
    5130:	e38c2001 	orr	r2, ip, #1
    5134:	e5832004 	str	r2, [r3, #4]
    5138:	e59d301c 	ldr	r3, [sp, #28]
    513c:	e2a32000 	adc	r2, r3, #0
    5140:	e5943030 	ldr	r3, [r4, #48]	@ 0x30
    5144:	e1530007 	cmp	r3, r7
    5148:	e5943034 	ldr	r3, [r4, #52]	@ 0x34
    514c:	e0d33002 	sbcs	r3, r3, r2
    5150:	3afffd26 	bcc	45f0 <w2c_0x24coremark0x2Ewasm_dlmalloc+0x1314>
    5154:	e5943010 	ldr	r3, [r4, #16]
    5158:	e38a2003 	orr	r2, sl, #3
    515c:	e0833005 	add	r3, r3, r5
    5160:	e1a0500c 	mov	r5, ip
    5164:	e5832004 	str	r2, [r3, #4]
    5168:	e08e300c 	add	r3, lr, ip
    516c:	e293c004 	adds	ip, r3, #4
    5170:	e594e030 	ldr	lr, [r4, #48]	@ 0x30
    5174:	e2a60000 	adc	r0, r6, #0
    5178:	e5942034 	ldr	r2, [r4, #52]	@ 0x34
    517c:	e15e000c 	cmp	lr, ip
    5180:	e0d22000 	sbcs	r2, r2, r0
    5184:	3afffd19 	bcc	45f0 <w2c_0x24coremark0x2Ewasm_dlmalloc+0x1314>
    5188:	e5942010 	ldr	r2, [r4, #16]
    518c:	e1510006 	cmp	r1, r6
    5190:	e7825003 	str	r5, [r2, r3]
    5194:	0a000043 	beq	52a8 <w2c_0x24coremark0x2Ewasm_dlmalloc+0x1fcc>
    5198:	e3a03000 	mov	r3, #0
    519c:	e30029c4 	movw	r2, #2500	@ 0x9c4
    51a0:	e59d000c 	ldr	r0, [sp, #12]
    51a4:	e3c1a007 	bic	sl, r1, #7
    51a8:	e58d1010 	str	r1, [sp, #16]
    51ac:	ebffeb93 	bl	0 <i32_load_default32>
    51b0:	e59d1010 	ldr	r1, [sp, #16]
    51b4:	e3a03001 	mov	r3, #1
    51b8:	e59d2008 	ldr	r2, [sp, #8]
    51bc:	e28a8e9d 	add	r8, sl, #2512	@ 0x9d0
    51c0:	e2888008 	add	r8, r8, #8
    51c4:	e1a06000 	mov	r6, r0
    51c8:	e1a011a1 	lsr	r1, r1, #3
    51cc:	e0122113 	ands	r2, r2, r3, lsl r1
    51d0:	e1a03113 	lsl	r3, r3, r1
    51d4:	1a000465 	bne	6370 <w2c_0x24coremark0x2Ewasm_dlmalloc+0x3094>
    51d8:	e5940030 	ldr	r0, [r4, #48]	@ 0x30
    51dc:	e30019b4 	movw	r1, #2484	@ 0x9b4
    51e0:	e5942034 	ldr	r2, [r4, #52]	@ 0x34
    51e4:	e1500001 	cmp	r0, r1
    51e8:	e2d22000 	sbcs	r2, r2, #0
    51ec:	3afffcff 	bcc	45f0 <w2c_0x24coremark0x2Ewasm_dlmalloc+0x1314>
    51f0:	e59d2008 	ldr	r2, [sp, #8]
    51f4:	e1833002 	orr	r3, r3, r2
    51f8:	e5942010 	ldr	r2, [r4, #16]
    51fc:	e58239b0 	str	r3, [r2, #2480]	@ 0x9b0
    5200:	e1a03008 	mov	r3, r8
    5204:	e594e030 	ldr	lr, [r4, #48]	@ 0x30
    5208:	e293c010 	adds	ip, r3, #16
    520c:	e5940034 	ldr	r0, [r4, #52]	@ 0x34
    5210:	e3a02000 	mov	r2, #0
    5214:	e2a21000 	adc	r1, r2, #0
    5218:	e15e000c 	cmp	lr, ip
    521c:	e0d01001 	sbcs	r1, r0, r1
    5220:	3afffcf2 	bcc	45f0 <w2c_0x24coremark0x2Ewasm_dlmalloc+0x1314>
    5224:	e5941010 	ldr	r1, [r4, #16]
    5228:	e0811003 	add	r1, r1, r3
    522c:	e581600c 	str	r6, [r1, #12]
    5230:	e28a1e9e 	add	r1, sl, #2528	@ 0x9e0
    5234:	e2811004 	add	r1, r1, #4
    5238:	e5940030 	ldr	r0, [r4, #48]	@ 0x30
    523c:	e1500001 	cmp	r0, r1
    5240:	e5941034 	ldr	r1, [r4, #52]	@ 0x34
    5244:	e2d11000 	sbcs	r1, r1, #0
    5248:	3afffce8 	bcc	45f0 <w2c_0x24coremark0x2Ewasm_dlmalloc+0x1314>
    524c:	e5941010 	ldr	r1, [r4, #16]
    5250:	e081100a 	add	r1, r1, sl
    5254:	e58169e0 	str	r6, [r1, #2528]	@ 0x9e0
    5258:	e2961010 	adds	r1, r6, #16
    525c:	e2a20000 	adc	r0, r2, #0
    5260:	e594c030 	ldr	ip, [r4, #48]	@ 0x30
    5264:	e15c0001 	cmp	ip, r1
    5268:	e5941034 	ldr	r1, [r4, #52]	@ 0x34
    526c:	e0d11000 	sbcs	r1, r1, r0
    5270:	3afffcde 	bcc	45f0 <w2c_0x24coremark0x2Ewasm_dlmalloc+0x1314>
    5274:	e5941010 	ldr	r1, [r4, #16]
    5278:	e0811006 	add	r1, r1, r6
    527c:	e581800c 	str	r8, [r1, #12]
    5280:	e296100c 	adds	r1, r6, #12
    5284:	e2a22000 	adc	r2, r2, #0
    5288:	e5940030 	ldr	r0, [r4, #48]	@ 0x30
    528c:	e1500001 	cmp	r0, r1
    5290:	e5941034 	ldr	r1, [r4, #52]	@ 0x34
    5294:	e0d11002 	sbcs	r1, r1, r2
    5298:	3afffcd4 	bcc	45f0 <w2c_0x24coremark0x2Ewasm_dlmalloc+0x1314>
    529c:	e5942010 	ldr	r2, [r4, #16]
    52a0:	e0822006 	add	r2, r2, r6
    52a4:	e5823008 	str	r3, [r2, #8]
    52a8:	e5941030 	ldr	r1, [r4, #48]	@ 0x30
    52ac:	e30029c8 	movw	r2, #2504	@ 0x9c8
    52b0:	e5943034 	ldr	r3, [r4, #52]	@ 0x34
    52b4:	e1510002 	cmp	r1, r2
    52b8:	e2d33000 	sbcs	r3, r3, #0
    52bc:	3afffccb 	bcc	45f0 <w2c_0x24coremark0x2Ewasm_dlmalloc+0x1314>
    52c0:	e5943010 	ldr	r3, [r4, #16]
    52c4:	e58399c4 	str	r9, [r3, #2500]	@ 0x9c4
    52c8:	e30039bc 	movw	r3, #2492	@ 0x9bc
    52cc:	e5942030 	ldr	r2, [r4, #48]	@ 0x30
    52d0:	e1520003 	cmp	r2, r3
    52d4:	e5943034 	ldr	r3, [r4, #52]	@ 0x34
    52d8:	e2d33000 	sbcs	r3, r3, #0
    52dc:	3afffcc3 	bcc	45f0 <w2c_0x24coremark0x2Ewasm_dlmalloc+0x1314>
    52e0:	e5943010 	ldr	r3, [r4, #16]
    52e4:	e59d2020 	ldr	r2, [sp, #32]
    52e8:	e58329b8 	str	r2, [r3, #2488]	@ 0x9b8
    52ec:	eafffd9e 	b	496c <w2c_0x24coremark0x2Ewasm_dlmalloc+0x1690>
    52f0:	e30039b4 	movw	r3, #2484	@ 0x9b4
    52f4:	e1510003 	cmp	r1, r3
    52f8:	e2d22000 	sbcs	r2, r2, #0
    52fc:	3afff87b 	bcc	34f0 <w2c_0x24coremark0x2Ewasm_dlmalloc+0x214>
    5300:	e5941010 	ldr	r1, [r4, #16]
    5304:	e59d0018 	ldr	r0, [sp, #24]
    5308:	e2807e9d 	add	r7, r0, #2512	@ 0x9d0
    530c:	e59129b0 	ldr	r2, [r1, #2480]	@ 0x9b0
    5310:	e2877008 	add	r7, r7, #8
    5314:	e3a03001 	mov	r3, #1
    5318:	e1a001a0 	lsr	r0, r0, #3
    531c:	e012c013 	ands	ip, r2, r3, lsl r0
    5320:	01823013 	orreq	r3, r2, r3, lsl r0
    5324:	058139b0 	streq	r3, [r1, #2480]	@ 0x9b0
    5328:	01a03007 	moveq	r3, r7
    532c:	1a00002d 	bne	53e8 <w2c_0x24coremark0x2Ewasm_dlmalloc+0x210c>
    5330:	e594c030 	ldr	ip, [r4, #48]	@ 0x30
    5334:	e2930010 	adds	r0, r3, #16
    5338:	e5942034 	ldr	r2, [r4, #52]	@ 0x34
    533c:	23a01001 	movcs	r1, #1
    5340:	33a01000 	movcc	r1, #0
    5344:	e15c0000 	cmp	ip, r0
    5348:	e0d22001 	sbcs	r2, r2, r1
    534c:	3afffca7 	bcc	45f0 <w2c_0x24coremark0x2Ewasm_dlmalloc+0x1314>
    5350:	e5942010 	ldr	r2, [r4, #16]
    5354:	e59d0018 	ldr	r0, [sp, #24]
    5358:	e0822003 	add	r2, r2, r3
    535c:	e582600c 	str	r6, [r2, #12]
    5360:	e2802e9e 	add	r2, r0, #2528	@ 0x9e0
    5364:	e2822004 	add	r2, r2, #4
    5368:	e5941030 	ldr	r1, [r4, #48]	@ 0x30
    536c:	e1510002 	cmp	r1, r2
    5370:	e5942034 	ldr	r2, [r4, #52]	@ 0x34
    5374:	e2d22000 	sbcs	r2, r2, #0
    5378:	3afffc9c 	bcc	45f0 <w2c_0x24coremark0x2Ewasm_dlmalloc+0x1314>
    537c:	e5942010 	ldr	r2, [r4, #16]
    5380:	e3a0c000 	mov	ip, #0
    5384:	e0822000 	add	r2, r2, r0
    5388:	e58269e0 	str	r6, [r2, #2528]	@ 0x9e0
    538c:	e2962010 	adds	r2, r6, #16
    5390:	e2ac1000 	adc	r1, ip, #0
    5394:	e5940030 	ldr	r0, [r4, #48]	@ 0x30
    5398:	e1500002 	cmp	r0, r2
    539c:	e5942034 	ldr	r2, [r4, #52]	@ 0x34
    53a0:	e0d22001 	sbcs	r2, r2, r1
    53a4:	3afffc91 	bcc	45f0 <w2c_0x24coremark0x2Ewasm_dlmalloc+0x1314>
    53a8:	e5942010 	ldr	r2, [r4, #16]
    53ac:	e0822006 	add	r2, r2, r6
    53b0:	e582700c 	str	r7, [r2, #12]
    53b4:	e296200c 	adds	r2, r6, #12
    53b8:	e2ac1000 	adc	r1, ip, #0
    53bc:	e5940030 	ldr	r0, [r4, #48]	@ 0x30
    53c0:	e1500002 	cmp	r0, r2
    53c4:	e5942034 	ldr	r2, [r4, #52]	@ 0x34
    53c8:	e0d22001 	sbcs	r2, r2, r1
    53cc:	3afffc87 	bcc	45f0 <w2c_0x24coremark0x2Ewasm_dlmalloc+0x1314>
    53d0:	e5942010 	ldr	r2, [r4, #16]
    53d4:	e0822006 	add	r2, r2, r6
    53d8:	e5823008 	str	r3, [r2, #8]
    53dc:	eafffc05 	b	43f8 <w2c_0x24coremark0x2Ewasm_dlmalloc+0x111c>
    53e0:	e3a0301f 	mov	r3, #31
    53e4:	eafffdd1 	b	4b30 <w2c_0x24coremark0x2Ewasm_dlmalloc+0x1854>
    53e8:	e59d3018 	ldr	r3, [sp, #24]
    53ec:	e59d000c 	ldr	r0, [sp, #12]
    53f0:	e2832e9e 	add	r2, r3, #2528	@ 0x9e0
    53f4:	e3a03000 	mov	r3, #0
    53f8:	ebffeb00 	bl	0 <i32_load_default32>
    53fc:	e1a03000 	mov	r3, r0
    5400:	eaffffca 	b	5330 <w2c_0x24coremark0x2Ewasm_dlmalloc+0x2054>
    5404:	e1570003 	cmp	r7, r3
    5408:	21580007 	cmpcs	r8, r7
    540c:	e58d1010 	str	r1, [sp, #16]
    5410:	93a03001 	movls	r3, #1
    5414:	83a03000 	movhi	r3, #0
    5418:	e58dc018 	str	ip, [sp, #24]
    541c:	e58de028 	str	lr, [sp, #40]	@ 0x28
    5420:	9afffef2 	bls	4ff0 <w2c_0x24coremark0x2Ewasm_dlmalloc+0x1d14>
    5424:	e292200c 	adds	r2, r2, #12
    5428:	e59d000c 	ldr	r0, [sp, #12]
    542c:	e2a33000 	adc	r3, r3, #0
    5430:	ebffeaf2 	bl	0 <i32_load_default32>
    5434:	e2103008 	ands	r3, r0, #8
    5438:	e58d301c 	str	r3, [sp, #28]
    543c:	1afffeeb 	bne	4ff0 <w2c_0x24coremark0x2Ewasm_dlmalloc+0x1d14>
    5440:	e2673008 	rsb	r3, r7, #8
    5444:	e30029bc 	movw	r2, #2492	@ 0x9bc
    5448:	e203500f 	and	r5, r3, #15
    544c:	e59d000c 	ldr	r0, [sp, #12]
    5450:	e3a03000 	mov	r3, #0
    5454:	e0878005 	add	r8, r7, r5
    5458:	ebffeae8 	bl	0 <i32_load_default32>
    545c:	e59d301c 	ldr	r3, [sp, #28]
    5460:	e2982008 	adds	r2, r8, #8
    5464:	e2a33000 	adc	r3, r3, #0
    5468:	e1560002 	cmp	r6, r2
    546c:	e0d93003 	sbcs	r3, r9, r3
    5470:	3afffc5e 	bcc	45f0 <w2c_0x24coremark0x2Ewasm_dlmalloc+0x1314>
    5474:	e59d3010 	ldr	r3, [sp, #16]
    5478:	e59d1008 	ldr	r1, [sp, #8]
    547c:	e0833008 	add	r3, r3, r8
    5480:	e0816000 	add	r6, r1, r0
    5484:	e0465005 	sub	r5, r6, r5
    5488:	e3852001 	orr	r2, r5, #1
    548c:	e5832004 	str	r2, [r3, #4]
    5490:	e59d2020 	ldr	r2, [sp, #32]
    5494:	e5943030 	ldr	r3, [r4, #48]	@ 0x30
    5498:	e1530002 	cmp	r3, r2
    549c:	e5943034 	ldr	r3, [r4, #52]	@ 0x34
    54a0:	e59d2024 	ldr	r2, [sp, #36]	@ 0x24
    54a4:	e0d33002 	sbcs	r3, r3, r2
    54a8:	3afffc50 	bcc	45f0 <w2c_0x24coremark0x2Ewasm_dlmalloc+0x1314>
    54ac:	e59d3018 	ldr	r3, [sp, #24]
    54b0:	e5942010 	ldr	r2, [r4, #16]
    54b4:	e0813003 	add	r3, r1, r3
    54b8:	e59d1028 	ldr	r1, [sp, #40]	@ 0x28
    54bc:	e59d000c 	ldr	r0, [sp, #12]
    54c0:	e7823001 	str	r3, [r2, r1]
    54c4:	e3a03000 	mov	r3, #0
    54c8:	e3002b98 	movw	r2, #2968	@ 0xb98
    54cc:	ebffeacb 	bl	0 <i32_load_default32>
    54d0:	e5943030 	ldr	r3, [r4, #48]	@ 0x30
    54d4:	e3530e9d 	cmp	r3, #2512	@ 0x9d0
    54d8:	e5943034 	ldr	r3, [r4, #52]	@ 0x34
    54dc:	e2d33000 	sbcs	r3, r3, #0
    54e0:	3afffc42 	bcc	45f0 <w2c_0x24coremark0x2Ewasm_dlmalloc+0x1314>
    54e4:	e5943010 	ldr	r3, [r4, #16]
    54e8:	e58309cc 	str	r0, [r3, #2508]	@ 0x9cc
    54ec:	e5943030 	ldr	r3, [r4, #48]	@ 0x30
    54f0:	e3530d27 	cmp	r3, #2496	@ 0x9c0
    54f4:	e5943034 	ldr	r3, [r4, #52]	@ 0x34
    54f8:	e2d33000 	sbcs	r3, r3, #0
    54fc:	3afffc3b 	bcc	45f0 <w2c_0x24coremark0x2Ewasm_dlmalloc+0x1314>
    5500:	e5943010 	ldr	r3, [r4, #16]
    5504:	e58359bc 	str	r5, [r3, #2492]	@ 0x9bc
    5508:	e30039cc 	movw	r3, #2508	@ 0x9cc
    550c:	e5942030 	ldr	r2, [r4, #48]	@ 0x30
    5510:	e1520003 	cmp	r2, r3
    5514:	e5943034 	ldr	r3, [r4, #52]	@ 0x34
    5518:	e2d33000 	sbcs	r3, r3, #0
    551c:	3afffc33 	bcc	45f0 <w2c_0x24coremark0x2Ewasm_dlmalloc+0x1314>
    5520:	e5943010 	ldr	r3, [r4, #16]
    5524:	e0876006 	add	r6, r7, r6
    5528:	e58389c8 	str	r8, [r3, #2504]	@ 0x9c8
    552c:	e2963008 	adds	r3, r6, #8
    5530:	23a02001 	movcs	r2, #1
    5534:	33a02000 	movcc	r2, #0
    5538:	e5941030 	ldr	r1, [r4, #48]	@ 0x30
    553c:	e1510003 	cmp	r1, r3
    5540:	e5943034 	ldr	r3, [r4, #52]	@ 0x34
    5544:	e0d33002 	sbcs	r3, r3, r2
    5548:	3afffc28 	bcc	45f0 <w2c_0x24coremark0x2Ewasm_dlmalloc+0x1314>
    554c:	e5943010 	ldr	r3, [r4, #16]
    5550:	e3a02038 	mov	r2, #56	@ 0x38
    5554:	e0833006 	add	r3, r3, r6
    5558:	e5832004 	str	r2, [r3, #4]
    555c:	e59d500c 	ldr	r5, [sp, #12]
    5560:	e3a03000 	mov	r3, #0
    5564:	e30029bc 	movw	r2, #2492	@ 0x9bc
    5568:	e1a00005 	mov	r0, r5
    556c:	ebffeaa3 	bl	0 <i32_load_default32>
    5570:	e1a06000 	mov	r6, r0
    5574:	e150000a 	cmp	r0, sl
    5578:	9afffc18 	bls	45e0 <w2c_0x24coremark0x2Ewasm_dlmalloc+0x1304>
    557c:	e3a03000 	mov	r3, #0
    5580:	e30029c8 	movw	r2, #2504	@ 0x9c8
    5584:	e1a00005 	mov	r0, r5
    5588:	ebffea9c 	bl	0 <i32_load_default32>
    558c:	e5947030 	ldr	r7, [r4, #48]	@ 0x30
    5590:	e080200a 	add	r2, r0, sl
    5594:	e1a03000 	mov	r3, r0
    5598:	e292e008 	adds	lr, r2, #8
    559c:	e5940034 	ldr	r0, [r4, #52]	@ 0x34
    55a0:	e3a01000 	mov	r1, #0
    55a4:	e2a1c000 	adc	ip, r1, #0
    55a8:	e157000e 	cmp	r7, lr
    55ac:	e0d0000c 	sbcs	r0, r0, ip
    55b0:	3afffc0e 	bcc	45f0 <w2c_0x24coremark0x2Ewasm_dlmalloc+0x1314>
    55b4:	e5940010 	ldr	r0, [r4, #16]
    55b8:	e046600a 	sub	r6, r6, sl
    55bc:	e386c001 	orr	ip, r6, #1
    55c0:	e0800002 	add	r0, r0, r2
    55c4:	e580c004 	str	ip, [r0, #4]
    55c8:	e5940030 	ldr	r0, [r4, #48]	@ 0x30
    55cc:	e3500d27 	cmp	r0, #2496	@ 0x9c0
    55d0:	e5940034 	ldr	r0, [r4, #52]	@ 0x34
    55d4:	e2d00000 	sbcs	r0, r0, #0
    55d8:	3afffc04 	bcc	45f0 <w2c_0x24coremark0x2Ewasm_dlmalloc+0x1314>
    55dc:	e5940010 	ldr	r0, [r4, #16]
    55e0:	e58069bc 	str	r6, [r0, #2492]	@ 0x9bc
    55e4:	e30009cc 	movw	r0, #2508	@ 0x9cc
    55e8:	e594c030 	ldr	ip, [r4, #48]	@ 0x30
    55ec:	e15c0000 	cmp	ip, r0
    55f0:	e5940034 	ldr	r0, [r4, #52]	@ 0x34
    55f4:	e2d00000 	sbcs	r0, r0, #0
    55f8:	3afffbfc 	bcc	45f0 <w2c_0x24coremark0x2Ewasm_dlmalloc+0x1314>
    55fc:	e5940010 	ldr	r0, [r4, #16]
    5600:	e58029c8 	str	r2, [r0, #2504]	@ 0x9c8
    5604:	e2930008 	adds	r0, r3, #8
    5608:	e2a11000 	adc	r1, r1, #0
    560c:	e5942030 	ldr	r2, [r4, #48]	@ 0x30
    5610:	e1520000 	cmp	r2, r0
    5614:	e5942034 	ldr	r2, [r4, #52]	@ 0x34
    5618:	e0d22001 	sbcs	r2, r2, r1
    561c:	3afffbf3 	bcc	45f0 <w2c_0x24coremark0x2Ewasm_dlmalloc+0x1314>
    5620:	e5942010 	ldr	r2, [r4, #16]
    5624:	e38a1003 	orr	r1, sl, #3
    5628:	e0822003 	add	r2, r2, r3
    562c:	e5821004 	str	r1, [r2, #4]
    5630:	eafff785 	b	344c <w2c_0x24coremark0x2Ewasm_dlmalloc+0x170>
    5634:	e3a03000 	mov	r3, #0
    5638:	e59d000c 	ldr	r0, [sp, #12]
    563c:	e3a02d27 	mov	r2, #2496	@ 0x9c0
    5640:	ebffea6e 	bl	0 <i32_load_default32>
    5644:	e2403001 	sub	r3, r0, #1
    5648:	e1580003 	cmp	r8, r3
    564c:	8a000007 	bhi	5670 <w2c_0x24coremark0x2Ewasm_dlmalloc+0x2394>
    5650:	e5941030 	ldr	r1, [r4, #48]	@ 0x30
    5654:	e30029c4 	movw	r2, #2500	@ 0x9c4
    5658:	e5943034 	ldr	r3, [r4, #52]	@ 0x34
    565c:	e1510002 	cmp	r1, r2
    5660:	e2d33000 	sbcs	r3, r3, #0
    5664:	3afffbe1 	bcc	45f0 <w2c_0x24coremark0x2Ewasm_dlmalloc+0x1314>
    5668:	e5943010 	ldr	r3, [r4, #16]
    566c:	e58389c0 	str	r8, [r3, #2496]	@ 0x9c0
    5670:	e5941030 	ldr	r1, [r4, #48]	@ 0x30
    5674:	e3002b78 	movw	r2, #2936	@ 0xb78
    5678:	e5943034 	ldr	r3, [r4, #52]	@ 0x34
    567c:	e1510002 	cmp	r1, r2
    5680:	e2d33000 	sbcs	r3, r3, #0
    5684:	3afffbd9 	bcc	45f0 <w2c_0x24coremark0x2Ewasm_dlmalloc+0x1314>
    5688:	e5943010 	ldr	r3, [r4, #16]
    568c:	e59d2008 	ldr	r2, [sp, #8]
    5690:	e5832b74 	str	r2, [r3, #2932]	@ 0xb74
    5694:	e3003b74 	movw	r3, #2932	@ 0xb74
    5698:	e5942030 	ldr	r2, [r4, #48]	@ 0x30
    569c:	e1520003 	cmp	r2, r3
    56a0:	e5943034 	ldr	r3, [r4, #52]	@ 0x34
    56a4:	e2d33000 	sbcs	r3, r3, #0
    56a8:	3afffbd0 	bcc	45f0 <w2c_0x24coremark0x2Ewasm_dlmalloc+0x1314>
    56ac:	e5943010 	ldr	r3, [r4, #16]
    56b0:	e5838b70 	str	r8, [r3, #2928]	@ 0xb70
    56b4:	e30039d4 	movw	r3, #2516	@ 0x9d4
    56b8:	e5942030 	ldr	r2, [r4, #48]	@ 0x30
    56bc:	e1520003 	cmp	r2, r3
    56c0:	e5943034 	ldr	r3, [r4, #52]	@ 0x34
    56c4:	e2d33000 	sbcs	r3, r3, #0
    56c8:	3afffbc8 	bcc	45f0 <w2c_0x24coremark0x2Ewasm_dlmalloc+0x1314>
    56cc:	e5943010 	ldr	r3, [r4, #16]
    56d0:	e3e02000 	mvn	r2, #0
    56d4:	e59d000c 	ldr	r0, [sp, #12]
    56d8:	e58329d0 	str	r2, [r3, #2512]	@ 0x9d0
    56dc:	e3a03000 	mov	r3, #0
    56e0:	e3002b88 	movw	r2, #2952	@ 0xb88
    56e4:	ebffea45 	bl	0 <i32_load_default32>
    56e8:	e5941030 	ldr	r1, [r4, #48]	@ 0x30
    56ec:	e5943034 	ldr	r3, [r4, #52]	@ 0x34
    56f0:	e30029d8 	movw	r2, #2520	@ 0x9d8
    56f4:	e1510002 	cmp	r1, r2
    56f8:	e2d33000 	sbcs	r3, r3, #0
    56fc:	3afffbbb 	bcc	45f0 <w2c_0x24coremark0x2Ewasm_dlmalloc+0x1314>
    5700:	e5943010 	ldr	r3, [r4, #16]
    5704:	e58309d4 	str	r0, [r3, #2516]	@ 0x9d4
    5708:	e5943030 	ldr	r3, [r4, #48]	@ 0x30
    570c:	e3530d2e 	cmp	r3, #2944	@ 0xb80
    5710:	e5943034 	ldr	r3, [r4, #52]	@ 0x34
    5714:	e2d33000 	sbcs	r3, r3, #0
    5718:	3afffbb4 	bcc	45f0 <w2c_0x24coremark0x2Ewasm_dlmalloc+0x1314>
    571c:	e5943010 	ldr	r3, [r4, #16]
    5720:	e3a02000 	mov	r2, #0
    5724:	e5832b7c 	str	r2, [r3, #2940]	@ 0xb7c
    5728:	e3a03e9f 	mov	r3, #2544	@ 0x9f0
    572c:	e5941030 	ldr	r1, [r4, #48]	@ 0x30
    5730:	e1510003 	cmp	r1, r3
    5734:	e5941034 	ldr	r1, [r4, #52]	@ 0x34
    5738:	e0d11002 	sbcs	r1, r1, r2
    573c:	3afffbab 	bcc	45f0 <w2c_0x24coremark0x2Ewasm_dlmalloc+0x1314>
    5740:	e5941010 	ldr	r1, [r4, #16]
    5744:	e2430010 	sub	r0, r3, #16
    5748:	e0811003 	add	r1, r1, r3
    574c:	e5010004 	str	r0, [r1, #-4]
    5750:	e253100c 	subs	r1, r3, #12
    5754:	e2c2c000 	sbc	ip, r2, #0
    5758:	e594e030 	ldr	lr, [r4, #48]	@ 0x30
    575c:	e15e0001 	cmp	lr, r1
    5760:	e5941034 	ldr	r1, [r4, #52]	@ 0x34
    5764:	e0d1100c 	sbcs	r1, r1, ip
    5768:	3afffba0 	bcc	45f0 <w2c_0x24coremark0x2Ewasm_dlmalloc+0x1314>
    576c:	e5941010 	ldr	r1, [r4, #16]
    5770:	e243e018 	sub	lr, r3, #24
    5774:	e781e000 	str	lr, [r1, r0]
    5778:	e2531008 	subs	r1, r3, #8
    577c:	e2c25000 	sbc	r5, r2, #0
    5780:	e594c030 	ldr	ip, [r4, #48]	@ 0x30
    5784:	e15c0001 	cmp	ip, r1
    5788:	e594c034 	ldr	ip, [r4, #52]	@ 0x34
    578c:	e0dcc005 	sbcs	ip, ip, r5
    5790:	3afffb96 	bcc	45f0 <w2c_0x24coremark0x2Ewasm_dlmalloc+0x1314>
    5794:	e594c010 	ldr	ip, [r4, #16]
    5798:	e08cc003 	add	ip, ip, r3
    579c:	e50ce00c 	str	lr, [ip, #-12]
    57a0:	e293c008 	adds	ip, r3, #8
    57a4:	e2a2e000 	adc	lr, r2, #0
    57a8:	e5945030 	ldr	r5, [r4, #48]	@ 0x30
    57ac:	e155000c 	cmp	r5, ip
    57b0:	e594c034 	ldr	ip, [r4, #52]	@ 0x34
    57b4:	e0dcc00e 	sbcs	ip, ip, lr
    57b8:	3afffb8c 	bcc	45f0 <w2c_0x24coremark0x2Ewasm_dlmalloc+0x1314>
    57bc:	e594c010 	ldr	ip, [r4, #16]
    57c0:	e08cc003 	add	ip, ip, r3
    57c4:	e58c1004 	str	r1, [ip, #4]
    57c8:	e253c004 	subs	ip, r3, #4
    57cc:	e2c2e000 	sbc	lr, r2, #0
    57d0:	e5945030 	ldr	r5, [r4, #48]	@ 0x30
    57d4:	e155000c 	cmp	r5, ip
    57d8:	e594c034 	ldr	ip, [r4, #52]	@ 0x34
    57dc:	e0dcc00e 	sbcs	ip, ip, lr
    57e0:	3afffb82 	bcc	45f0 <w2c_0x24coremark0x2Ewasm_dlmalloc+0x1314>
    57e4:	e594c010 	ldr	ip, [r4, #16]
    57e8:	e78c0001 	str	r0, [ip, r1]
    57ec:	e2930010 	adds	r0, r3, #16
    57f0:	e2a2c000 	adc	ip, r2, #0
    57f4:	e594e030 	ldr	lr, [r4, #48]	@ 0x30
    57f8:	e15e0000 	cmp	lr, r0
    57fc:	e5940034 	ldr	r0, [r4, #52]	@ 0x34
    5800:	e0d0000c 	sbcs	r0, r0, ip
    5804:	3afffb79 	bcc	45f0 <w2c_0x24coremark0x2Ewasm_dlmalloc+0x1314>
    5808:	e5940010 	ldr	r0, [r4, #16]
    580c:	e0800003 	add	r0, r0, r3
    5810:	e580300c 	str	r3, [r0, #12]
    5814:	e2930004 	adds	r0, r3, #4
    5818:	e2a2c000 	adc	ip, r2, #0
    581c:	e594e030 	ldr	lr, [r4, #48]	@ 0x30
    5820:	e15e0000 	cmp	lr, r0
    5824:	e5940034 	ldr	r0, [r4, #52]	@ 0x34
    5828:	e0d0000c 	sbcs	r0, r0, ip
    582c:	3afffb6f 	bcc	45f0 <w2c_0x24coremark0x2Ewasm_dlmalloc+0x1314>
    5830:	e5940010 	ldr	r0, [r4, #16]
    5834:	e7801003 	str	r1, [r0, r3]
    5838:	e293100c 	adds	r1, r3, #12
    583c:	e2a20000 	adc	r0, r2, #0
    5840:	e594c030 	ldr	ip, [r4, #48]	@ 0x30
    5844:	e15c0001 	cmp	ip, r1
    5848:	e5941034 	ldr	r1, [r4, #52]	@ 0x34
    584c:	e0d11000 	sbcs	r1, r1, r0
    5850:	3afffb66 	bcc	45f0 <w2c_0x24coremark0x2Ewasm_dlmalloc+0x1314>
    5854:	e5941010 	ldr	r1, [r4, #16]
    5858:	e0811003 	add	r1, r1, r3
    585c:	e5813008 	str	r3, [r1, #8]
    5860:	e2933020 	adds	r3, r3, #32
    5864:	e2a22000 	adc	r2, r2, #0
    5868:	e2431eaf 	sub	r1, r3, #2800	@ 0xaf0
    586c:	e1911002 	orrs	r1, r1, r2
    5870:	1affffad 	bne	572c <w2c_0x24coremark0x2Ewasm_dlmalloc+0x2450>
    5874:	e2681008 	rsb	r1, r8, #8
    5878:	e594c030 	ldr	ip, [r4, #48]	@ 0x30
    587c:	e201100f 	and	r1, r1, #15
    5880:	e5943034 	ldr	r3, [r4, #52]	@ 0x34
    5884:	e0886001 	add	r6, r8, r1
    5888:	e2960008 	adds	r0, r6, #8
    588c:	23a02001 	movcs	r2, #1
    5890:	33a02000 	movcc	r2, #0
    5894:	e15c0000 	cmp	ip, r0
    5898:	e0d33002 	sbcs	r3, r3, r2
    589c:	3afffb53 	bcc	45f0 <w2c_0x24coremark0x2Ewasm_dlmalloc+0x1314>
    58a0:	e59d3008 	ldr	r3, [sp, #8]
    58a4:	e59d000c 	ldr	r0, [sp, #12]
    58a8:	e2437038 	sub	r7, r3, #56	@ 0x38
    58ac:	e5943010 	ldr	r3, [r4, #16]
    58b0:	e0471001 	sub	r1, r7, r1
    58b4:	e58d1008 	str	r1, [sp, #8]
    58b8:	e0833006 	add	r3, r3, r6
    58bc:	e3812001 	orr	r2, r1, #1
    58c0:	e5832004 	str	r2, [r3, #4]
    58c4:	e3a03000 	mov	r3, #0
    58c8:	e3002b98 	movw	r2, #2968	@ 0xb98
    58cc:	ebffe9cb 	bl	0 <i32_load_default32>
    58d0:	e5943030 	ldr	r3, [r4, #48]	@ 0x30
    58d4:	e3530e9d 	cmp	r3, #2512	@ 0x9d0
    58d8:	e5943034 	ldr	r3, [r4, #52]	@ 0x34
    58dc:	e2d33000 	sbcs	r3, r3, #0
    58e0:	3afffb42 	bcc	45f0 <w2c_0x24coremark0x2Ewasm_dlmalloc+0x1314>
    58e4:	e5943010 	ldr	r3, [r4, #16]
    58e8:	e58309cc 	str	r0, [r3, #2508]	@ 0x9cc
    58ec:	e5943030 	ldr	r3, [r4, #48]	@ 0x30
    58f0:	e3530d27 	cmp	r3, #2496	@ 0x9c0
    58f4:	e5943034 	ldr	r3, [r4, #52]	@ 0x34
    58f8:	e2d33000 	sbcs	r3, r3, #0
    58fc:	3afffb3b 	bcc	45f0 <w2c_0x24coremark0x2Ewasm_dlmalloc+0x1314>
    5900:	e5943010 	ldr	r3, [r4, #16]
    5904:	e59d1008 	ldr	r1, [sp, #8]
    5908:	e58319bc 	str	r1, [r3, #2492]	@ 0x9bc
    590c:	e30039cc 	movw	r3, #2508	@ 0x9cc
    5910:	e5942030 	ldr	r2, [r4, #48]	@ 0x30
    5914:	e1520003 	cmp	r2, r3
    5918:	e5943034 	ldr	r3, [r4, #52]	@ 0x34
    591c:	e2d33000 	sbcs	r3, r3, #0
    5920:	3afffb32 	bcc	45f0 <w2c_0x24coremark0x2Ewasm_dlmalloc+0x1314>
    5924:	e5942010 	ldr	r2, [r4, #16]
    5928:	e0883007 	add	r3, r8, r7
    592c:	e58269c8 	str	r6, [r2, #2504]	@ 0x9c8
    5930:	e2932008 	adds	r2, r3, #8
    5934:	23a01001 	movcs	r1, #1
    5938:	33a01000 	movcc	r1, #0
    593c:	e5940030 	ldr	r0, [r4, #48]	@ 0x30
    5940:	e1500002 	cmp	r0, r2
    5944:	e5942034 	ldr	r2, [r4, #52]	@ 0x34
    5948:	e0d22001 	sbcs	r2, r2, r1
    594c:	3afffb27 	bcc	45f0 <w2c_0x24coremark0x2Ewasm_dlmalloc+0x1314>
    5950:	e5942010 	ldr	r2, [r4, #16]
    5954:	e0823003 	add	r3, r2, r3
    5958:	e3a02038 	mov	r2, #56	@ 0x38
    595c:	e5832004 	str	r2, [r3, #4]
    5960:	eafffefd 	b	555c <w2c_0x24coremark0x2Ewasm_dlmalloc+0x2280>
    5964:	e2683008 	rsb	r3, r8, #8
    5968:	e203300f 	and	r3, r3, #15
    596c:	e0889003 	add	r9, r8, r3
    5970:	e2996008 	adds	r6, r9, #8
    5974:	e2a1e000 	adc	lr, r1, #0
    5978:	e15c0006 	cmp	ip, r6
    597c:	e0d0e00e 	sbcs	lr, r0, lr
    5980:	3afffb1a 	bcc	45f0 <w2c_0x24coremark0x2Ewasm_dlmalloc+0x1314>
    5984:	e59d0008 	ldr	r0, [sp, #8]
    5988:	e0822009 	add	r2, r2, r9
    598c:	e2400038 	sub	r0, r0, #56	@ 0x38
    5990:	e040c003 	sub	ip, r0, r3
    5994:	e0883000 	add	r3, r8, r0
    5998:	e38c0001 	orr	r0, ip, #1
    599c:	e5820004 	str	r0, [r2, #4]
    59a0:	e2932008 	adds	r2, r3, #8
    59a4:	e58dc010 	str	ip, [sp, #16]
    59a8:	e5940030 	ldr	r0, [r4, #48]	@ 0x30
    59ac:	e2a11000 	adc	r1, r1, #0
    59b0:	e1500002 	cmp	r0, r2
    59b4:	e5942034 	ldr	r2, [r4, #52]	@ 0x34
    59b8:	e0d22001 	sbcs	r2, r2, r1
    59bc:	3afffb0b 	bcc	45f0 <w2c_0x24coremark0x2Ewasm_dlmalloc+0x1314>
    59c0:	e5942010 	ldr	r2, [r4, #16]
    59c4:	e3a01038 	mov	r1, #56	@ 0x38
    59c8:	e0822003 	add	r2, r2, r3
    59cc:	e2653037 	rsb	r3, r5, #55	@ 0x37
    59d0:	e203300f 	and	r3, r3, #15
    59d4:	e5821004 	str	r1, [r2, #4]
    59d8:	e245203f 	sub	r2, r5, #63	@ 0x3f
    59dc:	e0826003 	add	r6, r2, r3
    59e0:	e2873010 	add	r3, r7, #16
    59e4:	e1560003 	cmp	r6, r3
    59e8:	e5942030 	ldr	r2, [r4, #48]	@ 0x30
    59ec:	31a06007 	movcc	r6, r7
    59f0:	e58d3020 	str	r3, [sp, #32]
    59f4:	e2961008 	adds	r1, r6, #8
    59f8:	e5943034 	ldr	r3, [r4, #52]	@ 0x34
    59fc:	23a00001 	movcs	r0, #1
    5a00:	33a00000 	movcc	r0, #0
    5a04:	e1520001 	cmp	r2, r1
    5a08:	e58d1018 	str	r1, [sp, #24]
    5a0c:	e0d33000 	sbcs	r3, r3, r0
    5a10:	e58d0028 	str	r0, [sp, #40]	@ 0x28
    5a14:	3afffaf5 	bcc	45f0 <w2c_0x24coremark0x2Ewasm_dlmalloc+0x1314>
    5a18:	e5943010 	ldr	r3, [r4, #16]
    5a1c:	e2861004 	add	r1, r6, #4
    5a20:	e3a02023 	mov	r2, #35	@ 0x23
    5a24:	e59d000c 	ldr	r0, [sp, #12]
    5a28:	e58d1024 	str	r1, [sp, #36]	@ 0x24
    5a2c:	e7832001 	str	r2, [r3, r1]
    5a30:	e3a03000 	mov	r3, #0
    5a34:	e3002b98 	movw	r2, #2968	@ 0xb98
    5a38:	ebffe970 	bl	0 <i32_load_default32>
    5a3c:	e5943030 	ldr	r3, [r4, #48]	@ 0x30
    5a40:	e3530e9d 	cmp	r3, #2512	@ 0x9d0
    5a44:	e5943034 	ldr	r3, [r4, #52]	@ 0x34
    5a48:	e2d33000 	sbcs	r3, r3, #0
    5a4c:	3afffae7 	bcc	45f0 <w2c_0x24coremark0x2Ewasm_dlmalloc+0x1314>
    5a50:	e5943010 	ldr	r3, [r4, #16]
    5a54:	e58309cc 	str	r0, [r3, #2508]	@ 0x9cc
    5a58:	e5943030 	ldr	r3, [r4, #48]	@ 0x30
    5a5c:	e3530d27 	cmp	r3, #2496	@ 0x9c0
    5a60:	e5943034 	ldr	r3, [r4, #52]	@ 0x34
    5a64:	e2d33000 	sbcs	r3, r3, #0
    5a68:	3afffae0 	bcc	45f0 <w2c_0x24coremark0x2Ewasm_dlmalloc+0x1314>
    5a6c:	e5943010 	ldr	r3, [r4, #16]
    5a70:	e59d2010 	ldr	r2, [sp, #16]
    5a74:	e58329bc 	str	r2, [r3, #2492]	@ 0x9bc
    5a78:	e30039cc 	movw	r3, #2508	@ 0x9cc
    5a7c:	e5942030 	ldr	r2, [r4, #48]	@ 0x30
    5a80:	e1520003 	cmp	r2, r3
    5a84:	e5943034 	ldr	r3, [r4, #52]	@ 0x34
    5a88:	e2d33000 	sbcs	r3, r3, #0
    5a8c:	3afffad7 	bcc	45f0 <w2c_0x24coremark0x2Ewasm_dlmalloc+0x1314>
    5a90:	e5943010 	ldr	r3, [r4, #16]
    5a94:	e58399c8 	str	r9, [r3, #2504]	@ 0x9c8
    5a98:	e5949030 	ldr	r9, [r4, #48]	@ 0x30
    5a9c:	e5943034 	ldr	r3, [r4, #52]	@ 0x34
    5aa0:	e3590d2e 	cmp	r9, #2944	@ 0xb80
    5aa4:	e58d301c 	str	r3, [sp, #28]
    5aa8:	e2d33000 	sbcs	r3, r3, #0
    5aac:	3afff68f 	bcc	34f0 <w2c_0x24coremark0x2Ewasm_dlmalloc+0x214>
    5ab0:	e5942010 	ldr	r2, [r4, #16]
    5ab4:	e5923b78 	ldr	r3, [r2, #2936]	@ 0xb78
    5ab8:	e58d3010 	str	r3, [sp, #16]
    5abc:	e5923b7c 	ldr	r3, [r2, #2940]	@ 0xb7c
    5ac0:	e58d3014 	str	r3, [sp, #20]
    5ac4:	e2863010 	add	r3, r6, #16
    5ac8:	e1cd01d0 	ldrd	r0, [sp, #16]
    5acc:	e293e008 	adds	lr, r3, #8
    5ad0:	e59d101c 	ldr	r1, [sp, #28]
    5ad4:	23a0c001 	movcs	ip, #1
    5ad8:	33a0c000 	movcc	ip, #0
    5adc:	e159000e 	cmp	r9, lr
    5ae0:	e0d1100c 	sbcs	r1, r1, ip
    5ae4:	3a000156 	bcc	6044 <w2c_0x24coremark0x2Ewasm_dlmalloc+0x2d68>
    5ae8:	e1cd01d0 	ldrd	r0, [sp, #16]
    5aec:	e7820003 	str	r0, [r2, r3]
    5af0:	e0822003 	add	r2, r2, r3
    5af4:	e300eb78 	movw	lr, #2936	@ 0xb78
    5af8:	e5821004 	str	r1, [r2, #4]
    5afc:	e594c030 	ldr	ip, [r4, #48]	@ 0x30
    5b00:	e5942034 	ldr	r2, [r4, #52]	@ 0x34
    5b04:	e15c000e 	cmp	ip, lr
    5b08:	e58d201c 	str	r2, [sp, #28]
    5b0c:	e2d22000 	sbcs	r2, r2, #0
    5b10:	3afff676 	bcc	34f0 <w2c_0x24coremark0x2Ewasm_dlmalloc+0x214>
    5b14:	e5942010 	ldr	r2, [r4, #16]
    5b18:	e5921b70 	ldr	r1, [r2, #2928]	@ 0xb70
    5b1c:	e58d1010 	str	r1, [sp, #16]
    5b20:	e5921b74 	ldr	r1, [r2, #2932]	@ 0xb74
    5b24:	e58d1014 	str	r1, [sp, #20]
    5b28:	e1cd01d0 	ldrd	r0, [sp, #16]
    5b2c:	e3a09000 	mov	r9, #0
    5b30:	e2961010 	adds	r1, r6, #16
    5b34:	e2a91000 	adc	r1, r9, #0
    5b38:	e15c0003 	cmp	ip, r3
    5b3c:	e59d301c 	ldr	r3, [sp, #28]
    5b40:	e0d31001 	sbcs	r1, r3, r1
    5b44:	3a00013e 	bcc	6044 <w2c_0x24coremark0x2Ewasm_dlmalloc+0x2d68>
    5b48:	e59dc018 	ldr	ip, [sp, #24]
    5b4c:	e3003b7c 	movw	r3, #2940	@ 0xb7c
    5b50:	e1cd01d0 	ldrd	r0, [sp, #16]
    5b54:	e782000c 	str	r0, [r2, ip]
    5b58:	e082200c 	add	r2, r2, ip
    5b5c:	e5821004 	str	r1, [r2, #4]
    5b60:	e5942030 	ldr	r2, [r4, #48]	@ 0x30
    5b64:	e1520003 	cmp	r2, r3
    5b68:	e5943034 	ldr	r3, [r4, #52]	@ 0x34
    5b6c:	e2d33000 	sbcs	r3, r3, #0
    5b70:	3afffa9e 	bcc	45f0 <w2c_0x24coremark0x2Ewasm_dlmalloc+0x1314>
    5b74:	e5943010 	ldr	r3, [r4, #16]
    5b78:	e583cb78 	str	ip, [r3, #2936]	@ 0xb78
    5b7c:	e5943030 	ldr	r3, [r4, #48]	@ 0x30
    5b80:	e153000e 	cmp	r3, lr
    5b84:	e5943034 	ldr	r3, [r4, #52]	@ 0x34
    5b88:	e2d33000 	sbcs	r3, r3, #0
    5b8c:	3afffa97 	bcc	45f0 <w2c_0x24coremark0x2Ewasm_dlmalloc+0x1314>
    5b90:	e5943010 	ldr	r3, [r4, #16]
    5b94:	e59d2008 	ldr	r2, [sp, #8]
    5b98:	e5832b74 	str	r2, [r3, #2932]	@ 0xb74
    5b9c:	e3003b74 	movw	r3, #2932	@ 0xb74
    5ba0:	e5942030 	ldr	r2, [r4, #48]	@ 0x30
    5ba4:	e1520003 	cmp	r2, r3
    5ba8:	e5943034 	ldr	r3, [r4, #52]	@ 0x34
    5bac:	e2d33000 	sbcs	r3, r3, #0
    5bb0:	3afffa8e 	bcc	45f0 <w2c_0x24coremark0x2Ewasm_dlmalloc+0x1314>
    5bb4:	e5943010 	ldr	r3, [r4, #16]
    5bb8:	e5838b70 	str	r8, [r3, #2928]	@ 0xb70
    5bbc:	e5943030 	ldr	r3, [r4, #48]	@ 0x30
    5bc0:	e3530d2e 	cmp	r3, #2944	@ 0xb80
    5bc4:	e5943034 	ldr	r3, [r4, #52]	@ 0x34
    5bc8:	e2d33000 	sbcs	r3, r3, #0
    5bcc:	3afffa87 	bcc	45f0 <w2c_0x24coremark0x2Ewasm_dlmalloc+0x1314>
    5bd0:	e5942010 	ldr	r2, [r4, #16]
    5bd4:	e2863024 	add	r3, r6, #36	@ 0x24
    5bd8:	e3a0e007 	mov	lr, #7
    5bdc:	e5829b7c 	str	r9, [r2, #2940]	@ 0xb7c
    5be0:	e594c030 	ldr	ip, [r4, #48]	@ 0x30
    5be4:	e2932004 	adds	r2, r3, #4
    5be8:	e5941034 	ldr	r1, [r4, #52]	@ 0x34
    5bec:	23a00001 	movcs	r0, #1
    5bf0:	33a00000 	movcc	r0, #0
    5bf4:	e15c0002 	cmp	ip, r2
    5bf8:	e0d11000 	sbcs	r1, r1, r0
    5bfc:	3afffa7b 	bcc	45f0 <w2c_0x24coremark0x2Ewasm_dlmalloc+0x1314>
    5c00:	e5941010 	ldr	r1, [r4, #16]
    5c04:	e1550002 	cmp	r5, r2
    5c08:	e781e003 	str	lr, [r1, r3]
    5c0c:	e1a03002 	mov	r3, r2
    5c10:	8afffff2 	bhi	5be0 <w2c_0x24coremark0x2Ewasm_dlmalloc+0x2904>
    5c14:	e1560007 	cmp	r6, r7
    5c18:	0afffe4f 	beq	555c <w2c_0x24coremark0x2Ewasm_dlmalloc+0x2280>
    5c1c:	e2968004 	adds	r8, r6, #4
    5c20:	e59d000c 	ldr	r0, [sp, #12]
    5c24:	23a05001 	movcs	r5, #1
    5c28:	33a05000 	movcc	r5, #0
    5c2c:	e1a02008 	mov	r2, r8
    5c30:	e1a03005 	mov	r3, r5
    5c34:	ebffe8f1 	bl	0 <i32_load_default32>
    5c38:	e59d1018 	ldr	r1, [sp, #24]
    5c3c:	e5943030 	ldr	r3, [r4, #48]	@ 0x30
    5c40:	e5942034 	ldr	r2, [r4, #52]	@ 0x34
    5c44:	e1530001 	cmp	r3, r1
    5c48:	e59d1028 	ldr	r1, [sp, #40]	@ 0x28
    5c4c:	e0d22001 	sbcs	r2, r2, r1
    5c50:	3afffa66 	bcc	45f0 <w2c_0x24coremark0x2Ewasm_dlmalloc+0x1314>
    5c54:	e5942010 	ldr	r2, [r4, #16]
    5c58:	e3c03001 	bic	r3, r0, #1
    5c5c:	e59d1024 	ldr	r1, [sp, #36]	@ 0x24
    5c60:	e7823001 	str	r3, [r2, r1]
    5c64:	e5943030 	ldr	r3, [r4, #48]	@ 0x30
    5c68:	e1530008 	cmp	r3, r8
    5c6c:	e5943034 	ldr	r3, [r4, #52]	@ 0x34
    5c70:	e0d33005 	sbcs	r3, r3, r5
    5c74:	3afffa5d 	bcc	45f0 <w2c_0x24coremark0x2Ewasm_dlmalloc+0x1314>
    5c78:	e5943010 	ldr	r3, [r4, #16]
    5c7c:	e0469007 	sub	r9, r6, r7
    5c80:	e7839006 	str	r9, [r3, r6]
    5c84:	e2973008 	adds	r3, r7, #8
    5c88:	23a02001 	movcs	r2, #1
    5c8c:	33a02000 	movcc	r2, #0
    5c90:	e5941030 	ldr	r1, [r4, #48]	@ 0x30
    5c94:	e1510003 	cmp	r1, r3
    5c98:	e5943034 	ldr	r3, [r4, #52]	@ 0x34
    5c9c:	e0d33002 	sbcs	r3, r3, r2
    5ca0:	3afffa52 	bcc	45f0 <w2c_0x24coremark0x2Ewasm_dlmalloc+0x1314>
    5ca4:	e5943010 	ldr	r3, [r4, #16]
    5ca8:	e3892001 	orr	r2, r9, #1
    5cac:	e35900ff 	cmp	r9, #255	@ 0xff
    5cb0:	e0833007 	add	r3, r3, r7
    5cb4:	e5832004 	str	r2, [r3, #4]
    5cb8:	9a00020c 	bls	64f0 <w2c_0x24coremark0x2Ewasm_dlmalloc+0x3214>
    5cbc:	e3590401 	cmp	r9, #16777216	@ 0x1000000
    5cc0:	2a000208 	bcs	64e8 <w2c_0x24coremark0x2Ewasm_dlmalloc+0x320c>
    5cc4:	e1a03429 	lsr	r3, r9, #8
    5cc8:	e16f3f13 	clz	r3, r3
    5ccc:	e2632026 	rsb	r2, r3, #38	@ 0x26
    5cd0:	e1a06083 	lsl	r6, r3, #1
    5cd4:	e1a03239 	lsr	r3, r9, r2
    5cd8:	e266603e 	rsb	r6, r6, #62	@ 0x3e
    5cdc:	e2033001 	and	r3, r3, #1
    5ce0:	e0866003 	add	r6, r6, r3
    5ce4:	e5940030 	ldr	r0, [r4, #48]	@ 0x30
    5ce8:	e2971020 	adds	r1, r7, #32
    5cec:	e5943034 	ldr	r3, [r4, #52]	@ 0x34
    5cf0:	e3a0c000 	mov	ip, #0
    5cf4:	e2ac2000 	adc	r2, ip, #0
    5cf8:	e1500001 	cmp	r0, r1
    5cfc:	e0d33002 	sbcs	r3, r3, r2
    5d00:	3afffa3a 	bcc	45f0 <w2c_0x24coremark0x2Ewasm_dlmalloc+0x1314>
    5d04:	e5943010 	ldr	r3, [r4, #16]
    5d08:	e0833007 	add	r3, r3, r7
    5d0c:	e583601c 	str	r6, [r3, #28]
    5d10:	e2973018 	adds	r3, r7, #24
    5d14:	e2ac2000 	adc	r2, ip, #0
    5d18:	e5941030 	ldr	r1, [r4, #48]	@ 0x30
    5d1c:	e1510003 	cmp	r1, r3
    5d20:	e5943034 	ldr	r3, [r4, #52]	@ 0x34
    5d24:	e0d33002 	sbcs	r3, r3, r2
    5d28:	3a0000c5 	bcc	6044 <w2c_0x24coremark0x2Ewasm_dlmalloc+0x2d68>
    5d2c:	e5943010 	ldr	r3, [r4, #16]
    5d30:	e1a01106 	lsl	r1, r6, #2
    5d34:	e59d2020 	ldr	r2, [sp, #32]
    5d38:	e2815eae 	add	r5, r1, #2784	@ 0xae0
    5d3c:	e59d000c 	ldr	r0, [sp, #12]
    5d40:	e1a0800c 	mov	r8, ip
    5d44:	e58d1008 	str	r1, [sp, #8]
    5d48:	e783c002 	str	ip, [r3, r2]
    5d4c:	e0833002 	add	r3, r3, r2
    5d50:	e30029b4 	movw	r2, #2484	@ 0x9b4
    5d54:	e583c004 	str	ip, [r3, #4]
    5d58:	e3a03000 	mov	r3, #0
    5d5c:	ebffe8a7 	bl	0 <i32_load_default32>
    5d60:	e3a03001 	mov	r3, #1
    5d64:	e59d1008 	ldr	r1, [sp, #8]
    5d68:	e0102613 	ands	r2, r0, r3, lsl r6
    5d6c:	1a000185 	bne	6388 <w2c_0x24coremark0x2Ewasm_dlmalloc+0x30ac>
    5d70:	e5942030 	ldr	r2, [r4, #48]	@ 0x30
    5d74:	e2811eae 	add	r1, r1, #2784	@ 0xae0
    5d78:	e2811004 	add	r1, r1, #4
    5d7c:	e1520001 	cmp	r2, r1
    5d80:	e5942034 	ldr	r2, [r4, #52]	@ 0x34
    5d84:	e2d22000 	sbcs	r2, r2, #0
    5d88:	3afffa18 	bcc	45f0 <w2c_0x24coremark0x2Ewasm_dlmalloc+0x1314>
    5d8c:	e5942010 	ldr	r2, [r4, #16]
    5d90:	e7827005 	str	r7, [r2, r5]
    5d94:	e30029b8 	movw	r2, #2488	@ 0x9b8
    5d98:	e5941030 	ldr	r1, [r4, #48]	@ 0x30
    5d9c:	e1510002 	cmp	r1, r2
    5da0:	e5942034 	ldr	r2, [r4, #52]	@ 0x34
    5da4:	e2d22000 	sbcs	r2, r2, #0
    5da8:	3afffa10 	bcc	45f0 <w2c_0x24coremark0x2Ewasm_dlmalloc+0x1314>
    5dac:	e1800613 	orr	r0, r0, r3, lsl r6
    5db0:	e5943010 	ldr	r3, [r4, #16]
    5db4:	e58309b4 	str	r0, [r3, #2484]	@ 0x9b4
    5db8:	e297301c 	adds	r3, r7, #28
    5dbc:	e3a00000 	mov	r0, #0
    5dc0:	e5941030 	ldr	r1, [r4, #48]	@ 0x30
    5dc4:	e2a02000 	adc	r2, r0, #0
    5dc8:	e1510003 	cmp	r1, r3
    5dcc:	e5943034 	ldr	r3, [r4, #52]	@ 0x34
    5dd0:	e0d33002 	sbcs	r3, r3, r2
    5dd4:	3afffa05 	bcc	45f0 <w2c_0x24coremark0x2Ewasm_dlmalloc+0x1314>
    5dd8:	e5943010 	ldr	r3, [r4, #16]
    5ddc:	e0833007 	add	r3, r3, r7
    5de0:	e5835018 	str	r5, [r3, #24]
    5de4:	e297300c 	adds	r3, r7, #12
    5de8:	e2a02000 	adc	r2, r0, #0
    5dec:	e5941030 	ldr	r1, [r4, #48]	@ 0x30
    5df0:	e1510003 	cmp	r1, r3
    5df4:	e5943034 	ldr	r3, [r4, #52]	@ 0x34
    5df8:	e0d33002 	sbcs	r3, r3, r2
    5dfc:	3afff9fb 	bcc	45f0 <w2c_0x24coremark0x2Ewasm_dlmalloc+0x1314>
    5e00:	e5943010 	ldr	r3, [r4, #16]
    5e04:	e0833007 	add	r3, r3, r7
    5e08:	e5837008 	str	r7, [r3, #8]
    5e0c:	e2973010 	adds	r3, r7, #16
    5e10:	e2a02000 	adc	r2, r0, #0
    5e14:	e5941030 	ldr	r1, [r4, #48]	@ 0x30
    5e18:	e1510003 	cmp	r1, r3
    5e1c:	e5943034 	ldr	r3, [r4, #52]	@ 0x34
    5e20:	e0d33002 	sbcs	r3, r3, r2
    5e24:	3afff9f1 	bcc	45f0 <w2c_0x24coremark0x2Ewasm_dlmalloc+0x1314>
    5e28:	e5943010 	ldr	r3, [r4, #16]
    5e2c:	e0833007 	add	r3, r3, r7
    5e30:	e583700c 	str	r7, [r3, #12]
    5e34:	eafffdc8 	b	555c <w2c_0x24coremark0x2Ewasm_dlmalloc+0x2280>
    5e38:	e296e00d 	adds	lr, r6, #13
    5e3c:	e58d5018 	str	r5, [sp, #24]
    5e40:	23a03001 	movcs	r3, #1
    5e44:	33a03000 	movcc	r3, #0
    5e48:	e15c000e 	cmp	ip, lr
    5e4c:	e0d03003 	sbcs	r3, r0, r3
    5e50:	3afff5a6 	bcc	34f0 <w2c_0x24coremark0x2Ewasm_dlmalloc+0x214>
    5e54:	e5d1300c 	ldrb	r3, [r1, #12]
    5e58:	e2135008 	ands	r5, r3, #8
    5e5c:	1afffc8a 	bne	508c <w2c_0x24coremark0x2Ewasm_dlmalloc+0x1db0>
    5e60:	e59d2018 	ldr	r2, [sp, #24]
    5e64:	e1a03009 	mov	r3, r9
    5e68:	e59d000c 	ldr	r0, [sp, #12]
    5e6c:	e5818000 	str	r8, [r1]
    5e70:	ebffe862 	bl	0 <i32_load_default32>
    5e74:	e5942030 	ldr	r2, [r4, #48]	@ 0x30
    5e78:	e2963008 	adds	r3, r6, #8
    5e7c:	e2a57000 	adc	r7, r5, #0
    5e80:	e1520003 	cmp	r2, r3
    5e84:	e5943034 	ldr	r3, [r4, #52]	@ 0x34
    5e88:	e0d33007 	sbcs	r3, r3, r7
    5e8c:	3afff9d7 	bcc	45f0 <w2c_0x24coremark0x2Ewasm_dlmalloc+0x1314>
    5e90:	e59d3008 	ldr	r3, [sp, #8]
    5e94:	e1a01008 	mov	r1, r8
    5e98:	e59d2010 	ldr	r2, [sp, #16]
    5e9c:	e083c000 	add	ip, r3, r0
    5ea0:	e5940010 	ldr	r0, [r4, #16]
    5ea4:	e1a0300a 	mov	r3, sl
    5ea8:	e0800006 	add	r0, r0, r6
    5eac:	e580c004 	str	ip, [r0, #4]
    5eb0:	e1a00004 	mov	r0, r4
    5eb4:	ebffed42 	bl	13c4 <w2c_0x24coremark0x2Ewasm_prepend_alloc>
    5eb8:	eafff563 	b	344c <w2c_0x24coremark0x2Ewasm_dlmalloc+0x170>
    5ebc:	e59d000c 	ldr	r0, [sp, #12]
    5ec0:	e3a03000 	mov	r3, #0
    5ec4:	e3002b68 	movw	r2, #2920	@ 0xb68
    5ec8:	ebffe84c 	bl	0 <i32_load_default32>
    5ecc:	e2505000 	subs	r5, r0, #0
    5ed0:	0a00000c 	beq	5f08 <w2c_0x24coremark0x2Ewasm_dlmalloc+0x2c2c>
    5ed4:	e3a02eb6 	mov	r2, #2912	@ 0xb60
    5ed8:	e3a03000 	mov	r3, #0
    5edc:	e59d000c 	ldr	r0, [sp, #12]
    5ee0:	ebffe846 	bl	0 <i32_load_default32>
    5ee4:	e59d3008 	ldr	r3, [sp, #8]
    5ee8:	e0832000 	add	r2, r3, r0
    5eec:	e1550002 	cmp	r5, r2
    5ef0:	23a03000 	movcs	r3, #0
    5ef4:	33a03001 	movcc	r3, #1
    5ef8:	e1500002 	cmp	r0, r2
    5efc:	23833001 	orrcs	r3, r3, #1
    5f00:	e3530000 	cmp	r3, #0
    5f04:	1afff99d 	bne	4580 <w2c_0x24coremark0x2Ewasm_dlmalloc+0x12a4>
    5f08:	e59d1008 	ldr	r1, [sp, #8]
    5f0c:	e1a00004 	mov	r0, r4
    5f10:	ebffe9b4 	bl	5e8 <w2c_0x24coremark0x2Ewasm_sbrk>
    5f14:	e1a08000 	mov	r8, r0
    5f18:	e1560000 	cmp	r6, r0
    5f1c:	0afffbf0 	beq	4ee4 <w2c_0x24coremark0x2Ewasm_dlmalloc+0x1c08>
    5f20:	e59d2008 	ldr	r2, [sp, #8]
    5f24:	e28a3048 	add	r3, sl, #72	@ 0x48
    5f28:	e1520003 	cmp	r2, r3
    5f2c:	2a00005b 	bcs	60a0 <w2c_0x24coremark0x2Ewasm_dlmalloc+0x2dc4>
    5f30:	e3780001 	cmn	r8, #1
    5f34:	0afff991 	beq	4580 <w2c_0x24coremark0x2Ewasm_dlmalloc+0x12a4>
    5f38:	e59d3010 	ldr	r3, [sp, #16]
    5f3c:	e59d2008 	ldr	r2, [sp, #8]
    5f40:	e59d000c 	ldr	r0, [sp, #12]
    5f44:	e0436002 	sub	r6, r3, r2
    5f48:	e3a02eb9 	mov	r2, #2960	@ 0xb90
    5f4c:	e3a03000 	mov	r3, #0
    5f50:	ebffe82a 	bl	0 <i32_load_default32>
    5f54:	e0866000 	add	r6, r6, r0
    5f58:	e2600000 	rsb	r0, r0, #0
    5f5c:	e0066000 	and	r6, r6, r0
    5f60:	e376010a 	cmn	r6, #-2147483646	@ 0x80000002
    5f64:	8afffbde 	bhi	4ee4 <w2c_0x24coremark0x2Ewasm_dlmalloc+0x1c08>
    5f68:	e1a01006 	mov	r1, r6
    5f6c:	e1a00004 	mov	r0, r4
    5f70:	ebffe99c 	bl	5e8 <w2c_0x24coremark0x2Ewasm_sbrk>
    5f74:	e59d3008 	ldr	r3, [sp, #8]
    5f78:	e3700001 	cmn	r0, #1
    5f7c:	10833006 	addne	r3, r3, r6
    5f80:	158d3008 	strne	r3, [sp, #8]
    5f84:	1afffbd6 	bne	4ee4 <w2c_0x24coremark0x2Ewasm_dlmalloc+0x1c08>
    5f88:	e2631000 	rsb	r1, r3, #0
    5f8c:	e1a00004 	mov	r0, r4
    5f90:	ebffe994 	bl	5e8 <w2c_0x24coremark0x2Ewasm_sbrk>
    5f94:	eafff979 	b	4580 <w2c_0x24coremark0x2Ewasm_dlmalloc+0x12a4>
    5f98:	e353001f 	cmp	r3, #31
    5f9c:	e59d000c 	ldr	r0, [sp, #12]
    5fa0:	11a030a3 	lsrne	r3, r3, #1
    5fa4:	e3a0a000 	mov	sl, #0
    5fa8:	12631019 	rsbne	r1, r3, #25
    5fac:	e59d3018 	ldr	r3, [sp, #24]
    5fb0:	e1a01113 	lsl	r1, r3, r1
    5fb4:	e3a03000 	mov	r3, #0
    5fb8:	e58d101c 	str	r1, [sp, #28]
    5fbc:	ebffe80f 	bl	0 <i32_load_default32>
    5fc0:	e59d101c 	ldr	r1, [sp, #28]
    5fc4:	e1a07000 	mov	r7, r0
    5fc8:	e594c030 	ldr	ip, [r4, #48]	@ 0x30
    5fcc:	e594e034 	ldr	lr, [r4, #52]	@ 0x34
    5fd0:	e58dc008 	str	ip, [sp, #8]
    5fd4:	e58de010 	str	lr, [sp, #16]
    5fd8:	e2972008 	adds	r2, r7, #8
    5fdc:	e2aa3000 	adc	r3, sl, #0
    5fe0:	e15c0002 	cmp	ip, r2
    5fe4:	e0de0003 	sbcs	r0, lr, r3
    5fe8:	3afff540 	bcc	34f0 <w2c_0x24coremark0x2Ewasm_dlmalloc+0x214>
    5fec:	e5948010 	ldr	r8, [r4, #16]
    5ff0:	e0880007 	add	r0, r8, r7
    5ff4:	e5900004 	ldr	r0, [r0, #4]
    5ff8:	e59d5018 	ldr	r5, [sp, #24]
    5ffc:	e3c00007 	bic	r0, r0, #7
    6000:	e1550000 	cmp	r5, r0
    6004:	0a000049 	beq	6130 <w2c_0x24coremark0x2Ewasm_dlmalloc+0x2e54>
    6008:	e1a02ea1 	lsr	r2, r1, #29
    600c:	e2873010 	add	r3, r7, #16
    6010:	e2022004 	and	r2, r2, #4
    6014:	e0833002 	add	r3, r3, r2
    6018:	e2930004 	adds	r0, r3, #4
    601c:	e2aa2000 	adc	r2, sl, #0
    6020:	e15c0000 	cmp	ip, r0
    6024:	e0de2002 	sbcs	r2, lr, r2
    6028:	3afff530 	bcc	34f0 <w2c_0x24coremark0x2Ewasm_dlmalloc+0x214>
    602c:	e7982003 	ldr	r2, [r8, r3]
    6030:	e1a01081 	lsl	r1, r1, #1
    6034:	e3520000 	cmp	r2, #0
    6038:	0a00001b 	beq	60ac <w2c_0x24coremark0x2Ewasm_dlmalloc+0x2dd0>
    603c:	e1a07002 	mov	r7, r2
    6040:	eaffffe4 	b	5fd8 <w2c_0x24coremark0x2Ewasm_dlmalloc+0x2cfc>
    6044:	ebffe822 	bl	d4 <f64_store_default32.part.0>
    6048:	e59d1024 	ldr	r1, [sp, #36]	@ 0x24
    604c:	e0411009 	sub	r1, r1, r9
    6050:	e0013008 	and	r3, r1, r8
    6054:	e58d3008 	str	r3, [sp, #8]
    6058:	e373010a 	cmn	r3, #-2147483646	@ 0x80000002
    605c:	8afff947 	bhi	4580 <w2c_0x24coremark0x2Ewasm_dlmalloc+0x12a4>
    6060:	e59d1008 	ldr	r1, [sp, #8]
    6064:	e1a00004 	mov	r0, r4
    6068:	ebffe95e 	bl	5e8 <w2c_0x24coremark0x2Ewasm_sbrk>
    606c:	e1a02005 	mov	r2, r5
    6070:	e59d500c 	ldr	r5, [sp, #12]
    6074:	e1a08000 	mov	r8, r0
    6078:	e3a03000 	mov	r3, #0
    607c:	e1a00005 	mov	r0, r5
    6080:	ebffe7de 	bl	0 <i32_load_default32>
    6084:	e1a06000 	mov	r6, r0
    6088:	e1cd21dc 	ldrd	r2, [sp, #28]
    608c:	e1a00005 	mov	r0, r5
    6090:	ebffe7da 	bl	0 <i32_load_default32>
    6094:	e0866000 	add	r6, r6, r0
    6098:	e1580006 	cmp	r8, r6
    609c:	1affff9f 	bne	5f20 <w2c_0x24coremark0x2Ewasm_dlmalloc+0x2c44>
    60a0:	e3780001 	cmn	r8, #1
    60a4:	1afffb8e 	bne	4ee4 <w2c_0x24coremark0x2Ewasm_dlmalloc+0x1c08>
    60a8:	eafff934 	b	4580 <w2c_0x24coremark0x2Ewasm_dlmalloc+0x12a4>
    60ac:	e7886003 	str	r6, [r8, r3]
    60b0:	e3a00000 	mov	r0, #0
    60b4:	e296301c 	adds	r3, r6, #28
    60b8:	e5941030 	ldr	r1, [r4, #48]	@ 0x30
    60bc:	e2a02000 	adc	r2, r0, #0
    60c0:	e1510003 	cmp	r1, r3
    60c4:	e5943034 	ldr	r3, [r4, #52]	@ 0x34
    60c8:	e0d33002 	sbcs	r3, r3, r2
    60cc:	3afff947 	bcc	45f0 <w2c_0x24coremark0x2Ewasm_dlmalloc+0x1314>
    60d0:	e5943010 	ldr	r3, [r4, #16]
    60d4:	e0833006 	add	r3, r3, r6
    60d8:	e5837018 	str	r7, [r3, #24]
    60dc:	e2963010 	adds	r3, r6, #16
    60e0:	e2a02000 	adc	r2, r0, #0
    60e4:	e5941030 	ldr	r1, [r4, #48]	@ 0x30
    60e8:	e1510003 	cmp	r1, r3
    60ec:	e5943034 	ldr	r3, [r4, #52]	@ 0x34
    60f0:	e0d33002 	sbcs	r3, r3, r2
    60f4:	3afff93d 	bcc	45f0 <w2c_0x24coremark0x2Ewasm_dlmalloc+0x1314>
    60f8:	e5943010 	ldr	r3, [r4, #16]
    60fc:	e296200c 	adds	r2, r6, #12
    6100:	e0833006 	add	r3, r3, r6
    6104:	e583600c 	str	r6, [r3, #12]
    6108:	e2a03000 	adc	r3, r0, #0
    610c:	e5941030 	ldr	r1, [r4, #48]	@ 0x30
    6110:	e1510002 	cmp	r1, r2
    6114:	e5942034 	ldr	r2, [r4, #52]	@ 0x34
    6118:	e0d22003 	sbcs	r2, r2, r3
    611c:	3afff933 	bcc	45f0 <w2c_0x24coremark0x2Ewasm_dlmalloc+0x1314>
    6120:	e5943010 	ldr	r3, [r4, #16]
    6124:	e0833006 	add	r3, r3, r6
    6128:	e5836008 	str	r6, [r3, #8]
    612c:	eafff8b1 	b	43f8 <w2c_0x24coremark0x2Ewasm_dlmalloc+0x111c>
    6130:	e59d000c 	ldr	r0, [sp, #12]
    6134:	ebffe7b1 	bl	0 <i32_load_default32>
    6138:	e59d1008 	ldr	r1, [sp, #8]
    613c:	e2902010 	adds	r2, r0, #16
    6140:	e2aa3000 	adc	r3, sl, #0
    6144:	e1510002 	cmp	r1, r2
    6148:	e59d2010 	ldr	r2, [sp, #16]
    614c:	e0d23003 	sbcs	r3, r2, r3
    6150:	3afff926 	bcc	45f0 <w2c_0x24coremark0x2Ewasm_dlmalloc+0x1314>
    6154:	e0888000 	add	r8, r8, r0
    6158:	e297300c 	adds	r3, r7, #12
    615c:	e2aa2000 	adc	r2, sl, #0
    6160:	e588600c 	str	r6, [r8, #12]
    6164:	e5941030 	ldr	r1, [r4, #48]	@ 0x30
    6168:	e1510003 	cmp	r1, r3
    616c:	e5943034 	ldr	r3, [r4, #52]	@ 0x34
    6170:	e0d33002 	sbcs	r3, r3, r2
    6174:	3afff91d 	bcc	45f0 <w2c_0x24coremark0x2Ewasm_dlmalloc+0x1314>
    6178:	e5943010 	ldr	r3, [r4, #16]
    617c:	e3a0c000 	mov	ip, #0
    6180:	e0833007 	add	r3, r3, r7
    6184:	e5836008 	str	r6, [r3, #8]
    6188:	e296301c 	adds	r3, r6, #28
    618c:	e2ac2000 	adc	r2, ip, #0
    6190:	e5941030 	ldr	r1, [r4, #48]	@ 0x30
    6194:	e1510003 	cmp	r1, r3
    6198:	e5943034 	ldr	r3, [r4, #52]	@ 0x34
    619c:	e0d33002 	sbcs	r3, r3, r2
    61a0:	3afff912 	bcc	45f0 <w2c_0x24coremark0x2Ewasm_dlmalloc+0x1314>
    61a4:	e5943010 	ldr	r3, [r4, #16]
    61a8:	e0833006 	add	r3, r3, r6
    61ac:	e583a018 	str	sl, [r3, #24]
    61b0:	e2963010 	adds	r3, r6, #16
    61b4:	e2ac2000 	adc	r2, ip, #0
    61b8:	e5941030 	ldr	r1, [r4, #48]	@ 0x30
    61bc:	e1510003 	cmp	r1, r3
    61c0:	e5943034 	ldr	r3, [r4, #52]	@ 0x34
    61c4:	e0d33002 	sbcs	r3, r3, r2
    61c8:	3afff908 	bcc	45f0 <w2c_0x24coremark0x2Ewasm_dlmalloc+0x1314>
    61cc:	e5943010 	ldr	r3, [r4, #16]
    61d0:	e0833006 	add	r3, r3, r6
    61d4:	e583700c 	str	r7, [r3, #12]
    61d8:	e296300c 	adds	r3, r6, #12
    61dc:	e2ac2000 	adc	r2, ip, #0
    61e0:	e5941030 	ldr	r1, [r4, #48]	@ 0x30
    61e4:	e1510003 	cmp	r1, r3
    61e8:	e5943034 	ldr	r3, [r4, #52]	@ 0x34
    61ec:	e0d33002 	sbcs	r3, r3, r2
    61f0:	3afff8fe 	bcc	45f0 <w2c_0x24coremark0x2Ewasm_dlmalloc+0x1314>
    61f4:	e5943010 	ldr	r3, [r4, #16]
    61f8:	e0833006 	add	r3, r3, r6
    61fc:	e5830008 	str	r0, [r3, #8]
    6200:	eafff87c 	b	43f8 <w2c_0x24coremark0x2Ewasm_dlmalloc+0x111c>
    6204:	e59d5024 	ldr	r5, [sp, #36]	@ 0x24
    6208:	e59d000c 	ldr	r0, [sp, #12]
    620c:	e2952010 	adds	r2, r5, #16
    6210:	e58d1010 	str	r1, [sp, #16]
    6214:	e2a73000 	adc	r3, r7, #0
    6218:	ebffe778 	bl	0 <i32_load_default32>
    621c:	e59d3018 	ldr	r3, [sp, #24]
    6220:	e59d1010 	ldr	r1, [sp, #16]
    6224:	e1500003 	cmp	r0, r3
    6228:	13a03014 	movne	r3, #20
    622c:	03a03010 	moveq	r3, #16
    6230:	e0833005 	add	r3, r3, r5
    6234:	e2932004 	adds	r2, r3, #4
    6238:	e2a77000 	adc	r7, r7, #0
    623c:	e1580002 	cmp	r8, r2
    6240:	e59d2030 	ldr	r2, [sp, #48]	@ 0x30
    6244:	e0d27007 	sbcs	r7, r2, r7
    6248:	3afff8e8 	bcc	45f0 <w2c_0x24coremark0x2Ewasm_dlmalloc+0x1314>
    624c:	e3590000 	cmp	r9, #0
    6250:	e7869003 	str	r9, [r6, r3]
    6254:	0afff9a4 	beq	48ec <w2c_0x24coremark0x2Ewasm_dlmalloc+0x1610>
    6258:	e594c030 	ldr	ip, [r4, #48]	@ 0x30
    625c:	e299001c 	adds	r0, r9, #28
    6260:	e5943034 	ldr	r3, [r4, #52]	@ 0x34
    6264:	e3a06000 	mov	r6, #0
    6268:	e2a62000 	adc	r2, r6, #0
    626c:	e15c0000 	cmp	ip, r0
    6270:	e0d33002 	sbcs	r3, r3, r2
    6274:	3afff8dd 	bcc	45f0 <w2c_0x24coremark0x2Ewasm_dlmalloc+0x1314>
    6278:	e5940010 	ldr	r0, [r4, #16]
    627c:	e58d1010 	str	r1, [sp, #16]
    6280:	e0800009 	add	r0, r0, r9
    6284:	e59d1024 	ldr	r1, [sp, #36]	@ 0x24
    6288:	e1cd22d8 	ldrd	r2, [sp, #40]	@ 0x28
    628c:	e5801018 	str	r1, [r0, #24]
    6290:	e59d000c 	ldr	r0, [sp, #12]
    6294:	ebffe759 	bl	0 <i32_load_default32>
    6298:	e59d1010 	ldr	r1, [sp, #16]
    629c:	e2503000 	subs	r3, r0, #0
    62a0:	0a000013 	beq	62f4 <w2c_0x24coremark0x2Ewasm_dlmalloc+0x3018>
    62a4:	e594e030 	ldr	lr, [r4, #48]	@ 0x30
    62a8:	e299c014 	adds	ip, r9, #20
    62ac:	e5942034 	ldr	r2, [r4, #52]	@ 0x34
    62b0:	e2a60000 	adc	r0, r6, #0
    62b4:	e15e000c 	cmp	lr, ip
    62b8:	e0d22000 	sbcs	r2, r2, r0
    62bc:	3afff8cb 	bcc	45f0 <w2c_0x24coremark0x2Ewasm_dlmalloc+0x1314>
    62c0:	e5942010 	ldr	r2, [r4, #16]
    62c4:	e0822009 	add	r2, r2, r9
    62c8:	e5823010 	str	r3, [r2, #16]
    62cc:	e293201c 	adds	r2, r3, #28
    62d0:	e2a66000 	adc	r6, r6, #0
    62d4:	e5940030 	ldr	r0, [r4, #48]	@ 0x30
    62d8:	e1500002 	cmp	r0, r2
    62dc:	e5942034 	ldr	r2, [r4, #52]	@ 0x34
    62e0:	e0d22006 	sbcs	r2, r2, r6
    62e4:	3afff8c1 	bcc	45f0 <w2c_0x24coremark0x2Ewasm_dlmalloc+0x1314>
    62e8:	e5942010 	ldr	r2, [r4, #16]
    62ec:	e0823003 	add	r3, r2, r3
    62f0:	e5839018 	str	r9, [r3, #24]
    62f4:	e59d3018 	ldr	r3, [sp, #24]
    62f8:	e59d000c 	ldr	r0, [sp, #12]
    62fc:	e2832014 	add	r2, r3, #20
    6300:	e3a03000 	mov	r3, #0
    6304:	e58d1010 	str	r1, [sp, #16]
    6308:	ebffe73c 	bl	0 <i32_load_default32>
    630c:	e59d1010 	ldr	r1, [sp, #16]
    6310:	e2503000 	subs	r3, r0, #0
    6314:	0afff974 	beq	48ec <w2c_0x24coremark0x2Ewasm_dlmalloc+0x1610>
    6318:	e5946030 	ldr	r6, [r4, #48]	@ 0x30
    631c:	e2892014 	add	r2, r9, #20
    6320:	e292e004 	adds	lr, r2, #4
    6324:	e594c034 	ldr	ip, [r4, #52]	@ 0x34
    6328:	e3a07000 	mov	r7, #0
    632c:	e2a70000 	adc	r0, r7, #0
    6330:	e156000e 	cmp	r6, lr
    6334:	e0dc0000 	sbcs	r0, ip, r0
    6338:	3afff8ac 	bcc	45f0 <w2c_0x24coremark0x2Ewasm_dlmalloc+0x1314>
    633c:	e5940010 	ldr	r0, [r4, #16]
    6340:	e7803002 	str	r3, [r0, r2]
    6344:	e293001c 	adds	r0, r3, #28
    6348:	e2a72000 	adc	r2, r7, #0
    634c:	e594c030 	ldr	ip, [r4, #48]	@ 0x30
    6350:	e15c0000 	cmp	ip, r0
    6354:	e5940034 	ldr	r0, [r4, #52]	@ 0x34
    6358:	e0d00002 	sbcs	r0, r0, r2
    635c:	3afff8a3 	bcc	45f0 <w2c_0x24coremark0x2Ewasm_dlmalloc+0x1314>
    6360:	e5942010 	ldr	r2, [r4, #16]
    6364:	e0823003 	add	r3, r2, r3
    6368:	e5839018 	str	r9, [r3, #24]
    636c:	eafff95e 	b	48ec <w2c_0x24coremark0x2Ewasm_dlmalloc+0x1610>
    6370:	e3a03000 	mov	r3, #0
    6374:	e59d000c 	ldr	r0, [sp, #12]
    6378:	e28a2e9e 	add	r2, sl, #2528	@ 0x9e0
    637c:	ebffe71f 	bl	0 <i32_load_default32>
    6380:	e1a03000 	mov	r3, r0
    6384:	eafffb9e 	b	5204 <w2c_0x24coremark0x2Ewasm_dlmalloc+0x1f28>
    6388:	e356001f 	cmp	r6, #31
    638c:	e1a02005 	mov	r2, r5
    6390:	11a060a6 	lsrne	r6, r6, #1
    6394:	e59d000c 	ldr	r0, [sp, #12]
    6398:	12668019 	rsbne	r8, r6, #25
    639c:	e3a03000 	mov	r3, #0
    63a0:	ebffe716 	bl	0 <i32_load_default32>
    63a4:	e1a06000 	mov	r6, r0
    63a8:	e1a05819 	lsl	r5, r9, r8
    63ac:	e3a08000 	mov	r8, #0
    63b0:	ea00000c 	b	63e8 <w2c_0x24coremark0x2Ewasm_dlmalloc+0x310c>
    63b4:	e1a03ea5 	lsr	r3, r5, #29
    63b8:	e2862010 	add	r2, r6, #16
    63bc:	e2033004 	and	r3, r3, #4
    63c0:	e59d000c 	ldr	r0, [sp, #12]
    63c4:	e0822003 	add	r2, r2, r3
    63c8:	e3a03000 	mov	r3, #0
    63cc:	e58d2008 	str	r2, [sp, #8]
    63d0:	e1a05085 	lsl	r5, r5, #1
    63d4:	ebffe709 	bl	0 <i32_load_default32>
    63d8:	e59d2008 	ldr	r2, [sp, #8]
    63dc:	e2503000 	subs	r3, r0, #0
    63e0:	0a000083 	beq	65f4 <w2c_0x24coremark0x2Ewasm_dlmalloc+0x3318>
    63e4:	e1a06003 	mov	r6, r3
    63e8:	e2962004 	adds	r2, r6, #4
    63ec:	e59d000c 	ldr	r0, [sp, #12]
    63f0:	e2a83000 	adc	r3, r8, #0
    63f4:	ebffe701 	bl	0 <i32_load_default32>
    63f8:	e3c03007 	bic	r3, r0, #7
    63fc:	e1590003 	cmp	r9, r3
    6400:	1affffeb 	bne	63b4 <w2c_0x24coremark0x2Ewasm_dlmalloc+0x30d8>
    6404:	e2962008 	adds	r2, r6, #8
    6408:	e59d000c 	ldr	r0, [sp, #12]
    640c:	e2a83000 	adc	r3, r8, #0
    6410:	ebffe6fa 	bl	0 <i32_load_default32>
    6414:	e594e030 	ldr	lr, [r4, #48]	@ 0x30
    6418:	e290c010 	adds	ip, r0, #16
    641c:	e5943034 	ldr	r3, [r4, #52]	@ 0x34
    6420:	e2a82000 	adc	r2, r8, #0
    6424:	e15e000c 	cmp	lr, ip
    6428:	e0d33002 	sbcs	r3, r3, r2
    642c:	3afff86f 	bcc	45f0 <w2c_0x24coremark0x2Ewasm_dlmalloc+0x1314>
    6430:	e5943010 	ldr	r3, [r4, #16]
    6434:	e0833000 	add	r3, r3, r0
    6438:	e583700c 	str	r7, [r3, #12]
    643c:	e296300c 	adds	r3, r6, #12
    6440:	e2a82000 	adc	r2, r8, #0
    6444:	e594c030 	ldr	ip, [r4, #48]	@ 0x30
    6448:	e15c0003 	cmp	ip, r3
    644c:	e5943034 	ldr	r3, [r4, #52]	@ 0x34
    6450:	e0d33002 	sbcs	r3, r3, r2
    6454:	3afff865 	bcc	45f0 <w2c_0x24coremark0x2Ewasm_dlmalloc+0x1314>
    6458:	e5943010 	ldr	r3, [r4, #16]
    645c:	e3a01000 	mov	r1, #0
    6460:	e0833006 	add	r3, r3, r6
    6464:	e5837008 	str	r7, [r3, #8]
    6468:	e297301c 	adds	r3, r7, #28
    646c:	e2a12000 	adc	r2, r1, #0
    6470:	e594c030 	ldr	ip, [r4, #48]	@ 0x30
    6474:	e15c0003 	cmp	ip, r3
    6478:	e5943034 	ldr	r3, [r4, #52]	@ 0x34
    647c:	e0d33002 	sbcs	r3, r3, r2
    6480:	3afff85a 	bcc	45f0 <w2c_0x24coremark0x2Ewasm_dlmalloc+0x1314>
    6484:	e5943010 	ldr	r3, [r4, #16]
    6488:	e1a0c001 	mov	ip, r1
    648c:	e0833007 	add	r3, r3, r7
    6490:	e5838018 	str	r8, [r3, #24]
    6494:	e2973010 	adds	r3, r7, #16
    6498:	e2a12000 	adc	r2, r1, #0
    649c:	e5941030 	ldr	r1, [r4, #48]	@ 0x30
    64a0:	e1510003 	cmp	r1, r3
    64a4:	e5943034 	ldr	r3, [r4, #52]	@ 0x34
    64a8:	e0d33002 	sbcs	r3, r3, r2
    64ac:	3afff84f 	bcc	45f0 <w2c_0x24coremark0x2Ewasm_dlmalloc+0x1314>
    64b0:	e5943010 	ldr	r3, [r4, #16]
    64b4:	e0833007 	add	r3, r3, r7
    64b8:	e583600c 	str	r6, [r3, #12]
    64bc:	e297300c 	adds	r3, r7, #12
    64c0:	e2ac2000 	adc	r2, ip, #0
    64c4:	e5941030 	ldr	r1, [r4, #48]	@ 0x30
    64c8:	e1510003 	cmp	r1, r3
    64cc:	e5943034 	ldr	r3, [r4, #52]	@ 0x34
    64d0:	e0d33002 	sbcs	r3, r3, r2
    64d4:	3afff845 	bcc	45f0 <w2c_0x24coremark0x2Ewasm_dlmalloc+0x1314>
    64d8:	e5943010 	ldr	r3, [r4, #16]
    64dc:	e0833007 	add	r3, r3, r7
    64e0:	e5830008 	str	r0, [r3, #8]
    64e4:	eafffc1c 	b	555c <w2c_0x24coremark0x2Ewasm_dlmalloc+0x2280>
    64e8:	e3a0601f 	mov	r6, #31
    64ec:	eafffdfc 	b	5ce4 <w2c_0x24coremark0x2Ewasm_dlmalloc+0x2a08>
    64f0:	e3a03000 	mov	r3, #0
    64f4:	e3a02e9b 	mov	r2, #2480	@ 0x9b0
    64f8:	e59d000c 	ldr	r0, [sp, #12]
    64fc:	e3c98007 	bic	r8, r9, #7
    6500:	ebffe6be 	bl	0 <i32_load_default32>
    6504:	e1a011a9 	lsr	r1, r9, #3
    6508:	e3a02001 	mov	r2, #1
    650c:	e2886e9d 	add	r6, r8, #2512	@ 0x9d0
    6510:	e2866008 	add	r6, r6, #8
    6514:	e0103112 	ands	r3, r0, r2, lsl r1
    6518:	e1a03112 	lsl	r3, r2, r1
    651c:	1a00005d 	bne	6698 <w2c_0x24coremark0x2Ewasm_dlmalloc+0x33bc>
    6520:	e594c030 	ldr	ip, [r4, #48]	@ 0x30
    6524:	e30019b4 	movw	r1, #2484	@ 0x9b4
    6528:	e5942034 	ldr	r2, [r4, #52]	@ 0x34
    652c:	e15c0001 	cmp	ip, r1
    6530:	e2d22000 	sbcs	r2, r2, #0
    6534:	3afff82d 	bcc	45f0 <w2c_0x24coremark0x2Ewasm_dlmalloc+0x1314>
    6538:	e5942010 	ldr	r2, [r4, #16]
    653c:	e1803003 	orr	r3, r0, r3
    6540:	e58239b0 	str	r3, [r2, #2480]	@ 0x9b0
    6544:	e1a03006 	mov	r3, r6
    6548:	e594c030 	ldr	ip, [r4, #48]	@ 0x30
    654c:	e2930010 	adds	r0, r3, #16
    6550:	e5942034 	ldr	r2, [r4, #52]	@ 0x34
    6554:	23a01001 	movcs	r1, #1
    6558:	33a01000 	movcc	r1, #0
    655c:	e15c0000 	cmp	ip, r0
    6560:	e0d22001 	sbcs	r2, r2, r1
    6564:	3afff821 	bcc	45f0 <w2c_0x24coremark0x2Ewasm_dlmalloc+0x1314>
    6568:	e5942010 	ldr	r2, [r4, #16]
    656c:	e0822003 	add	r2, r2, r3
    6570:	e582700c 	str	r7, [r2, #12]
    6574:	e2882e9e 	add	r2, r8, #2528	@ 0x9e0
    6578:	e2822004 	add	r2, r2, #4
    657c:	e5941030 	ldr	r1, [r4, #48]	@ 0x30
    6580:	e1510002 	cmp	r1, r2
    6584:	e5942034 	ldr	r2, [r4, #52]	@ 0x34
    6588:	e2d22000 	sbcs	r2, r2, #0
    658c:	3afff817 	bcc	45f0 <w2c_0x24coremark0x2Ewasm_dlmalloc+0x1314>
    6590:	e5942010 	ldr	r2, [r4, #16]
    6594:	e3a0c000 	mov	ip, #0
    6598:	e0822008 	add	r2, r2, r8
    659c:	e58279e0 	str	r7, [r2, #2528]	@ 0x9e0
    65a0:	e2972010 	adds	r2, r7, #16
    65a4:	e2ac1000 	adc	r1, ip, #0
    65a8:	e5940030 	ldr	r0, [r4, #48]	@ 0x30
    65ac:	e1500002 	cmp	r0, r2
    65b0:	e5942034 	ldr	r2, [r4, #52]	@ 0x34
    65b4:	e0d22001 	sbcs	r2, r2, r1
    65b8:	3afff80c 	bcc	45f0 <w2c_0x24coremark0x2Ewasm_dlmalloc+0x1314>
    65bc:	e5942010 	ldr	r2, [r4, #16]
    65c0:	e0822007 	add	r2, r2, r7
    65c4:	e582600c 	str	r6, [r2, #12]
    65c8:	e297200c 	adds	r2, r7, #12
    65cc:	e2ac1000 	adc	r1, ip, #0
    65d0:	e5940030 	ldr	r0, [r4, #48]	@ 0x30
    65d4:	e1500002 	cmp	r0, r2
    65d8:	e5942034 	ldr	r2, [r4, #52]	@ 0x34
    65dc:	e0d22001 	sbcs	r2, r2, r1
    65e0:	3afff802 	bcc	45f0 <w2c_0x24coremark0x2Ewasm_dlmalloc+0x1314>
    65e4:	e5942010 	ldr	r2, [r4, #16]
    65e8:	e0822007 	add	r2, r2, r7
    65ec:	e5823008 	str	r3, [r2, #8]
    65f0:	eafffbd9 	b	555c <w2c_0x24coremark0x2Ewasm_dlmalloc+0x2280>
    65f4:	e5940030 	ldr	r0, [r4, #48]	@ 0x30
    65f8:	e2921004 	adds	r1, r2, #4
    65fc:	e2a33000 	adc	r3, r3, #0
    6600:	e1500001 	cmp	r0, r1
    6604:	e5941034 	ldr	r1, [r4, #52]	@ 0x34
    6608:	e0d11003 	sbcs	r1, r1, r3
    660c:	3afff7f7 	bcc	45f0 <w2c_0x24coremark0x2Ewasm_dlmalloc+0x1314>
    6610:	e5943010 	ldr	r3, [r4, #16]
    6614:	e3a00000 	mov	r0, #0
    6618:	e7837002 	str	r7, [r3, r2]
    661c:	e297301c 	adds	r3, r7, #28
    6620:	e2a02000 	adc	r2, r0, #0
    6624:	e5941030 	ldr	r1, [r4, #48]	@ 0x30
    6628:	e1510003 	cmp	r1, r3
    662c:	e5943034 	ldr	r3, [r4, #52]	@ 0x34
    6630:	e0d33002 	sbcs	r3, r3, r2
    6634:	3afff7ed 	bcc	45f0 <w2c_0x24coremark0x2Ewasm_dlmalloc+0x1314>
    6638:	e5943010 	ldr	r3, [r4, #16]
    663c:	e0833007 	add	r3, r3, r7
    6640:	e5836018 	str	r6, [r3, #24]
    6644:	e2973010 	adds	r3, r7, #16
    6648:	e2a02000 	adc	r2, r0, #0
    664c:	e5941030 	ldr	r1, [r4, #48]	@ 0x30
    6650:	e1510003 	cmp	r1, r3
    6654:	e5943034 	ldr	r3, [r4, #52]	@ 0x34
    6658:	e0d33002 	sbcs	r3, r3, r2
    665c:	3afff7e3 	bcc	45f0 <w2c_0x24coremark0x2Ewasm_dlmalloc+0x1314>
    6660:	e5943010 	ldr	r3, [r4, #16]
    6664:	e297200c 	adds	r2, r7, #12
    6668:	e0833007 	add	r3, r3, r7
    666c:	e583700c 	str	r7, [r3, #12]
    6670:	e2a03000 	adc	r3, r0, #0
    6674:	e5941030 	ldr	r1, [r4, #48]	@ 0x30
    6678:	e1510002 	cmp	r1, r2
    667c:	e5942034 	ldr	r2, [r4, #52]	@ 0x34
    6680:	e0d22003 	sbcs	r2, r2, r3
    6684:	3afff7d9 	bcc	45f0 <w2c_0x24coremark0x2Ewasm_dlmalloc+0x1314>
    6688:	e5943010 	ldr	r3, [r4, #16]
    668c:	e0833007 	add	r3, r3, r7
    6690:	e5837008 	str	r7, [r3, #8]
    6694:	eafffbb0 	b	555c <w2c_0x24coremark0x2Ewasm_dlmalloc+0x2280>
    6698:	e3a03000 	mov	r3, #0
    669c:	e59d000c 	ldr	r0, [sp, #12]
    66a0:	e2882e9e 	add	r2, r8, #2528	@ 0x9e0
    66a4:	ebffe655 	bl	0 <i32_load_default32>
    66a8:	e1a03000 	mov	r3, r0
    66ac:	eaffffa5 	b	6548 <w2c_0x24coremark0x2Ewasm_dlmalloc+0x326c>

000066b0 <w2c_0x24coremark0x2Ewasm_calc_func>:
    66b0:	e92d4ff0 	push	{r4, r5, r6, r7, r8, r9, sl, fp, lr}
    66b4:	ee1dcf70 	mrc	15, 0, ip, cr13, cr0, {3}
    66b8:	e59f3de8 	ldr	r3, [pc, #3560]	@ 74a8 <w2c_0x24coremark0x2Ewasm_calc_func+0xdf8>
    66bc:	e24dd09c 	sub	sp, sp, #156	@ 0x9c
    66c0:	e88d1003 	stm	sp, {r0, r1, ip}
    66c4:	e79f3003 	ldr	r3, [pc, r3]
    66c8:	e79c1003 	ldr	r1, [ip, r3]
    66cc:	e59f3dd8 	ldr	r3, [pc, #3544]	@ 74ac <w2c_0x24coremark0x2Ewasm_calc_func+0xdfc>
    66d0:	e2810001 	add	r0, r1, #1
    66d4:	e3500f7d 	cmp	r0, #500	@ 0x1f4
    66d8:	e79f3003 	ldr	r3, [pc, r3]
    66dc:	e78c0003 	str	r0, [ip, r3]
    66e0:	8a00036a 	bhi	7490 <w2c_0x24coremark0x2Ewasm_calc_func+0xde0>
    66e4:	e59d3000 	ldr	r3, [sp]
    66e8:	e5939030 	ldr	r9, [r3, #48]	@ 0x30
    66ec:	e5938034 	ldr	r8, [r3, #52]	@ 0x34
    66f0:	e59d3004 	ldr	r3, [sp, #4]
    66f4:	e1a0b009 	mov	fp, r9
    66f8:	e1a07008 	mov	r7, r8
    66fc:	e2933002 	adds	r3, r3, #2
    6700:	e58d3010 	str	r3, [sp, #16]
    6704:	23a00001 	movcs	r0, #1
    6708:	33a00000 	movcc	r0, #0
    670c:	e1590003 	cmp	r9, r3
    6710:	e58d0014 	str	r0, [sp, #20]
    6714:	e0d83000 	sbcs	r3, r8, r0
    6718:	3a0000ab 	bcc	69cc <w2c_0x24coremark0x2Ewasm_calc_func+0x31c>
    671c:	e59d3000 	ldr	r3, [sp]
    6720:	e5930010 	ldr	r0, [r3, #16]
    6724:	e59d3004 	ldr	r3, [sp, #4]
    6728:	e19030b3 	ldrh	r3, [r0, r3]
    672c:	e213e080 	ands	lr, r3, #128	@ 0x80
    6730:	e58de00c 	str	lr, [sp, #12]
    6734:	1a000089 	bne	6960 <w2c_0x24coremark0x2Ewasm_calc_func+0x2b0>
    6738:	e7e3c1d3 	ubfx	ip, r3, #3, #4
    673c:	e1a0a003 	mov	sl, r3
    6740:	e08cc20c 	add	ip, ip, ip, lsl #4
    6744:	e58dc020 	str	ip, [sp, #32]
    6748:	e213c007 	ands	ip, r3, #7
    674c:	0a0000c6 	beq	6a6c <w2c_0x24coremark0x2Ewasm_calc_func+0x3bc>
    6750:	e35c0001 	cmp	ip, #1
    6754:	1a00009e 	bne	69d4 <w2c_0x24coremark0x2Ewasm_calc_func+0x324>
    6758:	e59d500c 	ldr	r5, [sp, #12]
    675c:	e292c03a 	adds	ip, r2, #58	@ 0x3a
    6760:	e58dc018 	str	ip, [sp, #24]
    6764:	e2a5e000 	adc	lr, r5, #0
    6768:	e159000c 	cmp	r9, ip
    676c:	e0d8c00e 	sbcs	ip, r8, lr
    6770:	e58de01c 	str	lr, [sp, #28]
    6774:	3a000094 	bcc	69cc <w2c_0x24coremark0x2Ewasm_calc_func+0x31c>
    6778:	e080e002 	add	lr, r0, r2
    677c:	e1de43b8 	ldrh	r4, [lr, #56]	@ 0x38
    6780:	e59fcd28 	ldr	ip, [pc, #3368]	@ 74b0 <w2c_0x24coremark0x2Ewasm_calc_func+0xe00>
    6784:	e2818002 	add	r8, r1, #2
    6788:	e59d6008 	ldr	r6, [sp, #8]
    678c:	e79fc00c 	ldr	ip, [pc, ip]
    6790:	e786800c 	str	r8, [r6, ip]
    6794:	e300c1f5 	movw	ip, #501	@ 0x1f5
    6798:	e158000c 	cmp	r8, ip
    679c:	0a00033b 	beq	7490 <w2c_0x24coremark0x2Ewasm_calc_func+0xde0>
    67a0:	e282c028 	add	ip, r2, #40	@ 0x28
    67a4:	e29c9004 	adds	r9, ip, #4
    67a8:	e2a58000 	adc	r8, r5, #0
    67ac:	e15b0009 	cmp	fp, r9
    67b0:	e0d78008 	sbcs	r8, r7, r8
    67b4:	3a000084 	bcc	69cc <w2c_0x24coremark0x2Ewasm_calc_func+0x31c>
    67b8:	e790600c 	ldr	r6, [r0, ip]
    67bc:	e58d6024 	str	r6, [sp, #36]	@ 0x24
    67c0:	e29c8010 	adds	r8, ip, #16
    67c4:	e2a50000 	adc	r0, r5, #0
    67c8:	e15b0008 	cmp	fp, r8
    67cc:	e0d70000 	sbcs	r0, r7, r0
    67d0:	3a00007d 	bcc	69cc <w2c_0x24coremark0x2Ewasm_calc_func+0x31c>
    67d4:	e59e0034 	ldr	r0, [lr, #52]	@ 0x34
    67d8:	e58d002c 	str	r0, [sp, #44]	@ 0x2c
    67dc:	e29c8008 	adds	r8, ip, #8
    67e0:	e2a50000 	adc	r0, r5, #0
    67e4:	e15b0008 	cmp	fp, r8
    67e8:	e0d70000 	sbcs	r0, r7, r0
    67ec:	3a000076 	bcc	69cc <w2c_0x24coremark0x2Ewasm_calc_func+0x31c>
    67f0:	e59ea02c 	ldr	sl, [lr, #44]	@ 0x2c
    67f4:	e29cc00c 	adds	ip, ip, #12
    67f8:	e2a50000 	adc	r0, r5, #0
    67fc:	e15b000c 	cmp	fp, ip
    6800:	e0d70000 	sbcs	r0, r7, r0
    6804:	3a000070 	bcc	69cc <w2c_0x24coremark0x2Ewasm_calc_func+0x31c>
    6808:	e59e0030 	ldr	r0, [lr, #48]	@ 0x30
    680c:	e58d0038 	str	r0, [sp, #56]	@ 0x38
    6810:	e59f0c9c 	ldr	r0, [pc, #3228]	@ 74b4 <w2c_0x24coremark0x2Ewasm_calc_func+0xe04>
    6814:	e281c003 	add	ip, r1, #3
    6818:	e59de008 	ldr	lr, [sp, #8]
    681c:	e79f0000 	ldr	r0, [pc, r0]
    6820:	e78ec000 	str	ip, [lr, r0]
    6824:	e30001f5 	movw	r0, #501	@ 0x1f5
    6828:	e15c0000 	cmp	ip, r0
    682c:	0a000317 	beq	7490 <w2c_0x24coremark0x2Ewasm_calc_func+0xde0>
    6830:	e3560000 	cmp	r6, #0
    6834:	0a00019a 	beq	6ea4 <w2c_0x24coremark0x2Ewasm_calc_func+0x7f4>
    6838:	e59d1024 	ldr	r1, [sp, #36]	@ 0x24
    683c:	e1a0e004 	mov	lr, r4
    6840:	e59d4020 	ldr	r4, [sp, #32]
    6844:	e1a0c00a 	mov	ip, sl
    6848:	e3a06000 	mov	r6, #0
    684c:	e58d3040 	str	r3, [sp, #64]	@ 0x40
    6850:	e1a00081 	lsl	r0, r1, #1
    6854:	e58d003c 	str	r0, [sp, #60]	@ 0x3c
    6858:	e3c10003 	bic	r0, r1, #3
    685c:	e58d0030 	str	r0, [sp, #48]	@ 0x30
    6860:	e2010003 	and	r0, r1, #3
    6864:	e2411001 	sub	r1, r1, #1
    6868:	e58d1028 	str	r1, [sp, #40]	@ 0x28
    686c:	e59d1000 	ldr	r1, [sp]
    6870:	e58d0034 	str	r0, [sp, #52]	@ 0x34
    6874:	e59d3028 	ldr	r3, [sp, #40]	@ 0x28
    6878:	e3530002 	cmp	r3, #2
    687c:	9a00003e 	bls	697c <w2c_0x24coremark0x2Ewasm_calc_func+0x2cc>
    6880:	e3a05000 	mov	r5, #0
    6884:	e58de044 	str	lr, [sp, #68]	@ 0x44
    6888:	e1a0000c 	mov	r0, ip
    688c:	e3a03000 	mov	r3, #0
    6890:	e290e002 	adds	lr, r0, #2
    6894:	e2a58000 	adc	r8, r5, #0
    6898:	e15b000e 	cmp	fp, lr
    689c:	e0d77008 	sbcs	r7, r7, r8
    68a0:	3a000049 	bcc	69cc <w2c_0x24coremark0x2Ewasm_calc_func+0x31c>
    68a4:	e5918010 	ldr	r8, [r1, #16]
    68a8:	e19870b0 	ldrh	r7, [r8, r0]
    68ac:	e0877004 	add	r7, r7, r4
    68b0:	e18870b0 	strh	r7, [r8, r0]
    68b4:	e29e9002 	adds	r9, lr, #2
    68b8:	e591b030 	ldr	fp, [r1, #48]	@ 0x30
    68bc:	e2a57000 	adc	r7, r5, #0
    68c0:	e5918034 	ldr	r8, [r1, #52]	@ 0x34
    68c4:	e15b0009 	cmp	fp, r9
    68c8:	e0d87007 	sbcs	r7, r8, r7
    68cc:	3a00003e 	bcc	69cc <w2c_0x24coremark0x2Ewasm_calc_func+0x31c>
    68d0:	e5918010 	ldr	r8, [r1, #16]
    68d4:	e19870be 	ldrh	r7, [r8, lr]
    68d8:	e0877004 	add	r7, r7, r4
    68dc:	e18870be 	strh	r7, [r8, lr]
    68e0:	e280e004 	add	lr, r0, #4
    68e4:	e591b030 	ldr	fp, [r1, #48]	@ 0x30
    68e8:	e29e9002 	adds	r9, lr, #2
    68ec:	e5918034 	ldr	r8, [r1, #52]	@ 0x34
    68f0:	e2a57000 	adc	r7, r5, #0
    68f4:	e15b0009 	cmp	fp, r9
    68f8:	e0d87007 	sbcs	r7, r8, r7
    68fc:	3a000032 	bcc	69cc <w2c_0x24coremark0x2Ewasm_calc_func+0x31c>
    6900:	e5918010 	ldr	r8, [r1, #16]
    6904:	e19870be 	ldrh	r7, [r8, lr]
    6908:	e0877004 	add	r7, r7, r4
    690c:	e18870be 	strh	r7, [r8, lr]
    6910:	e280e006 	add	lr, r0, #6
    6914:	e591b030 	ldr	fp, [r1, #48]	@ 0x30
    6918:	e29e9002 	adds	r9, lr, #2
    691c:	e5918034 	ldr	r8, [r1, #52]	@ 0x34
    6920:	e2a57000 	adc	r7, r5, #0
    6924:	e15b0009 	cmp	fp, r9
    6928:	e0d87007 	sbcs	r7, r8, r7
    692c:	3a000026 	bcc	69cc <w2c_0x24coremark0x2Ewasm_calc_func+0x31c>
    6930:	e5918010 	ldr	r8, [r1, #16]
    6934:	e19870be 	ldrh	r7, [r8, lr]
    6938:	e0877004 	add	r7, r7, r4
    693c:	e18870be 	strh	r7, [r8, lr]
    6940:	e59de030 	ldr	lr, [sp, #48]	@ 0x30
    6944:	e2833004 	add	r3, r3, #4
    6948:	e2800008 	add	r0, r0, #8
    694c:	e15e0003 	cmp	lr, r3
    6950:	0a000210 	beq	7198 <w2c_0x24coremark0x2Ewasm_calc_func+0xae8>
    6954:	e591b030 	ldr	fp, [r1, #48]	@ 0x30
    6958:	e5917034 	ldr	r7, [r1, #52]	@ 0x34
    695c:	eaffffcb 	b	6890 <w2c_0x24coremark0x2Ewasm_calc_func+0x1e0>
    6960:	e203007f 	and	r0, r3, #127	@ 0x7f
    6964:	e59f3b4c 	ldr	r3, [pc, #2892]	@ 74b8 <w2c_0x24coremark0x2Ewasm_calc_func+0xe08>
    6968:	e59d2008 	ldr	r2, [sp, #8]
    696c:	e79f3003 	ldr	r3, [pc, r3]
    6970:	e7821003 	str	r1, [r2, r3]
    6974:	e28dd09c 	add	sp, sp, #156	@ 0x9c
    6978:	e8bd8ff0 	pop	{r4, r5, r6, r7, r8, r9, sl, fp, pc}
    697c:	e3a03000 	mov	r3, #0
    6980:	e59d0034 	ldr	r0, [sp, #52]	@ 0x34
    6984:	e08c3083 	add	r3, ip, r3, lsl #1
    6988:	e3a08000 	mov	r8, #0
    698c:	e0839080 	add	r9, r3, r0, lsl #1
    6990:	ea000008 	b	69b8 <w2c_0x24coremark0x2Ewasm_calc_func+0x308>
    6994:	e5917010 	ldr	r7, [r1, #16]
    6998:	e19750b3 	ldrh	r5, [r7, r3]
    699c:	e0855004 	add	r5, r5, r4
    69a0:	e1500009 	cmp	r0, r9
    69a4:	e18750b3 	strh	r5, [r7, r3]
    69a8:	e1a03000 	mov	r3, r0
    69ac:	0a0001ec 	beq	7164 <w2c_0x24coremark0x2Ewasm_calc_func+0xab4>
    69b0:	e591b030 	ldr	fp, [r1, #48]	@ 0x30
    69b4:	e5917034 	ldr	r7, [r1, #52]	@ 0x34
    69b8:	e2930002 	adds	r0, r3, #2
    69bc:	e2a85000 	adc	r5, r8, #0
    69c0:	e15b0000 	cmp	fp, r0
    69c4:	e0d77005 	sbcs	r7, r7, r5
    69c8:	2afffff1 	bcs	6994 <w2c_0x24coremark0x2Ewasm_calc_func+0x2e4>
    69cc:	e3a00001 	mov	r0, #1
    69d0:	ebfffffe 	bl	0 <wasm_rt_trap>
    69d4:	e292103a 	adds	r1, r2, #58	@ 0x3a
    69d8:	e58d1018 	str	r1, [sp, #24]
    69dc:	e2ae1000 	adc	r1, lr, #0
    69e0:	e58d101c 	str	r1, [sp, #28]
    69e4:	e59d1018 	ldr	r1, [sp, #24]
    69e8:	e1590001 	cmp	r9, r1
    69ec:	e59d101c 	ldr	r1, [sp, #28]
    69f0:	e0d88001 	sbcs	r8, r8, r1
    69f4:	3afffff4 	bcc	69cc <w2c_0x24coremark0x2Ewasm_calc_func+0x31c>
    69f8:	e59d4000 	ldr	r4, [sp]
    69fc:	e2827038 	add	r7, r2, #56	@ 0x38
    6a00:	e5948010 	ldr	r8, [r4, #16]
    6a04:	e19810b7 	ldrh	r1, [r8, r7]
    6a08:	e1a0000a 	mov	r0, sl
    6a0c:	e58d3000 	str	r3, [sp]
    6a10:	ebffe5b2 	bl	e0 <w2c_0x24coremark0x2Ewasm_crcu16.isra.0>
    6a14:	e18800b7 	strh	r0, [r8, r7]
    6a18:	e59d1010 	ldr	r1, [sp, #16]
    6a1c:	e5942030 	ldr	r2, [r4, #48]	@ 0x30
    6a20:	e1520001 	cmp	r2, r1
    6a24:	e5942034 	ldr	r2, [r4, #52]	@ 0x34
    6a28:	e59d1014 	ldr	r1, [sp, #20]
    6a2c:	e0d22001 	sbcs	r2, r2, r1
    6a30:	3affffe5 	bcc	69cc <w2c_0x24coremark0x2Ewasm_calc_func+0x31c>
    6a34:	e59d3000 	ldr	r3, [sp]
    6a38:	e20a007f 	and	r0, sl, #127	@ 0x7f
    6a3c:	e5942010 	ldr	r2, [r4, #16]
    6a40:	e59d1004 	ldr	r1, [sp, #4]
    6a44:	e2033cff 	and	r3, r3, #65280	@ 0xff00
    6a48:	e1833000 	orr	r3, r3, r0
    6a4c:	e3833080 	orr	r3, r3, #128	@ 0x80
    6a50:	e18230b1 	strh	r3, [r2, r1]
    6a54:	e59f3a60 	ldr	r3, [pc, #2656]	@ 74bc <w2c_0x24coremark0x2Ewasm_calc_func+0xe0c>
    6a58:	e59d2008 	ldr	r2, [sp, #8]
    6a5c:	e79f3003 	ldr	r3, [pc, r3]
    6a60:	e7921003 	ldr	r1, [r2, r3]
    6a64:	e2411001 	sub	r1, r1, #1
    6a68:	eaffffbd 	b	6964 <w2c_0x24coremark0x2Ewasm_calc_func+0x2b4>
    6a6c:	e59d400c 	ldr	r4, [sp, #12]
    6a70:	e292e01c 	adds	lr, r2, #28
    6a74:	e2a4c000 	adc	ip, r4, #0
    6a78:	e159000e 	cmp	r9, lr
    6a7c:	e0d8c00c 	sbcs	ip, r8, ip
    6a80:	3affffd1 	bcc	69cc <w2c_0x24coremark0x2Ewasm_calc_func+0x31c>
    6a84:	e080e002 	add	lr, r0, r2
    6a88:	e59ec018 	ldr	ip, [lr, #24]
    6a8c:	e58dc028 	str	ip, [sp, #40]	@ 0x28
    6a90:	e282c014 	add	ip, r2, #20
    6a94:	e29c9004 	adds	r9, ip, #4
    6a98:	e2a48000 	adc	r8, r4, #0
    6a9c:	e15b0009 	cmp	fp, r9
    6aa0:	e0d78008 	sbcs	r8, r7, r8
    6aa4:	3affffc8 	bcc	69cc <w2c_0x24coremark0x2Ewasm_calc_func+0x31c>
    6aa8:	e790900c 	ldr	r9, [r0, ip]
    6aac:	e2928002 	adds	r8, r2, #2
    6ab0:	e2a4c000 	adc	ip, r4, #0
    6ab4:	e15b0008 	cmp	fp, r8
    6ab8:	e0d7c00c 	sbcs	ip, r7, ip
    6abc:	3affffc2 	bcc	69cc <w2c_0x24coremark0x2Ewasm_calc_func+0x31c>
    6ac0:	e190c0f2 	ldrsh	ip, [r0, r2]
    6ac4:	e58dc030 	str	ip, [sp, #48]	@ 0x30
    6ac8:	e2928004 	adds	r8, r2, #4
    6acc:	e2a4c000 	adc	ip, r4, #0
    6ad0:	e15b0008 	cmp	fp, r8
    6ad4:	e0d7c00c 	sbcs	ip, r7, ip
    6ad8:	3affffbb 	bcc	69cc <w2c_0x24coremark0x2Ewasm_calc_func+0x31c>
    6adc:	e1de80f2 	ldrsh	r8, [lr, #2]
    6ae0:	e292c03a 	adds	ip, r2, #58	@ 0x3a
    6ae4:	e58dc018 	str	ip, [sp, #24]
    6ae8:	e2a44000 	adc	r4, r4, #0
    6aec:	e15b000c 	cmp	fp, ip
    6af0:	e0d7c004 	sbcs	ip, r7, r4
    6af4:	e58d401c 	str	r4, [sp, #28]
    6af8:	3affffb3 	bcc	69cc <w2c_0x24coremark0x2Ewasm_calc_func+0x31c>
    6afc:	e1dee3b8 	ldrh	lr, [lr, #56]	@ 0x38
    6b00:	e59fc9b8 	ldr	ip, [pc, #2488]	@ 74c0 <w2c_0x24coremark0x2Ewasm_calc_func+0xe10>
    6b04:	e2811002 	add	r1, r1, #2
    6b08:	e59d4008 	ldr	r4, [sp, #8]
    6b0c:	e79fc00c 	ldr	ip, [pc, ip]
    6b10:	e784100c 	str	r1, [r4, ip]
    6b14:	e300c1f5 	movw	ip, #501	@ 0x1f5
    6b18:	e151000c 	cmp	r1, ip
    6b1c:	0a00025b 	beq	7490 <w2c_0x24coremark0x2Ewasm_calc_func+0xde0>
    6b20:	e59d4000 	ldr	r4, [sp]
    6b24:	e3a0a000 	mov	sl, #0
    6b28:	e5946004 	ldr	r6, [r4, #4]
    6b2c:	e58d6040 	str	r6, [sp, #64]	@ 0x40
    6b30:	e2465030 	sub	r5, r6, #48	@ 0x30
    6b34:	e2461050 	sub	r1, r6, #80	@ 0x50
    6b38:	e295c008 	adds	ip, r5, #8
    6b3c:	e58d1024 	str	r1, [sp, #36]	@ 0x24
    6b40:	e5841004 	str	r1, [r4, #4]
    6b44:	e2aa1000 	adc	r1, sl, #0
    6b48:	e15b000c 	cmp	fp, ip
    6b4c:	e58d5044 	str	r5, [sp, #68]	@ 0x44
    6b50:	e0d71001 	sbcs	r1, r7, r1
    6b54:	3affff9c 	bcc	69cc <w2c_0x24coremark0x2Ewasm_calc_func+0x31c>
    6b58:	e780a005 	str	sl, [r0, r5]
    6b5c:	e0800005 	add	r0, r0, r5
    6b60:	e1a05004 	mov	r5, r4
    6b64:	e2467028 	sub	r7, r6, #40	@ 0x28
    6b68:	e297c008 	adds	ip, r7, #8
    6b6c:	e58d7048 	str	r7, [sp, #72]	@ 0x48
    6b70:	e580a004 	str	sl, [r0, #4]
    6b74:	e2aa1000 	adc	r1, sl, #0
    6b78:	e5944030 	ldr	r4, [r4, #48]	@ 0x30
    6b7c:	e5950034 	ldr	r0, [r5, #52]	@ 0x34
    6b80:	e154000c 	cmp	r4, ip
    6b84:	e0d01001 	sbcs	r1, r0, r1
    6b88:	3affff8f 	bcc	69cc <w2c_0x24coremark0x2Ewasm_calc_func+0x31c>
    6b8c:	e5951010 	ldr	r1, [r5, #16]
    6b90:	e781a007 	str	sl, [r1, r7]
    6b94:	e0811007 	add	r1, r1, r7
    6b98:	e2467010 	sub	r7, r6, #16
    6b9c:	e58d704c 	str	r7, [sp, #76]	@ 0x4c
    6ba0:	e297c008 	adds	ip, r7, #8
    6ba4:	e581a004 	str	sl, [r1, #4]
    6ba8:	e2aa1000 	adc	r1, sl, #0
    6bac:	e5954030 	ldr	r4, [r5, #48]	@ 0x30
    6bb0:	e5950034 	ldr	r0, [r5, #52]	@ 0x34
    6bb4:	e154000c 	cmp	r4, ip
    6bb8:	e0d01001 	sbcs	r1, r0, r1
    6bbc:	3affff82 	bcc	69cc <w2c_0x24coremark0x2Ewasm_calc_func+0x31c>
    6bc0:	e5951010 	ldr	r1, [r5, #16]
    6bc4:	e781a007 	str	sl, [r1, r7]
    6bc8:	e0811007 	add	r1, r1, r7
    6bcc:	e2467008 	sub	r7, r6, #8
    6bd0:	e58d7050 	str	r7, [sp, #80]	@ 0x50
    6bd4:	e297c008 	adds	ip, r7, #8
    6bd8:	e581a004 	str	sl, [r1, #4]
    6bdc:	e2aa1000 	adc	r1, sl, #0
    6be0:	e5954030 	ldr	r4, [r5, #48]	@ 0x30
    6be4:	e5950034 	ldr	r0, [r5, #52]	@ 0x34
    6be8:	e154000c 	cmp	r4, ip
    6bec:	e0d01001 	sbcs	r1, r0, r1
    6bf0:	3affff75 	bcc	69cc <w2c_0x24coremark0x2Ewasm_calc_func+0x31c>
    6bf4:	e5951010 	ldr	r1, [r5, #16]
    6bf8:	e1a04005 	mov	r4, r5
    6bfc:	e59d0024 	ldr	r0, [sp, #36]	@ 0x24
    6c00:	e781a007 	str	sl, [r1, r7]
    6c04:	e0811007 	add	r1, r1, r7
    6c08:	e290c038 	adds	ip, r0, #56	@ 0x38
    6c0c:	e58dc054 	str	ip, [sp, #84]	@ 0x54
    6c10:	e2aa5000 	adc	r5, sl, #0
    6c14:	e58d5058 	str	r5, [sp, #88]	@ 0x58
    6c18:	e581a004 	str	sl, [r1, #4]
    6c1c:	e5941030 	ldr	r1, [r4, #48]	@ 0x30
    6c20:	e151000c 	cmp	r1, ip
    6c24:	e5941034 	ldr	r1, [r4, #52]	@ 0x34
    6c28:	e0d11005 	sbcs	r1, r1, r5
    6c2c:	3affff66 	bcc	69cc <w2c_0x24coremark0x2Ewasm_calc_func+0x31c>
    6c30:	e5941010 	ldr	r1, [r4, #16]
    6c34:	e246c020 	sub	ip, r6, #32
    6c38:	e2905040 	adds	r5, r0, #64	@ 0x40
    6c3c:	e58dc02c 	str	ip, [sp, #44]	@ 0x2c
    6c40:	e2aab000 	adc	fp, sl, #0
    6c44:	e58d505c 	str	r5, [sp, #92]	@ 0x5c
    6c48:	e781a00c 	str	sl, [r1, ip]
    6c4c:	e081100c 	add	r1, r1, ip
    6c50:	e58db060 	str	fp, [sp, #96]	@ 0x60
    6c54:	e581a004 	str	sl, [r1, #4]
    6c58:	e5941030 	ldr	r1, [r4, #48]	@ 0x30
    6c5c:	e1510005 	cmp	r1, r5
    6c60:	e5941034 	ldr	r1, [r4, #52]	@ 0x34
    6c64:	e0d1100b 	sbcs	r1, r1, fp
    6c68:	3affff57 	bcc	69cc <w2c_0x24coremark0x2Ewasm_calc_func+0x31c>
    6c6c:	e2465018 	sub	r5, r6, #24
    6c70:	e5941010 	ldr	r1, [r4, #16]
    6c74:	e58d5064 	str	r5, [sp, #100]	@ 0x64
    6c78:	e781a005 	str	sl, [r1, r5]
    6c7c:	e0811005 	add	r1, r1, r5
    6c80:	e2905018 	adds	r5, r0, #24
    6c84:	e58d5068 	str	r5, [sp, #104]	@ 0x68
    6c88:	e2aab000 	adc	fp, sl, #0
    6c8c:	e58db06c 	str	fp, [sp, #108]	@ 0x6c
    6c90:	e581a004 	str	sl, [r1, #4]
    6c94:	e5941030 	ldr	r1, [r4, #48]	@ 0x30
    6c98:	e1510005 	cmp	r1, r5
    6c9c:	e5941034 	ldr	r1, [r4, #52]	@ 0x34
    6ca0:	e0d1100b 	sbcs	r1, r1, fp
    6ca4:	3affff48 	bcc	69cc <w2c_0x24coremark0x2Ewasm_calc_func+0x31c>
    6ca8:	e5941010 	ldr	r1, [r4, #16]
    6cac:	e2465040 	sub	r5, r6, #64	@ 0x40
    6cb0:	e290b020 	adds	fp, r0, #32
    6cb4:	e58d5034 	str	r5, [sp, #52]	@ 0x34
    6cb8:	e2aa7000 	adc	r7, sl, #0
    6cbc:	e58db070 	str	fp, [sp, #112]	@ 0x70
    6cc0:	e781a005 	str	sl, [r1, r5]
    6cc4:	e0811005 	add	r1, r1, r5
    6cc8:	e58d7074 	str	r7, [sp, #116]	@ 0x74
    6ccc:	e581a004 	str	sl, [r1, #4]
    6cd0:	e5941030 	ldr	r1, [r4, #48]	@ 0x30
    6cd4:	e151000b 	cmp	r1, fp
    6cd8:	e5941034 	ldr	r1, [r4, #52]	@ 0x34
    6cdc:	e0d11007 	sbcs	r1, r1, r7
    6ce0:	3affff39 	bcc	69cc <w2c_0x24coremark0x2Ewasm_calc_func+0x31c>
    6ce4:	e246b038 	sub	fp, r6, #56	@ 0x38
    6ce8:	e5941010 	ldr	r1, [r4, #16]
    6cec:	e2900010 	adds	r0, r0, #16
    6cf0:	e58db078 	str	fp, [sp, #120]	@ 0x78
    6cf4:	e58d0038 	str	r0, [sp, #56]	@ 0x38
    6cf8:	e781a00b 	str	sl, [r1, fp]
    6cfc:	e081100b 	add	r1, r1, fp
    6d00:	e2aab000 	adc	fp, sl, #0
    6d04:	e58db03c 	str	fp, [sp, #60]	@ 0x3c
    6d08:	e581a004 	str	sl, [r1, #4]
    6d0c:	e5941030 	ldr	r1, [r4, #48]	@ 0x30
    6d10:	e1510000 	cmp	r1, r0
    6d14:	e5941034 	ldr	r1, [r4, #52]	@ 0x34
    6d18:	e0d1100b 	sbcs	r1, r1, fp
    6d1c:	3affff2a 	bcc	69cc <w2c_0x24coremark0x2Ewasm_calc_func+0x31c>
    6d20:	e5941010 	ldr	r1, [r4, #16]
    6d24:	e2466044 	sub	r6, r6, #68	@ 0x44
    6d28:	e7819006 	str	r9, [r1, r6]
    6d2c:	e2991001 	adds	r1, r9, #1
    6d30:	e2aac000 	adc	ip, sl, #0
    6d34:	e58d107c 	str	r1, [sp, #124]	@ 0x7c
    6d38:	e594b030 	ldr	fp, [r4, #48]	@ 0x30
    6d3c:	e5947034 	ldr	r7, [r4, #52]	@ 0x34
    6d40:	e15b0001 	cmp	fp, r1
    6d44:	e0d7100c 	sbcs	r1, r7, ip
    6d48:	3affff1f 	bcc	69cc <w2c_0x24coremark0x2Ewasm_calc_func+0x31c>
    6d4c:	e5940010 	ldr	r0, [r4, #16]
    6d50:	e7d01009 	ldrb	r1, [r0, r9]
    6d54:	e151000a 	cmp	r1, sl
    6d58:	0a0000a0 	beq	6fe0 <w2c_0x24coremark0x2Ewasm_calc_func+0x930>
    6d5c:	e58d9084 	str	r9, [sp, #132]	@ 0x84
    6d60:	e1a0500a 	mov	r5, sl
    6d64:	e58d808c 	str	r8, [sp, #140]	@ 0x8c
    6d68:	e59d702c 	ldr	r7, [sp, #44]	@ 0x2c
    6d6c:	e1cd83d4 	ldrd	r8, [sp, #52]	@ 0x34
    6d70:	e58d3080 	str	r3, [sp, #128]	@ 0x80
    6d74:	e59db03c 	ldr	fp, [sp, #60]	@ 0x3c
    6d78:	e58de088 	str	lr, [sp, #136]	@ 0x88
    6d7c:	e58dc090 	str	ip, [sp, #144]	@ 0x90
    6d80:	e58d2094 	str	r2, [sp, #148]	@ 0x94
    6d84:	e1a02008 	mov	r2, r8
    6d88:	e1a01006 	mov	r1, r6
    6d8c:	e1a00004 	mov	r0, r4
    6d90:	ebffe656 	bl	6f0 <w2c_0x24coremark0x2Ewasm_core_state_transition>
    6d94:	e594c030 	ldr	ip, [r4, #48]	@ 0x30
    6d98:	e0870100 	add	r0, r7, r0, lsl #2
    6d9c:	e5942034 	ldr	r2, [r4, #52]	@ 0x34
    6da0:	e2901004 	adds	r1, r0, #4
    6da4:	e2a53000 	adc	r3, r5, #0
    6da8:	e15c0001 	cmp	ip, r1
    6dac:	e0d23003 	sbcs	r3, r2, r3
    6db0:	3affff05 	bcc	69cc <w2c_0x24coremark0x2Ewasm_calc_func+0x31c>
    6db4:	e5942010 	ldr	r2, [r4, #16]
    6db8:	e7923000 	ldr	r3, [r2, r0]
    6dbc:	e2833001 	add	r3, r3, #1
    6dc0:	e7823000 	str	r3, [r2, r0]
    6dc4:	e5942030 	ldr	r2, [r4, #48]	@ 0x30
    6dc8:	e5941034 	ldr	r1, [r4, #52]	@ 0x34
    6dcc:	e1520009 	cmp	r2, r9
    6dd0:	e0d1300b 	sbcs	r3, r1, fp
    6dd4:	3afffefc 	bcc	69cc <w2c_0x24coremark0x2Ewasm_calc_func+0x31c>
    6dd8:	e5940010 	ldr	r0, [r4, #16]
    6ddc:	e7903006 	ldr	r3, [r0, r6]
    6de0:	e293e001 	adds	lr, r3, #1
    6de4:	e2a5c000 	adc	ip, r5, #0
    6de8:	e152000e 	cmp	r2, lr
    6dec:	e0d1c00c 	sbcs	ip, r1, ip
    6df0:	3afffef5 	bcc	69cc <w2c_0x24coremark0x2Ewasm_calc_func+0x31c>
    6df4:	e7d03003 	ldrb	r3, [r0, r3]
    6df8:	e3530000 	cmp	r3, #0
    6dfc:	1affffe0 	bne	6d84 <w2c_0x24coremark0x2Ewasm_calc_func+0x6d4>
    6e00:	e28d3080 	add	r3, sp, #128	@ 0x80
    6e04:	e1a07001 	mov	r7, r1
    6e08:	e59d1020 	ldr	r1, [sp, #32]
    6e0c:	e1a0b002 	mov	fp, r2
    6e10:	e59d808c 	ldr	r8, [sp, #140]	@ 0x8c
    6e14:	e8934208 	ldm	r3, {r3, r9, lr}
    6e18:	e3510022 	cmp	r1, #34	@ 0x22
    6e1c:	33a01022 	movcc	r1, #34	@ 0x22
    6e20:	e58d1020 	str	r1, [sp, #32]
    6e24:	e59d1028 	ldr	r1, [sp, #40]	@ 0x28
    6e28:	e59dc090 	ldr	ip, [sp, #144]	@ 0x90
    6e2c:	e59d2094 	ldr	r2, [sp, #148]	@ 0x94
    6e30:	e3510000 	cmp	r1, #0
    6e34:	e0894001 	add	r4, r9, r1
    6e38:	da000077 	ble	701c <w2c_0x24coremark0x2Ewasm_calc_func+0x96c>
    6e3c:	e58dc088 	str	ip, [sp, #136]	@ 0x88
    6e40:	e1a01009 	mov	r1, r9
    6e44:	e59dc030 	ldr	ip, [sp, #48]	@ 0x30
    6e48:	e3a05000 	mov	r5, #0
    6e4c:	e58d2030 	str	r2, [sp, #48]	@ 0x30
    6e50:	e59d0000 	ldr	r0, [sp]
    6e54:	e59d2020 	ldr	r2, [sp, #32]
    6e58:	e58d3080 	str	r3, [sp, #128]	@ 0x80
    6e5c:	e58d6084 	str	r6, [sp, #132]	@ 0x84
    6e60:	ea000009 	b	6e8c <w2c_0x24coremark0x2Ewasm_calc_func+0x7dc>
    6e64:	e5906010 	ldr	r6, [r0, #16]
    6e68:	e7d63001 	ldrb	r3, [r6, r1]
    6e6c:	e353002c 	cmp	r3, #44	@ 0x2c
    6e70:	1023300c 	eorne	r3, r3, ip
    6e74:	17c63001 	strbne	r3, [r6, r1]
    6e78:	e0811002 	add	r1, r1, r2
    6e7c:	1590b030 	ldrne	fp, [r0, #48]	@ 0x30
    6e80:	15907034 	ldrne	r7, [r0, #52]	@ 0x34
    6e84:	e1510004 	cmp	r1, r4
    6e88:	2a0000be 	bcs	7188 <w2c_0x24coremark0x2Ewasm_calc_func+0xad8>
    6e8c:	e2916001 	adds	r6, r1, #1
    6e90:	e2a53000 	adc	r3, r5, #0
    6e94:	e15b0006 	cmp	fp, r6
    6e98:	e0d73003 	sbcs	r3, r7, r3
    6e9c:	2afffff0 	bcs	6e64 <w2c_0x24coremark0x2Ewasm_calc_func+0x7b4>
    6ea0:	eafffec9 	b	69cc <w2c_0x24coremark0x2Ewasm_calc_func+0x31c>
    6ea4:	e281c004 	add	ip, r1, #4
    6ea8:	e15c0000 	cmp	ip, r0
    6eac:	059f3610 	ldreq	r3, [pc, #1552]	@ 74c4 <w2c_0x24coremark0x2Ewasm_calc_func+0xe14>
    6eb0:	079f3003 	ldreq	r3, [pc, r3]
    6eb4:	078ec003 	streq	ip, [lr, r3]
    6eb8:	0a000174 	beq	7490 <w2c_0x24coremark0x2Ewasm_calc_func+0xde0>
    6ebc:	e3510e1f 	cmp	r1, #496	@ 0x1f0
    6ec0:	0a00016e 	beq	7480 <w2c_0x24coremark0x2Ewasm_calc_func+0xdd0>
    6ec4:	e59f15fc 	ldr	r1, [pc, #1532]	@ 74c8 <w2c_0x24coremark0x2Ewasm_calc_func+0xe18>
    6ec8:	e58d2028 	str	r2, [sp, #40]	@ 0x28
    6ecc:	e58d3020 	str	r3, [sp, #32]
    6ed0:	e59d5008 	ldr	r5, [sp, #8]
    6ed4:	e79f1001 	ldr	r1, [pc, r1]
    6ed8:	e59d6024 	ldr	r6, [sp, #36]	@ 0x24
    6edc:	e785c001 	str	ip, [r5, r1]
    6ee0:	e1a00006 	mov	r0, r6
    6ee4:	e1a01006 	mov	r1, r6
    6ee8:	ebffe47c 	bl	e0 <w2c_0x24coremark0x2Ewasm_crcu16.isra.0>
    6eec:	e59fc5d8 	ldr	ip, [pc, #1496]	@ 74cc <w2c_0x24coremark0x2Ewasm_calc_func+0xe1c>
    6ef0:	e1a01000 	mov	r1, r0
    6ef4:	e79fc00c 	ldr	ip, [pc, ip]
    6ef8:	e795000c 	ldr	r0, [r5, ip]
    6efc:	e3500f7d 	cmp	r0, #500	@ 0x1f4
    6f00:	8a000162 	bhi	7490 <w2c_0x24coremark0x2Ewasm_calc_func+0xde0>
    6f04:	e1a00006 	mov	r0, r6
    6f08:	ebffe474 	bl	e0 <w2c_0x24coremark0x2Ewasm_crcu16.isra.0>
    6f0c:	e59fc5bc 	ldr	ip, [pc, #1468]	@ 74d0 <w2c_0x24coremark0x2Ewasm_calc_func+0xe20>
    6f10:	e1a01000 	mov	r1, r0
    6f14:	e79fc00c 	ldr	ip, [pc, ip]
    6f18:	e795000c 	ldr	r0, [r5, ip]
    6f1c:	e3500f7d 	cmp	r0, #500	@ 0x1f4
    6f20:	8a00015a 	bhi	7490 <w2c_0x24coremark0x2Ewasm_calc_func+0xde0>
    6f24:	e1a00006 	mov	r0, r6
    6f28:	ebffe46c 	bl	e0 <w2c_0x24coremark0x2Ewasm_crcu16.isra.0>
    6f2c:	e59f15a0 	ldr	r1, [pc, #1440]	@ 74d4 <w2c_0x24coremark0x2Ewasm_calc_func+0xe24>
    6f30:	e59fc5a0 	ldr	ip, [pc, #1440]	@ 74d8 <w2c_0x24coremark0x2Ewasm_calc_func+0xe28>
    6f34:	e6bf0070 	sxth	r0, r0
    6f38:	e59d3020 	ldr	r3, [sp, #32]
    6f3c:	e59d2028 	ldr	r2, [sp, #40]	@ 0x28
    6f40:	e79f1001 	ldr	r1, [pc, r1]
    6f44:	e79fc00c 	ldr	ip, [pc, ip]
    6f48:	e7951001 	ldr	r1, [r5, r1]
    6f4c:	e2411001 	sub	r1, r1, #1
    6f50:	e785100c 	str	r1, [r5, ip]
    6f54:	e3510f7d 	cmp	r1, #500	@ 0x1f4
    6f58:	8a00014c 	bhi	7490 <w2c_0x24coremark0x2Ewasm_calc_func+0xde0>
    6f5c:	e1a01004 	mov	r1, r4
    6f60:	e6ff0070 	uxth	r0, r0
    6f64:	e1cd22f0 	strd	r2, [sp, #32]
    6f68:	ebffe45c 	bl	e0 <w2c_0x24coremark0x2Ewasm_crcu16.isra.0>
    6f6c:	e59f1568 	ldr	r1, [pc, #1384]	@ 74dc <w2c_0x24coremark0x2Ewasm_calc_func+0xe2c>
    6f70:	e1a0a000 	mov	sl, r0
    6f74:	e59d3008 	ldr	r3, [sp, #8]
    6f78:	e59d2020 	ldr	r2, [sp, #32]
    6f7c:	e79f1001 	ldr	r1, [pc, r1]
    6f80:	e7930001 	ldr	r0, [r3, r1]
    6f84:	e59f1554 	ldr	r1, [pc, #1364]	@ 74e0 <w2c_0x24coremark0x2Ewasm_calc_func+0xe30>
    6f88:	e2400002 	sub	r0, r0, #2
    6f8c:	e79f1001 	ldr	r1, [pc, r1]
    6f90:	e7830001 	str	r0, [r3, r1]
    6f94:	e292003e 	adds	r0, r2, #62	@ 0x3e
    6f98:	e59d3000 	ldr	r3, [sp]
    6f9c:	e59d100c 	ldr	r1, [sp, #12]
    6fa0:	e5939030 	ldr	r9, [r3, #48]	@ 0x30
    6fa4:	e2a11000 	adc	r1, r1, #0
    6fa8:	e5938034 	ldr	r8, [r3, #52]	@ 0x34
    6fac:	e1590000 	cmp	r9, r0
    6fb0:	e0d81001 	sbcs	r1, r8, r1
    6fb4:	3afffe84 	bcc	69cc <w2c_0x24coremark0x2Ewasm_calc_func+0x31c>
    6fb8:	e593c010 	ldr	ip, [r3, #16]
    6fbc:	e282003c 	add	r0, r2, #60	@ 0x3c
    6fc0:	e19c10b0 	ldrh	r1, [ip, r0]
    6fc4:	e59d3024 	ldr	r3, [sp, #36]	@ 0x24
    6fc8:	e3510000 	cmp	r1, #0
    6fcc:	059d1000 	ldreq	r1, [sp]
    6fd0:	018ca0b0 	strheq	sl, [ip, r0]
    6fd4:	05919030 	ldreq	r9, [r1, #48]	@ 0x30
    6fd8:	05918034 	ldreq	r8, [r1, #52]	@ 0x34
    6fdc:	eafffe80 	b	69e4 <w2c_0x24coremark0x2Ewasm_calc_func+0x334>
    6fe0:	e59d1020 	ldr	r1, [sp, #32]
    6fe4:	e3510022 	cmp	r1, #34	@ 0x22
    6fe8:	33a01022 	movcc	r1, #34	@ 0x22
    6fec:	e58d1020 	str	r1, [sp, #32]
    6ff0:	e59d1028 	ldr	r1, [sp, #40]	@ 0x28
    6ff4:	e3510000 	cmp	r1, #0
    6ff8:	e0894001 	add	r4, r9, r1
    6ffc:	caffff8e 	bgt	6e3c <w2c_0x24coremark0x2Ewasm_calc_func+0x78c>
    7000:	e59d1038 	ldr	r1, [sp, #56]	@ 0x38
    7004:	e15b0001 	cmp	fp, r1
    7008:	e59d103c 	ldr	r1, [sp, #60]	@ 0x3c
    700c:	e0d77001 	sbcs	r7, r7, r1
    7010:	3afffe6d 	bcc	69cc <w2c_0x24coremark0x2Ewasm_calc_func+0x31c>
    7014:	e59d1000 	ldr	r1, [sp]
    7018:	e5910010 	ldr	r0, [r1, #16]
    701c:	e59d5000 	ldr	r5, [sp]
    7020:	e7809006 	str	r9, [r0, r6]
    7024:	e59d107c 	ldr	r1, [sp, #124]	@ 0x7c
    7028:	e595b030 	ldr	fp, [r5, #48]	@ 0x30
    702c:	e5957034 	ldr	r7, [r5, #52]	@ 0x34
    7030:	e15b0001 	cmp	fp, r1
    7034:	e0d7100c 	sbcs	r1, r7, ip
    7038:	3afffe63 	bcc	69cc <w2c_0x24coremark0x2Ewasm_calc_func+0x31c>
    703c:	e5951010 	ldr	r1, [r5, #16]
    7040:	e7d11009 	ldrb	r1, [r1, r9]
    7044:	e3510000 	cmp	r1, #0
    7048:	0a00002e 	beq	7108 <w2c_0x24coremark0x2Ewasm_calc_func+0xa58>
    704c:	e58d407c 	str	r4, [sp, #124]	@ 0x7c
    7050:	e1a0700e 	mov	r7, lr
    7054:	e59d402c 	ldr	r4, [sp, #44]	@ 0x2c
    7058:	e1a0b002 	mov	fp, r2
    705c:	e58d3030 	str	r3, [sp, #48]	@ 0x30
    7060:	e59d2034 	ldr	r2, [sp, #52]	@ 0x34
    7064:	e1a01006 	mov	r1, r6
    7068:	e1a00005 	mov	r0, r5
    706c:	ebffe59f 	bl	6f0 <w2c_0x24coremark0x2Ewasm_core_state_transition>
    7070:	e595c030 	ldr	ip, [r5, #48]	@ 0x30
    7074:	e0843100 	add	r3, r4, r0, lsl #2
    7078:	e5951034 	ldr	r1, [r5, #52]	@ 0x34
    707c:	e2930004 	adds	r0, r3, #4
    7080:	23a02001 	movcs	r2, #1
    7084:	33a02000 	movcc	r2, #0
    7088:	e15c0000 	cmp	ip, r0
    708c:	e0d12002 	sbcs	r2, r1, r2
    7090:	3afffe4d 	bcc	69cc <w2c_0x24coremark0x2Ewasm_calc_func+0x31c>
    7094:	e5951010 	ldr	r1, [r5, #16]
    7098:	e7912003 	ldr	r2, [r1, r3]
    709c:	e2822001 	add	r2, r2, #1
    70a0:	e7812003 	str	r2, [r1, r3]
    70a4:	e59d3038 	ldr	r3, [sp, #56]	@ 0x38
    70a8:	e5952030 	ldr	r2, [r5, #48]	@ 0x30
    70ac:	e5951034 	ldr	r1, [r5, #52]	@ 0x34
    70b0:	e1520003 	cmp	r2, r3
    70b4:	e59d303c 	ldr	r3, [sp, #60]	@ 0x3c
    70b8:	e0d13003 	sbcs	r3, r1, r3
    70bc:	3afffe42 	bcc	69cc <w2c_0x24coremark0x2Ewasm_calc_func+0x31c>
    70c0:	e595c010 	ldr	ip, [r5, #16]
    70c4:	e79c3006 	ldr	r3, [ip, r6]
    70c8:	e293e001 	adds	lr, r3, #1
    70cc:	23a00001 	movcs	r0, #1
    70d0:	33a00000 	movcc	r0, #0
    70d4:	e152000e 	cmp	r2, lr
    70d8:	e0d10000 	sbcs	r0, r1, r0
    70dc:	3afffe3a 	bcc	69cc <w2c_0x24coremark0x2Ewasm_calc_func+0x31c>
    70e0:	e7dc3003 	ldrb	r3, [ip, r3]
    70e4:	e3530000 	cmp	r3, #0
    70e8:	1affffdc 	bne	7060 <w2c_0x24coremark0x2Ewasm_calc_func+0x9b0>
    70ec:	e1a0e007 	mov	lr, r7
    70f0:	e59d3030 	ldr	r3, [sp, #48]	@ 0x30
    70f4:	e1a07001 	mov	r7, r1
    70f8:	e59d407c 	ldr	r4, [sp, #124]	@ 0x7c
    70fc:	e1a0100b 	mov	r1, fp
    7100:	e1a0b002 	mov	fp, r2
    7104:	e1a02001 	mov	r2, r1
    7108:	e59d1028 	ldr	r1, [sp, #40]	@ 0x28
    710c:	e3510000 	cmp	r1, #0
    7110:	da00002c 	ble	71c8 <w2c_0x24coremark0x2Ewasm_calc_func+0xb18>
    7114:	e59d6020 	ldr	r6, [sp, #32]
    7118:	e3a0c000 	mov	ip, #0
    711c:	e59d5000 	ldr	r5, [sp]
    7120:	ea000009 	b	714c <w2c_0x24coremark0x2Ewasm_calc_func+0xa9c>
    7124:	e5950010 	ldr	r0, [r5, #16]
    7128:	e7d01009 	ldrb	r1, [r0, r9]
    712c:	e351002c 	cmp	r1, #44	@ 0x2c
    7130:	10211008 	eorne	r1, r1, r8
    7134:	17c01009 	strbne	r1, [r0, r9]
    7138:	e0899006 	add	r9, r9, r6
    713c:	1595b030 	ldrne	fp, [r5, #48]	@ 0x30
    7140:	15957034 	ldrne	r7, [r5, #52]	@ 0x34
    7144:	e1590004 	cmp	r9, r4
    7148:	2a00001e 	bcs	71c8 <w2c_0x24coremark0x2Ewasm_calc_func+0xb18>
    714c:	e2990001 	adds	r0, r9, #1
    7150:	e2ac1000 	adc	r1, ip, #0
    7154:	e15b0000 	cmp	fp, r0
    7158:	e0d71001 	sbcs	r1, r7, r1
    715c:	2afffff0 	bcs	7124 <w2c_0x24coremark0x2Ewasm_calc_func+0xa74>
    7160:	eafffe19 	b	69cc <w2c_0x24coremark0x2Ewasm_calc_func+0x31c>
    7164:	e59d303c 	ldr	r3, [sp, #60]	@ 0x3c
    7168:	e2866001 	add	r6, r6, #1
    716c:	e08cc003 	add	ip, ip, r3
    7170:	e59d3024 	ldr	r3, [sp, #36]	@ 0x24
    7174:	e1560003 	cmp	r6, r3
    7178:	0a0000dd 	beq	74f4 <w2c_0x24coremark0x2Ewasm_calc_func+0xe44>
    717c:	e591b030 	ldr	fp, [r1, #48]	@ 0x30
    7180:	e5917034 	ldr	r7, [r1, #52]	@ 0x34
    7184:	eafffdba 	b	6874 <w2c_0x24coremark0x2Ewasm_calc_func+0x1c4>
    7188:	e28d3080 	add	r3, sp, #128	@ 0x80
    718c:	e59d2030 	ldr	r2, [sp, #48]	@ 0x30
    7190:	e8931048 	ldm	r3, {r3, r6, ip}
    7194:	eaffff99 	b	7000 <w2c_0x24coremark0x2Ewasm_calc_func+0x950>
    7198:	e59d0034 	ldr	r0, [sp, #52]	@ 0x34
    719c:	e3500000 	cmp	r0, #0
    71a0:	1a0000bc 	bne	7498 <w2c_0x24coremark0x2Ewasm_calc_func+0xde8>
    71a4:	e59d303c 	ldr	r3, [sp, #60]	@ 0x3c
    71a8:	e2866001 	add	r6, r6, #1
    71ac:	e08cc003 	add	ip, ip, r3
    71b0:	e59d3024 	ldr	r3, [sp, #36]	@ 0x24
    71b4:	e1560003 	cmp	r6, r3
    71b8:	0a00029c 	beq	7c30 <w2c_0x24coremark0x2Ewasm_calc_func+0x1580>
    71bc:	e591b030 	ldr	fp, [r1, #48]	@ 0x30
    71c0:	e5917034 	ldr	r7, [r1, #52]	@ 0x34
    71c4:	eafffdaf 	b	6888 <w2c_0x24coremark0x2Ewasm_calc_func+0x1d8>
    71c8:	e59d1024 	ldr	r1, [sp, #36]	@ 0x24
    71cc:	e1a0900b 	mov	r9, fp
    71d0:	e1a08007 	mov	r8, r7
    71d4:	e2910034 	adds	r0, r1, #52	@ 0x34
    71d8:	e2aa1000 	adc	r1, sl, #0
    71dc:	e15b0000 	cmp	fp, r0
    71e0:	e0d71001 	sbcs	r1, r7, r1
    71e4:	3afffdf8 	bcc	69cc <w2c_0x24coremark0x2Ewasm_calc_func+0x31c>
    71e8:	e58d3020 	str	r3, [sp, #32]
    71ec:	e59d3000 	ldr	r3, [sp]
    71f0:	e58d2028 	str	r2, [sp, #40]	@ 0x28
    71f4:	e59d202c 	ldr	r2, [sp, #44]	@ 0x2c
    71f8:	e5934010 	ldr	r4, [r3, #16]
    71fc:	e7940002 	ldr	r0, [r4, r2]
    7200:	e1a0100e 	mov	r1, lr
    7204:	ebffe41d 	bl	280 <w2c_0x24coremark0x2Ewasm_crcu32.isra.0>
    7208:	e59d5024 	ldr	r5, [sp, #36]	@ 0x24
    720c:	e1a01000 	mov	r1, r0
    7210:	e2950014 	adds	r0, r5, #20
    7214:	e2aac000 	adc	ip, sl, #0
    7218:	e15b0000 	cmp	fp, r0
    721c:	e0d7c00c 	sbcs	ip, r7, ip
    7220:	3afffde9 	bcc	69cc <w2c_0x24coremark0x2Ewasm_calc_func+0x31c>
    7224:	e59d2034 	ldr	r2, [sp, #52]	@ 0x34
    7228:	e7940002 	ldr	r0, [r4, r2]
    722c:	ebffe413 	bl	280 <w2c_0x24coremark0x2Ewasm_crcu32.isra.0>
    7230:	e59d2054 	ldr	r2, [sp, #84]	@ 0x54
    7234:	e1a01000 	mov	r1, r0
    7238:	e15b0002 	cmp	fp, r2
    723c:	e59d2058 	ldr	r2, [sp, #88]	@ 0x58
    7240:	e0d70002 	sbcs	r0, r7, r2
    7244:	3afffde0 	bcc	69cc <w2c_0x24coremark0x2Ewasm_calc_func+0x31c>
    7248:	e59d2040 	ldr	r2, [sp, #64]	@ 0x40
    724c:	e0846002 	add	r6, r4, r2
    7250:	e516001c 	ldr	r0, [r6, #-28]	@ 0xffffffe4
    7254:	ebffe409 	bl	280 <w2c_0x24coremark0x2Ewasm_crcu32.isra.0>
    7258:	e1a01000 	mov	r1, r0
    725c:	e59d0068 	ldr	r0, [sp, #104]	@ 0x68
    7260:	e15b0000 	cmp	fp, r0
    7264:	e59d006c 	ldr	r0, [sp, #108]	@ 0x6c
    7268:	e0d70000 	sbcs	r0, r7, r0
    726c:	3afffdd6 	bcc	69cc <w2c_0x24coremark0x2Ewasm_calc_func+0x31c>
    7270:	e516003c 	ldr	r0, [r6, #-60]	@ 0xffffffc4
    7274:	ebffe401 	bl	280 <w2c_0x24coremark0x2Ewasm_crcu32.isra.0>
    7278:	e1a01000 	mov	r1, r0
    727c:	e295003c 	adds	r0, r5, #60	@ 0x3c
    7280:	e2aac000 	adc	ip, sl, #0
    7284:	e15b0000 	cmp	fp, r0
    7288:	e0d7c00c 	sbcs	ip, r7, ip
    728c:	3afffdce 	bcc	69cc <w2c_0x24coremark0x2Ewasm_calc_func+0x31c>
    7290:	e59d0064 	ldr	r0, [sp, #100]	@ 0x64
    7294:	e7940000 	ldr	r0, [r4, r0]
    7298:	ebffe3f8 	bl	280 <w2c_0x24coremark0x2Ewasm_crcu32.isra.0>
    729c:	e1a01000 	mov	r1, r0
    72a0:	e295001c 	adds	r0, r5, #28
    72a4:	e2aac000 	adc	ip, sl, #0
    72a8:	e15b0000 	cmp	fp, r0
    72ac:	e0d7c00c 	sbcs	ip, r7, ip
    72b0:	3afffdc5 	bcc	69cc <w2c_0x24coremark0x2Ewasm_calc_func+0x31c>
    72b4:	e59d0078 	ldr	r0, [sp, #120]	@ 0x78
    72b8:	e7940000 	ldr	r0, [r4, r0]
    72bc:	ebffe3ef 	bl	280 <w2c_0x24coremark0x2Ewasm_crcu32.isra.0>
    72c0:	e1a01000 	mov	r1, r0
    72c4:	e59d005c 	ldr	r0, [sp, #92]	@ 0x5c
    72c8:	e15b0000 	cmp	fp, r0
    72cc:	e59d0060 	ldr	r0, [sp, #96]	@ 0x60
    72d0:	e0d70000 	sbcs	r0, r7, r0
    72d4:	3afffdbc 	bcc	69cc <w2c_0x24coremark0x2Ewasm_calc_func+0x31c>
    72d8:	e5160014 	ldr	r0, [r6, #-20]	@ 0xffffffec
    72dc:	ebffe3e7 	bl	280 <w2c_0x24coremark0x2Ewasm_crcu32.isra.0>
    72e0:	e1a01000 	mov	r1, r0
    72e4:	e59d0070 	ldr	r0, [sp, #112]	@ 0x70
    72e8:	e15b0000 	cmp	fp, r0
    72ec:	e59d0074 	ldr	r0, [sp, #116]	@ 0x74
    72f0:	e0d70000 	sbcs	r0, r7, r0
    72f4:	3afffdb4 	bcc	69cc <w2c_0x24coremark0x2Ewasm_calc_func+0x31c>
    72f8:	e5160034 	ldr	r0, [r6, #-52]	@ 0xffffffcc
    72fc:	ebffe3df 	bl	280 <w2c_0x24coremark0x2Ewasm_crcu32.isra.0>
    7300:	e1a01000 	mov	r1, r0
    7304:	e2950044 	adds	r0, r5, #68	@ 0x44
    7308:	e2aac000 	adc	ip, sl, #0
    730c:	e15b0000 	cmp	fp, r0
    7310:	e0d7c00c 	sbcs	ip, r7, ip
    7314:	3afffdac 	bcc	69cc <w2c_0x24coremark0x2Ewasm_calc_func+0x31c>
    7318:	e59d004c 	ldr	r0, [sp, #76]	@ 0x4c
    731c:	e7940000 	ldr	r0, [r4, r0]
    7320:	ebffe3d6 	bl	280 <w2c_0x24coremark0x2Ewasm_crcu32.isra.0>
    7324:	e1a01000 	mov	r1, r0
    7328:	e2950024 	adds	r0, r5, #36	@ 0x24
    732c:	e2aac000 	adc	ip, sl, #0
    7330:	e15b0000 	cmp	fp, r0
    7334:	e0d7c00c 	sbcs	ip, r7, ip
    7338:	3afffda3 	bcc	69cc <w2c_0x24coremark0x2Ewasm_calc_func+0x31c>
    733c:	e59d0044 	ldr	r0, [sp, #68]	@ 0x44
    7340:	e7940000 	ldr	r0, [r4, r0]
    7344:	ebffe3cd 	bl	280 <w2c_0x24coremark0x2Ewasm_crcu32.isra.0>
    7348:	e1a01000 	mov	r1, r0
    734c:	e2950048 	adds	r0, r5, #72	@ 0x48
    7350:	e2aac000 	adc	ip, sl, #0
    7354:	e15b0000 	cmp	fp, r0
    7358:	e0d7c00c 	sbcs	ip, r7, ip
    735c:	3afffd9a 	bcc	69cc <w2c_0x24coremark0x2Ewasm_calc_func+0x31c>
    7360:	e516000c 	ldr	r0, [r6, #-12]
    7364:	ebffe3c5 	bl	280 <w2c_0x24coremark0x2Ewasm_crcu32.isra.0>
    7368:	e1a01000 	mov	r1, r0
    736c:	e2950028 	adds	r0, r5, #40	@ 0x28
    7370:	e2aac000 	adc	ip, sl, #0
    7374:	e15b0000 	cmp	fp, r0
    7378:	e0d7c00c 	sbcs	ip, r7, ip
    737c:	3afffd92 	bcc	69cc <w2c_0x24coremark0x2Ewasm_calc_func+0x31c>
    7380:	e516002c 	ldr	r0, [r6, #-44]	@ 0xffffffd4
    7384:	ebffe3bd 	bl	280 <w2c_0x24coremark0x2Ewasm_crcu32.isra.0>
    7388:	e1a01000 	mov	r1, r0
    738c:	e295004c 	adds	r0, r5, #76	@ 0x4c
    7390:	e2aac000 	adc	ip, sl, #0
    7394:	e15b0000 	cmp	fp, r0
    7398:	e0d7c00c 	sbcs	ip, r7, ip
    739c:	3afffd8a 	bcc	69cc <w2c_0x24coremark0x2Ewasm_calc_func+0x31c>
    73a0:	e59d0050 	ldr	r0, [sp, #80]	@ 0x50
    73a4:	e7940000 	ldr	r0, [r4, r0]
    73a8:	ebffe3b4 	bl	280 <w2c_0x24coremark0x2Ewasm_crcu32.isra.0>
    73ac:	e1a01000 	mov	r1, r0
    73b0:	e295002c 	adds	r0, r5, #44	@ 0x2c
    73b4:	e2aac000 	adc	ip, sl, #0
    73b8:	e15b0000 	cmp	fp, r0
    73bc:	e0d7c00c 	sbcs	ip, r7, ip
    73c0:	3afffd81 	bcc	69cc <w2c_0x24coremark0x2Ewasm_calc_func+0x31c>
    73c4:	e59d0048 	ldr	r0, [sp, #72]	@ 0x48
    73c8:	e7940000 	ldr	r0, [r4, r0]
    73cc:	ebffe3ab 	bl	280 <w2c_0x24coremark0x2Ewasm_crcu32.isra.0>
    73d0:	e1a01000 	mov	r1, r0
    73d4:	e2950050 	adds	r0, r5, #80	@ 0x50
    73d8:	e2aac000 	adc	ip, sl, #0
    73dc:	e15b0000 	cmp	fp, r0
    73e0:	e0d7c00c 	sbcs	ip, r7, ip
    73e4:	3afffd78 	bcc	69cc <w2c_0x24coremark0x2Ewasm_calc_func+0x31c>
    73e8:	e5160004 	ldr	r0, [r6, #-4]
    73ec:	ebffe3a3 	bl	280 <w2c_0x24coremark0x2Ewasm_crcu32.isra.0>
    73f0:	e1a01000 	mov	r1, r0
    73f4:	e2950030 	adds	r0, r5, #48	@ 0x30
    73f8:	e2aaa000 	adc	sl, sl, #0
    73fc:	e15b0000 	cmp	fp, r0
    7400:	e0d7a00a 	sbcs	sl, r7, sl
    7404:	3afffd70 	bcc	69cc <w2c_0x24coremark0x2Ewasm_calc_func+0x31c>
    7408:	e5160024 	ldr	r0, [r6, #-36]	@ 0xffffffdc
    740c:	ebffe39b 	bl	280 <w2c_0x24coremark0x2Ewasm_crcu32.isra.0>
    7410:	e59d3000 	ldr	r3, [sp]
    7414:	e59f10c8 	ldr	r1, [pc, #200]	@ 74e4 <w2c_0x24coremark0x2Ewasm_calc_func+0xe34>
    7418:	e1a0a000 	mov	sl, r0
    741c:	e59d2040 	ldr	r2, [sp, #64]	@ 0x40
    7420:	e5832004 	str	r2, [r3, #4]
    7424:	e59d3008 	ldr	r3, [sp, #8]
    7428:	e79f1001 	ldr	r1, [pc, r1]
    742c:	e59d2028 	ldr	r2, [sp, #40]	@ 0x28
    7430:	e7930001 	ldr	r0, [r3, r1]
    7434:	e59f10ac 	ldr	r1, [pc, #172]	@ 74e8 <w2c_0x24coremark0x2Ewasm_calc_func+0xe38>
    7438:	e2400001 	sub	r0, r0, #1
    743c:	e79f1001 	ldr	r1, [pc, r1]
    7440:	e7830001 	str	r0, [r3, r1]
    7444:	e2920040 	adds	r0, r2, #64	@ 0x40
    7448:	e59d300c 	ldr	r3, [sp, #12]
    744c:	e2a31000 	adc	r1, r3, #0
    7450:	e15b0000 	cmp	fp, r0
    7454:	e0d71001 	sbcs	r1, r7, r1
    7458:	3afffd5b 	bcc	69cc <w2c_0x24coremark0x2Ewasm_calc_func+0x31c>
    745c:	e282103e 	add	r1, r2, #62	@ 0x3e
    7460:	e19400b1 	ldrh	r0, [r4, r1]
    7464:	e59d3020 	ldr	r3, [sp, #32]
    7468:	e3500000 	cmp	r0, #0
    746c:	0184a0b1 	strheq	sl, [r4, r1]
    7470:	059d1000 	ldreq	r1, [sp]
    7474:	05919030 	ldreq	r9, [r1, #48]	@ 0x30
    7478:	05918034 	ldreq	r8, [r1, #52]	@ 0x34
    747c:	eafffd58 	b	69e4 <w2c_0x24coremark0x2Ewasm_calc_func+0x334>
    7480:	e59f3064 	ldr	r3, [pc, #100]	@ 74ec <w2c_0x24coremark0x2Ewasm_calc_func+0xe3c>
    7484:	e59d2008 	ldr	r2, [sp, #8]
    7488:	e79f3003 	ldr	r3, [pc, r3]
    748c:	e7820003 	str	r0, [r2, r3]
    7490:	e3a0000a 	mov	r0, #10
    7494:	ebfffffe 	bl	0 <wasm_rt_trap>
    7498:	e59de044 	ldr	lr, [sp, #68]	@ 0x44
    749c:	e591b030 	ldr	fp, [r1, #48]	@ 0x30
    74a0:	e5917034 	ldr	r7, [r1, #52]	@ 0x34
    74a4:	eafffd35 	b	6980 <w2c_0x24coremark0x2Ewasm_calc_func+0x2d0>
    74a8:	00000ddc 	.word	0x00000ddc
    74ac:	00000dcc 	.word	0x00000dcc
    74b0:	00000d1c 	.word	0x00000d1c
    74b4:	00000c90 	.word	0x00000c90
    74b8:	00000b44 	.word	0x00000b44
    74bc:	00000a58 	.word	0x00000a58
    74c0:	000009ac 	.word	0x000009ac
    74c4:	0000060c 	.word	0x0000060c
    74c8:	000005ec 	.word	0x000005ec
    74cc:	000005d0 	.word	0x000005d0
    74d0:	000005b4 	.word	0x000005b4
    74d4:	0000058c 	.word	0x0000058c
    74d8:	0000058c 	.word	0x0000058c
    74dc:	00000558 	.word	0x00000558
    74e0:	0000054c 	.word	0x0000054c
    74e4:	000000b4 	.word	0x000000b4
    74e8:	000000a4 	.word	0x000000a4
    74ec:	0000005c 	.word	0x0000005c
    74f0:	fffff234 	.word	0xfffff234
    74f4:	e59d3040 	ldr	r3, [sp, #64]	@ 0x40
    74f8:	e1a0400e 	mov	r4, lr
    74fc:	e3a0e000 	mov	lr, #0
    7500:	e1a09002 	mov	r9, r2
    7504:	e59d602c 	ldr	r6, [sp, #44]	@ 0x2c
    7508:	e1a0700a 	mov	r7, sl
    750c:	e59d2000 	ldr	r2, [sp]
    7510:	e1a0500e 	mov	r5, lr
    7514:	e1a08003 	mov	r8, r3
    7518:	e58d4044 	str	r4, [sp, #68]	@ 0x44
    751c:	e59d3028 	ldr	r3, [sp, #40]	@ 0x28
    7520:	e3530002 	cmp	r3, #2
    7524:	e3a03000 	mov	r3, #0
    7528:	8a00013c 	bhi	7a20 <w2c_0x24coremark0x2Ewasm_calc_func+0x1370>
    752c:	e59d1034 	ldr	r1, [sp, #52]	@ 0x34
    7530:	e3510000 	cmp	r1, #0
    7534:	1a000197 	bne	7b98 <w2c_0x24coremark0x2Ewasm_calc_func+0x14e8>
    7538:	e59d3024 	ldr	r3, [sp, #36]	@ 0x24
    753c:	e2855001 	add	r5, r5, #1
    7540:	e59d103c 	ldr	r1, [sp, #60]	@ 0x3c
    7544:	e08ee003 	add	lr, lr, r3
    7548:	e1550003 	cmp	r5, r3
    754c:	e0877001 	add	r7, r7, r1
    7550:	e0866103 	add	r6, r6, r3, lsl #2
    7554:	1afffff0 	bne	751c <w2c_0x24coremark0x2Ewasm_calc_func+0xe6c>
    7558:	e59d1020 	ldr	r1, [sp, #32]
    755c:	e3a07000 	mov	r7, #0
    7560:	e59d0024 	ldr	r0, [sp, #36]	@ 0x24
    7564:	e1a05007 	mov	r5, r7
    7568:	e59d4044 	ldr	r4, [sp, #68]	@ 0x44
    756c:	e1a06007 	mov	r6, r7
    7570:	e3c0c001 	bic	ip, r0, #1
    7574:	e1e01a01 	mvn	r1, r1, lsl #20
    7578:	e2000001 	and	r0, r0, #1
    757c:	e58d0048 	str	r0, [sp, #72]	@ 0x48
    7580:	e59d002c 	ldr	r0, [sp, #44]	@ 0x2c
    7584:	e1e01a21 	mvn	r1, r1, lsr #20
    7588:	e58d0050 	str	r0, [sp, #80]	@ 0x50
    758c:	e1a0b000 	mov	fp, r0
    7590:	e59d0000 	ldr	r0, [sp]
    7594:	e58d405c 	str	r4, [sp, #92]	@ 0x5c
    7598:	e1a04001 	mov	r4, r1
    759c:	e2800010 	add	r0, r0, #16
    75a0:	e58d1040 	str	r1, [sp, #64]	@ 0x40
    75a4:	e58dc044 	str	ip, [sp, #68]	@ 0x44
    75a8:	e58d704c 	str	r7, [sp, #76]	@ 0x4c
    75ac:	e58d0054 	str	r0, [sp, #84]	@ 0x54
    75b0:	e58d8058 	str	r8, [sp, #88]	@ 0x58
    75b4:	e58da060 	str	sl, [sp, #96]	@ 0x60
    75b8:	e58d9064 	str	r9, [sp, #100]	@ 0x64
    75bc:	e59d3028 	ldr	r3, [sp, #40]	@ 0x28
    75c0:	e3530000 	cmp	r3, #0
    75c4:	059d2028 	ldreq	r2, [sp, #40]	@ 0x28
    75c8:	1a00019b 	bne	7c3c <w2c_0x24coremark0x2Ewasm_calc_func+0x158c>
    75cc:	e59d0054 	ldr	r0, [sp, #84]	@ 0x54
    75d0:	e08b2102 	add	r2, fp, r2, lsl #2
    75d4:	e3a03000 	mov	r3, #0
    75d8:	ebffe288 	bl	0 <i32_load_default32>
    75dc:	e0866000 	add	r6, r6, r0
    75e0:	e1560004 	cmp	r6, r4
    75e4:	c3a06000 	movgt	r6, #0
    75e8:	c3a0500a 	movgt	r5, #10
    75ec:	ca000002 	bgt	75fc <w2c_0x24coremark0x2Ewasm_calc_func+0xf4c>
    75f0:	e1500005 	cmp	r0, r5
    75f4:	d3a05000 	movle	r5, #0
    75f8:	c3a05001 	movgt	r5, #1
    75fc:	e59d304c 	ldr	r3, [sp, #76]	@ 0x4c
    7600:	e0833005 	add	r3, r3, r5
    7604:	e1a05000 	mov	r5, r0
    7608:	e58d304c 	str	r3, [sp, #76]	@ 0x4c
    760c:	e59d3024 	ldr	r3, [sp, #36]	@ 0x24
    7610:	e2877001 	add	r7, r7, #1
    7614:	e59d2050 	ldr	r2, [sp, #80]	@ 0x50
    7618:	e1570003 	cmp	r7, r3
    761c:	e08bb103 	add	fp, fp, r3, lsl #2
    7620:	e0822103 	add	r2, r2, r3, lsl #2
    7624:	e58d2050 	str	r2, [sp, #80]	@ 0x50
    7628:	1affffe3 	bne	75bc <w2c_0x24coremark0x2Ewasm_calc_func+0xf0c>
    762c:	e59d3058 	ldr	r3, [sp, #88]	@ 0x58
    7630:	e3a01000 	mov	r1, #0
    7634:	e59da060 	ldr	sl, [sp, #96]	@ 0x60
    7638:	e3a06000 	mov	r6, #0
    763c:	e59d2064 	ldr	r2, [sp, #100]	@ 0x64
    7640:	e1dd04fc 	ldrsh	r0, [sp, #76]	@ 0x4c
    7644:	e1a0700a 	mov	r7, sl
    7648:	e58d3054 	str	r3, [sp, #84]	@ 0x54
    764c:	e59d405c 	ldr	r4, [sp, #92]	@ 0x5c
    7650:	e58d2050 	str	r2, [sp, #80]	@ 0x50
    7654:	ebffe328 	bl	2fc <w2c_0x24coremark0x2Ewasm_crc16.isra.0>
    7658:	e59de050 	ldr	lr, [sp, #80]	@ 0x50
    765c:	e59d3054 	ldr	r3, [sp, #84]	@ 0x54
    7660:	e58d305c 	str	r3, [sp, #92]	@ 0x5c
    7664:	e58d0060 	str	r0, [sp, #96]	@ 0x60
    7668:	e59d3028 	ldr	r3, [sp, #40]	@ 0x28
    766c:	e3a00000 	mov	r0, #0
    7670:	e3530002 	cmp	r3, #2
    7674:	e59d3000 	ldr	r3, [sp]
    7678:	958d004c 	strls	r0, [sp, #76]	@ 0x4c
    767c:	e1c323d0 	ldrd	r2, [r3, #48]	@ 0x30
    7680:	8a0003a2 	bhi	8510 <w2c_0x24coremark0x2Ewasm_calc_func+0x1e60>
    7684:	e59d1034 	ldr	r1, [sp, #52]	@ 0x34
    7688:	e3510000 	cmp	r1, #0
    768c:	1a0001c8 	bne	7db4 <w2c_0x24coremark0x2Ewasm_calc_func+0x1704>
    7690:	e59d102c 	ldr	r1, [sp, #44]	@ 0x2c
    7694:	e081c106 	add	ip, r1, r6, lsl #2
    7698:	e29cb004 	adds	fp, ip, #4
    769c:	23a09001 	movcs	r9, #1
    76a0:	33a09000 	movcc	r9, #0
    76a4:	e152000b 	cmp	r2, fp
    76a8:	e0d39009 	sbcs	r9, r3, r9
    76ac:	3a0001bb 	bcc	7da0 <w2c_0x24coremark0x2Ewasm_calc_func+0x16f0>
    76b0:	e59d303c 	ldr	r3, [sp, #60]	@ 0x3c
    76b4:	e2866001 	add	r6, r6, #1
    76b8:	e0877003 	add	r7, r7, r3
    76bc:	e59d3024 	ldr	r3, [sp, #36]	@ 0x24
    76c0:	e1560003 	cmp	r6, r3
    76c4:	e59d3000 	ldr	r3, [sp]
    76c8:	e5933010 	ldr	r3, [r3, #16]
    76cc:	e783000c 	str	r0, [r3, ip]
    76d0:	1affffe4 	bne	7668 <w2c_0x24coremark0x2Ewasm_calc_func+0xfb8>
    76d4:	e59d002c 	ldr	r0, [sp, #44]	@ 0x2c
    76d8:	e3a07000 	mov	r7, #0
    76dc:	e58d0050 	str	r0, [sp, #80]	@ 0x50
    76e0:	e1a05007 	mov	r5, r7
    76e4:	e1a0b000 	mov	fp, r0
    76e8:	e59d0000 	ldr	r0, [sp]
    76ec:	e59d305c 	ldr	r3, [sp, #92]	@ 0x5c
    76f0:	e1a06007 	mov	r6, r7
    76f4:	e59d1060 	ldr	r1, [sp, #96]	@ 0x60
    76f8:	e2800010 	add	r0, r0, #16
    76fc:	e58d704c 	str	r7, [sp, #76]	@ 0x4c
    7700:	e58d0054 	str	r0, [sp, #84]	@ 0x54
    7704:	e58d3058 	str	r3, [sp, #88]	@ 0x58
    7708:	e58d405c 	str	r4, [sp, #92]	@ 0x5c
    770c:	e58de060 	str	lr, [sp, #96]	@ 0x60
    7710:	e58d1064 	str	r1, [sp, #100]	@ 0x64
    7714:	e59d3028 	ldr	r3, [sp, #40]	@ 0x28
    7718:	e3530000 	cmp	r3, #0
    771c:	059d2028 	ldreq	r2, [sp, #40]	@ 0x28
    7720:	1a000172 	bne	7cf0 <w2c_0x24coremark0x2Ewasm_calc_func+0x1640>
    7724:	e3a03000 	mov	r3, #0
    7728:	e59d0054 	ldr	r0, [sp, #84]	@ 0x54
    772c:	e08b2102 	add	r2, fp, r2, lsl #2
    7730:	ebffe232 	bl	0 <i32_load_default32>
    7734:	e59d3040 	ldr	r3, [sp, #64]	@ 0x40
    7738:	e0866000 	add	r6, r6, r0
    773c:	e1560003 	cmp	r6, r3
    7740:	c3a06000 	movgt	r6, #0
    7744:	c3a0500a 	movgt	r5, #10
    7748:	ca000002 	bgt	7758 <w2c_0x24coremark0x2Ewasm_calc_func+0x10a8>
    774c:	e1550000 	cmp	r5, r0
    7750:	a3a05000 	movge	r5, #0
    7754:	b3a05001 	movlt	r5, #1
    7758:	e59d304c 	ldr	r3, [sp, #76]	@ 0x4c
    775c:	e0833005 	add	r3, r3, r5
    7760:	e1a05000 	mov	r5, r0
    7764:	e58d304c 	str	r3, [sp, #76]	@ 0x4c
    7768:	e59d3024 	ldr	r3, [sp, #36]	@ 0x24
    776c:	e2877001 	add	r7, r7, #1
    7770:	e59d2050 	ldr	r2, [sp, #80]	@ 0x50
    7774:	e1570003 	cmp	r7, r3
    7778:	e08bb103 	add	fp, fp, r3, lsl #2
    777c:	e0822103 	add	r2, r2, r3, lsl #2
    7780:	e58d2050 	str	r2, [sp, #80]	@ 0x50
    7784:	1affffe2 	bne	7714 <w2c_0x24coremark0x2Ewasm_calc_func+0x1064>
    7788:	e59d3058 	ldr	r3, [sp, #88]	@ 0x58
    778c:	e1a0600a 	mov	r6, sl
    7790:	e59d2060 	ldr	r2, [sp, #96]	@ 0x60
    7794:	e1a0800a 	mov	r8, sl
    7798:	e59d1064 	ldr	r1, [sp, #100]	@ 0x64
    779c:	e1dd04fc 	ldrsh	r0, [sp, #76]	@ 0x4c
    77a0:	e58d3054 	str	r3, [sp, #84]	@ 0x54
    77a4:	e58d2050 	str	r2, [sp, #80]	@ 0x50
    77a8:	e59d405c 	ldr	r4, [sp, #92]	@ 0x5c
    77ac:	ebffe2d2 	bl	2fc <w2c_0x24coremark0x2Ewasm_crc16.isra.0>
    77b0:	e59d302c 	ldr	r3, [sp, #44]	@ 0x2c
    77b4:	e58d005c 	str	r0, [sp, #92]	@ 0x5c
    77b8:	e3a00000 	mov	r0, #0
    77bc:	e59d2050 	ldr	r2, [sp, #80]	@ 0x50
    77c0:	e1a0b000 	mov	fp, r0
    77c4:	e043308a 	sub	r3, r3, sl, lsl #1
    77c8:	e58da060 	str	sl, [sp, #96]	@ 0x60
    77cc:	e58d3058 	str	r3, [sp, #88]	@ 0x58
    77d0:	e59d3058 	ldr	r3, [sp, #88]	@ 0x58
    77d4:	e3a0a000 	mov	sl, #0
    77d8:	e59d9038 	ldr	r9, [sp, #56]	@ 0x38
    77dc:	e58d4064 	str	r4, [sp, #100]	@ 0x64
    77e0:	e0833086 	add	r3, r3, r6, lsl #1
    77e4:	e58d0068 	str	r0, [sp, #104]	@ 0x68
    77e8:	e58d3050 	str	r3, [sp, #80]	@ 0x50
    77ec:	e58d904c 	str	r9, [sp, #76]	@ 0x4c
    77f0:	e58d206c 	str	r2, [sp, #108]	@ 0x6c
    77f4:	e59d3028 	ldr	r3, [sp, #40]	@ 0x28
    77f8:	e3530000 	cmp	r3, #0
    77fc:	e59d3000 	ldr	r3, [sp]
    7800:	e593c030 	ldr	ip, [r3, #48]	@ 0x30
    7804:	e5930034 	ldr	r0, [r3, #52]	@ 0x34
    7808:	059d3028 	ldreq	r3, [sp, #40]	@ 0x28
    780c:	01a01003 	moveq	r1, r3
    7810:	1a0001aa 	bne	7ec0 <w2c_0x24coremark0x2Ewasm_calc_func+0x1810>
    7814:	e59d2024 	ldr	r2, [sp, #36]	@ 0x24
    7818:	e00e0293 	mul	lr, r3, r2
    781c:	e59d204c 	ldr	r2, [sp, #76]	@ 0x4c
    7820:	e082e08e 	add	lr, r2, lr, lsl #1
    7824:	e29e4002 	adds	r4, lr, #2
    7828:	e2ab2000 	adc	r2, fp, #0
    782c:	e15c0004 	cmp	ip, r4
    7830:	e0d02002 	sbcs	r2, r0, r2
    7834:	3afffc64 	bcc	69cc <w2c_0x24coremark0x2Ewasm_calc_func+0x31c>
    7838:	e59d2000 	ldr	r2, [sp]
    783c:	e5922010 	ldr	r2, [r2, #16]
    7840:	e192e0fe 	ldrsh	lr, [r2, lr]
    7844:	e0863083 	add	r3, r6, r3, lsl #1
    7848:	e2937002 	adds	r7, r3, #2
    784c:	e2ab4000 	adc	r4, fp, #0
    7850:	e15c0007 	cmp	ip, r7
    7854:	e0d04004 	sbcs	r4, r0, r4
    7858:	3afffc5b 	bcc	69cc <w2c_0x24coremark0x2Ewasm_calc_func+0x31c>
    785c:	e19230f3 	ldrsh	r3, [r2, r3]
    7860:	e0211e93 	mla	r1, r3, lr, r1
    7864:	e59d3050 	ldr	r3, [sp, #80]	@ 0x50
    7868:	e083310a 	add	r3, r3, sl, lsl #2
    786c:	e2934004 	adds	r4, r3, #4
    7870:	e2abe000 	adc	lr, fp, #0
    7874:	e15c0004 	cmp	ip, r4
    7878:	e0d0e00e 	sbcs	lr, r0, lr
    787c:	3a000147 	bcc	7da0 <w2c_0x24coremark0x2Ewasm_calc_func+0x16f0>
    7880:	e7821003 	str	r1, [r2, r3]
    7884:	e28aa001 	add	sl, sl, #1
    7888:	e59d304c 	ldr	r3, [sp, #76]	@ 0x4c
    788c:	e2833002 	add	r3, r3, #2
    7890:	e58d304c 	str	r3, [sp, #76]	@ 0x4c
    7894:	e59d3024 	ldr	r3, [sp, #36]	@ 0x24
    7898:	e15a0003 	cmp	sl, r3
    789c:	1affffd4 	bne	77f4 <w2c_0x24coremark0x2Ewasm_calc_func+0x1144>
    78a0:	e59d303c 	ldr	r3, [sp, #60]	@ 0x3c
    78a4:	e59d0068 	ldr	r0, [sp, #104]	@ 0x68
    78a8:	e0888003 	add	r8, r8, r3
    78ac:	e0866003 	add	r6, r6, r3
    78b0:	e59d3024 	ldr	r3, [sp, #36]	@ 0x24
    78b4:	e2800001 	add	r0, r0, #1
    78b8:	e59d4064 	ldr	r4, [sp, #100]	@ 0x64
    78bc:	e59d206c 	ldr	r2, [sp, #108]	@ 0x6c
    78c0:	e1500003 	cmp	r0, r3
    78c4:	1affffc1 	bne	77d0 <w2c_0x24coremark0x2Ewasm_calc_func+0x1120>
    78c8:	e59d0000 	ldr	r0, [sp]
    78cc:	e3a06000 	mov	r6, #0
    78d0:	e59d3054 	ldr	r3, [sp, #84]	@ 0x54
    78d4:	e1a07006 	mov	r7, r6
    78d8:	e59d102c 	ldr	r1, [sp, #44]	@ 0x2c
    78dc:	e280b010 	add	fp, r0, #16
    78e0:	e59da060 	ldr	sl, [sp, #96]	@ 0x60
    78e4:	e1a04006 	mov	r4, r6
    78e8:	e59d9040 	ldr	r9, [sp, #64]	@ 0x40
    78ec:	e58d1054 	str	r1, [sp, #84]	@ 0x54
    78f0:	e58d1050 	str	r1, [sp, #80]	@ 0x50
    78f4:	e58d604c 	str	r6, [sp, #76]	@ 0x4c
    78f8:	e58d3060 	str	r3, [sp, #96]	@ 0x60
    78fc:	e58d2068 	str	r2, [sp, #104]	@ 0x68
    7900:	ea00001a 	b	7970 <w2c_0x24coremark0x2Ewasm_calc_func+0x12c0>
    7904:	e59d3054 	ldr	r3, [sp, #84]	@ 0x54
    7908:	e1a0000b 	mov	r0, fp
    790c:	e0832105 	add	r2, r3, r5, lsl #2
    7910:	e3a03000 	mov	r3, #0
    7914:	ebffe1b9 	bl	0 <i32_load_default32>
    7918:	e0877000 	add	r7, r7, r0
    791c:	e1570009 	cmp	r7, r9
    7920:	c3a07000 	movgt	r7, #0
    7924:	c3a0400a 	movgt	r4, #10
    7928:	ca000002 	bgt	7938 <w2c_0x24coremark0x2Ewasm_calc_func+0x1288>
    792c:	e1540000 	cmp	r4, r0
    7930:	a3a04000 	movge	r4, #0
    7934:	b3a04001 	movlt	r4, #1
    7938:	e59d304c 	ldr	r3, [sp, #76]	@ 0x4c
    793c:	e0833004 	add	r3, r3, r4
    7940:	e1a04000 	mov	r4, r0
    7944:	e58d304c 	str	r3, [sp, #76]	@ 0x4c
    7948:	e59d3024 	ldr	r3, [sp, #36]	@ 0x24
    794c:	e2866001 	add	r6, r6, #1
    7950:	e59d2050 	ldr	r2, [sp, #80]	@ 0x50
    7954:	e1560003 	cmp	r6, r3
    7958:	e0822103 	add	r2, r2, r3, lsl #2
    795c:	e58d2050 	str	r2, [sp, #80]	@ 0x50
    7960:	e59d2054 	ldr	r2, [sp, #84]	@ 0x54
    7964:	e0822103 	add	r2, r2, r3, lsl #2
    7968:	e58d2054 	str	r2, [sp, #84]	@ 0x54
    796c:	0a000189 	beq	7f98 <w2c_0x24coremark0x2Ewasm_calc_func+0x18e8>
    7970:	e59d3028 	ldr	r3, [sp, #40]	@ 0x28
    7974:	e3530000 	cmp	r3, #0
    7978:	059d5028 	ldreq	r5, [sp, #40]	@ 0x28
    797c:	0affffe0 	beq	7904 <w2c_0x24coremark0x2Ewasm_calc_func+0x1254>
    7980:	e59d8050 	ldr	r8, [sp, #80]	@ 0x50
    7984:	e3a05000 	mov	r5, #0
    7988:	e58da06c 	str	sl, [sp, #108]	@ 0x6c
    798c:	e1a0a006 	mov	sl, r6
    7990:	e2882004 	add	r2, r8, #4
    7994:	e3a03000 	mov	r3, #0
    7998:	e1a0000b 	mov	r0, fp
    799c:	e1a06004 	mov	r6, r4
    79a0:	ebffe196 	bl	0 <i32_load_default32>
    79a4:	e1a02008 	mov	r2, r8
    79a8:	e1a04000 	mov	r4, r0
    79ac:	e3a03000 	mov	r3, #0
    79b0:	e1a0000b 	mov	r0, fp
    79b4:	ebffe191 	bl	0 <i32_load_default32>
    79b8:	e0802007 	add	r2, r0, r7
    79bc:	e1520009 	cmp	r2, r9
    79c0:	ca000335 	bgt	869c <w2c_0x24coremark0x2Ewasm_calc_func+0x1fec>
    79c4:	e0847002 	add	r7, r4, r2
    79c8:	e1570009 	cmp	r7, r9
    79cc:	c3a0300a 	movgt	r3, #10
    79d0:	c3a07000 	movgt	r7, #0
    79d4:	da000329 	ble	8680 <w2c_0x24coremark0x2Ewasm_calc_func+0x1fd0>
    79d8:	e1560000 	cmp	r6, r0
    79dc:	a3a00000 	movge	r0, #0
    79e0:	b3a00001 	movlt	r0, #1
    79e4:	e0800003 	add	r0, r0, r3
    79e8:	e59d304c 	ldr	r3, [sp, #76]	@ 0x4c
    79ec:	e2855002 	add	r5, r5, #2
    79f0:	e2888008 	add	r8, r8, #8
    79f4:	e0833000 	add	r3, r3, r0
    79f8:	e58d304c 	str	r3, [sp, #76]	@ 0x4c
    79fc:	e59d3044 	ldr	r3, [sp, #68]	@ 0x44
    7a00:	e1530005 	cmp	r3, r5
    7a04:	1affffe1 	bne	7990 <w2c_0x24coremark0x2Ewasm_calc_func+0x12e0>
    7a08:	e59d3048 	ldr	r3, [sp, #72]	@ 0x48
    7a0c:	e1a0600a 	mov	r6, sl
    7a10:	e59da06c 	ldr	sl, [sp, #108]	@ 0x6c
    7a14:	e3530000 	cmp	r3, #0
    7a18:	0affffca 	beq	7948 <w2c_0x24coremark0x2Ewasm_calc_func+0x1298>
    7a1c:	eaffffb8 	b	7904 <w2c_0x24coremark0x2Ewasm_calc_func+0x1254>
    7a20:	e1a00007 	mov	r0, r7
    7a24:	e1a01006 	mov	r1, r6
    7a28:	e1a0c003 	mov	ip, r3
    7a2c:	e58d8040 	str	r8, [sp, #64]	@ 0x40
    7a30:	e58de048 	str	lr, [sp, #72]	@ 0x48
    7a34:	e58d704c 	str	r7, [sp, #76]	@ 0x4c
    7a38:	e58d6050 	str	r6, [sp, #80]	@ 0x50
    7a3c:	e58d5054 	str	r5, [sp, #84]	@ 0x54
    7a40:	e5926030 	ldr	r6, [r2, #48]	@ 0x30
    7a44:	e2908002 	adds	r8, r0, #2
    7a48:	e5924034 	ldr	r4, [r2, #52]	@ 0x34
    7a4c:	e2ace000 	adc	lr, ip, #0
    7a50:	e1560008 	cmp	r6, r8
    7a54:	e0d4e00e 	sbcs	lr, r4, lr
    7a58:	3afffbdb 	bcc	69cc <w2c_0x24coremark0x2Ewasm_calc_func+0x31c>
    7a5c:	e5925010 	ldr	r5, [r2, #16]
    7a60:	e195e0f0 	ldrsh	lr, [r5, r0]
    7a64:	e291b004 	adds	fp, r1, #4
    7a68:	e2ac7000 	adc	r7, ip, #0
    7a6c:	e156000b 	cmp	r6, fp
    7a70:	e0d44007 	sbcs	r4, r4, r7
    7a74:	3afffbd4 	bcc	69cc <w2c_0x24coremark0x2Ewasm_calc_func+0x31c>
    7a78:	e59d4020 	ldr	r4, [sp, #32]
    7a7c:	e00e0e94 	mul	lr, r4, lr
    7a80:	e2984002 	adds	r4, r8, #2
    7a84:	e785e001 	str	lr, [r5, r1]
    7a88:	e2ace000 	adc	lr, ip, #0
    7a8c:	e5928030 	ldr	r8, [r2, #48]	@ 0x30
    7a90:	e5927034 	ldr	r7, [r2, #52]	@ 0x34
    7a94:	e1580004 	cmp	r8, r4
    7a98:	e0d7e00e 	sbcs	lr, r7, lr
    7a9c:	3afffbca 	bcc	69cc <w2c_0x24coremark0x2Ewasm_calc_func+0x31c>
    7aa0:	e5924010 	ldr	r4, [r2, #16]
    7aa4:	e084e000 	add	lr, r4, r0
    7aa8:	e1de50f2 	ldrsh	r5, [lr, #2]
    7aac:	e29be004 	adds	lr, fp, #4
    7ab0:	e2ac6000 	adc	r6, ip, #0
    7ab4:	e158000e 	cmp	r8, lr
    7ab8:	e0d76006 	sbcs	r6, r7, r6
    7abc:	3afffbc2 	bcc	69cc <w2c_0x24coremark0x2Ewasm_calc_func+0x31c>
    7ac0:	e59de020 	ldr	lr, [sp, #32]
    7ac4:	e0844001 	add	r4, r4, r1
    7ac8:	e005059e 	mul	r5, lr, r5
    7acc:	e280e004 	add	lr, r0, #4
    7ad0:	e5845004 	str	r5, [r4, #4]
    7ad4:	e29e5002 	adds	r5, lr, #2
    7ad8:	e2ac4000 	adc	r4, ip, #0
    7adc:	e5928030 	ldr	r8, [r2, #48]	@ 0x30
    7ae0:	e5927034 	ldr	r7, [r2, #52]	@ 0x34
    7ae4:	e1580005 	cmp	r8, r5
    7ae8:	e0d74004 	sbcs	r4, r7, r4
    7aec:	3afffbb6 	bcc	69cc <w2c_0x24coremark0x2Ewasm_calc_func+0x31c>
    7af0:	e5925010 	ldr	r5, [r2, #16]
    7af4:	e19540fe 	ldrsh	r4, [r5, lr]
    7af8:	e281e008 	add	lr, r1, #8
    7afc:	e29eb004 	adds	fp, lr, #4
    7b00:	e2ac6000 	adc	r6, ip, #0
    7b04:	e158000b 	cmp	r8, fp
    7b08:	e0d76006 	sbcs	r6, r7, r6
    7b0c:	3afffbae 	bcc	69cc <w2c_0x24coremark0x2Ewasm_calc_func+0x31c>
    7b10:	e59d6020 	ldr	r6, [sp, #32]
    7b14:	e0040496 	mul	r4, r6, r4
    7b18:	e785400e 	str	r4, [r5, lr]
    7b1c:	e280e006 	add	lr, r0, #6
    7b20:	e29e5002 	adds	r5, lr, #2
    7b24:	e5928030 	ldr	r8, [r2, #48]	@ 0x30
    7b28:	e2ac4000 	adc	r4, ip, #0
    7b2c:	e5927034 	ldr	r7, [r2, #52]	@ 0x34
    7b30:	e1580005 	cmp	r8, r5
    7b34:	e0d74004 	sbcs	r4, r7, r4
    7b38:	3afffba3 	bcc	69cc <w2c_0x24coremark0x2Ewasm_calc_func+0x31c>
    7b3c:	e5925010 	ldr	r5, [r2, #16]
    7b40:	e19540fe 	ldrsh	r4, [r5, lr]
    7b44:	e281e00c 	add	lr, r1, #12
    7b48:	e29eb004 	adds	fp, lr, #4
    7b4c:	e2ac6000 	adc	r6, ip, #0
    7b50:	e158000b 	cmp	r8, fp
    7b54:	e0d76006 	sbcs	r6, r7, r6
    7b58:	3afffb9b 	bcc	69cc <w2c_0x24coremark0x2Ewasm_calc_func+0x31c>
    7b5c:	e59d6020 	ldr	r6, [sp, #32]
    7b60:	e2833004 	add	r3, r3, #4
    7b64:	e2800008 	add	r0, r0, #8
    7b68:	e2811010 	add	r1, r1, #16
    7b6c:	e0040496 	mul	r4, r6, r4
    7b70:	e785400e 	str	r4, [r5, lr]
    7b74:	e59de030 	ldr	lr, [sp, #48]	@ 0x30
    7b78:	e15e0003 	cmp	lr, r3
    7b7c:	1affffaf 	bne	7a40 <w2c_0x24coremark0x2Ewasm_calc_func+0x1390>
    7b80:	e59d8040 	ldr	r8, [sp, #64]	@ 0x40
    7b84:	e59de048 	ldr	lr, [sp, #72]	@ 0x48
    7b88:	e59d704c 	ldr	r7, [sp, #76]	@ 0x4c
    7b8c:	e59d6050 	ldr	r6, [sp, #80]	@ 0x50
    7b90:	e59d5054 	ldr	r5, [sp, #84]	@ 0x54
    7b94:	eafffe64 	b	752c <w2c_0x24coremark0x2Ewasm_calc_func+0xe7c>
    7b98:	e59d002c 	ldr	r0, [sp, #44]	@ 0x2c
    7b9c:	e08e3003 	add	r3, lr, r3
    7ba0:	e1a0b008 	mov	fp, r8
    7ba4:	e58de048 	str	lr, [sp, #72]	@ 0x48
    7ba8:	e08a1083 	add	r1, sl, r3, lsl #1
    7bac:	e58d504c 	str	r5, [sp, #76]	@ 0x4c
    7bb0:	e0803103 	add	r3, r0, r3, lsl #2
    7bb4:	e59d0034 	ldr	r0, [sp, #52]	@ 0x34
    7bb8:	e0810080 	add	r0, r1, r0, lsl #1
    7bbc:	e58d0040 	str	r0, [sp, #64]	@ 0x40
    7bc0:	e5928030 	ldr	r8, [r2, #48]	@ 0x30
    7bc4:	e291e002 	adds	lr, r1, #2
    7bc8:	e5920034 	ldr	r0, [r2, #52]	@ 0x34
    7bcc:	23a0c001 	movcs	ip, #1
    7bd0:	33a0c000 	movcc	ip, #0
    7bd4:	e158000e 	cmp	r8, lr
    7bd8:	e0d0c00c 	sbcs	ip, r0, ip
    7bdc:	3afffb7a 	bcc	69cc <w2c_0x24coremark0x2Ewasm_calc_func+0x31c>
    7be0:	e5924010 	ldr	r4, [r2, #16]
    7be4:	e19410f1 	ldrsh	r1, [r4, r1]
    7be8:	e293c004 	adds	ip, r3, #4
    7bec:	23a05001 	movcs	r5, #1
    7bf0:	33a05000 	movcc	r5, #0
    7bf4:	e158000c 	cmp	r8, ip
    7bf8:	e0d00005 	sbcs	r0, r0, r5
    7bfc:	3afffb72 	bcc	69cc <w2c_0x24coremark0x2Ewasm_calc_func+0x31c>
    7c00:	e59d0020 	ldr	r0, [sp, #32]
    7c04:	e0010190 	mul	r1, r0, r1
    7c08:	e59d0040 	ldr	r0, [sp, #64]	@ 0x40
    7c0c:	e7841003 	str	r1, [r4, r3]
    7c10:	e1a0100e 	mov	r1, lr
    7c14:	e1a0300c 	mov	r3, ip
    7c18:	e15e0000 	cmp	lr, r0
    7c1c:	1affffe7 	bne	7bc0 <w2c_0x24coremark0x2Ewasm_calc_func+0x1510>
    7c20:	e59de048 	ldr	lr, [sp, #72]	@ 0x48
    7c24:	e1a0800b 	mov	r8, fp
    7c28:	e59d504c 	ldr	r5, [sp, #76]	@ 0x4c
    7c2c:	eafffe41 	b	7538 <w2c_0x24coremark0x2Ewasm_calc_func+0xe88>
    7c30:	e59d3040 	ldr	r3, [sp, #64]	@ 0x40
    7c34:	e59d4044 	ldr	r4, [sp, #68]	@ 0x44
    7c38:	eafffe2f 	b	74fc <w2c_0x24coremark0x2Ewasm_calc_func+0xe4c>
    7c3c:	e59d3000 	ldr	r3, [sp]
    7c40:	e3a02000 	mov	r2, #0
    7c44:	e59d0050 	ldr	r0, [sp, #80]	@ 0x50
    7c48:	e1a01005 	mov	r1, r5
    7c4c:	e1a08002 	mov	r8, r2
    7c50:	e593a030 	ldr	sl, [r3, #48]	@ 0x30
    7c54:	e5939034 	ldr	r9, [r3, #52]	@ 0x34
    7c58:	e2803004 	add	r3, r0, #4
    7c5c:	e293e004 	adds	lr, r3, #4
    7c60:	e2a8c000 	adc	ip, r8, #0
    7c64:	e15a000e 	cmp	sl, lr
    7c68:	e0d9c00c 	sbcs	ip, r9, ip
    7c6c:	3afffb56 	bcc	69cc <w2c_0x24coremark0x2Ewasm_calc_func+0x31c>
    7c70:	e59dc000 	ldr	ip, [sp]
    7c74:	e59cc010 	ldr	ip, [ip, #16]
    7c78:	e79c5003 	ldr	r5, [ip, r3]
    7c7c:	e290e004 	adds	lr, r0, #4
    7c80:	e2a8e000 	adc	lr, r8, #0
    7c84:	e15a0003 	cmp	sl, r3
    7c88:	e0d9e00e 	sbcs	lr, r9, lr
    7c8c:	3afffb4e 	bcc	69cc <w2c_0x24coremark0x2Ewasm_calc_func+0x31c>
    7c90:	e79c3000 	ldr	r3, [ip, r0]
    7c94:	e086e003 	add	lr, r6, r3
    7c98:	e15e0004 	cmp	lr, r4
    7c9c:	da00006c 	ble	7e54 <w2c_0x24coremark0x2Ewasm_calc_func+0x17a4>
    7ca0:	e1540005 	cmp	r4, r5
    7ca4:	a1a06005 	movge	r6, r5
    7ca8:	aa000062 	bge	7e38 <w2c_0x24coremark0x2Ewasm_calc_func+0x1788>
    7cac:	e3a0c00a 	mov	ip, #10
    7cb0:	e3a06000 	mov	r6, #0
    7cb4:	e1a0300c 	mov	r3, ip
    7cb8:	e59d104c 	ldr	r1, [sp, #76]	@ 0x4c
    7cbc:	e083300c 	add	r3, r3, ip
    7cc0:	e2822002 	add	r2, r2, #2
    7cc4:	e2800008 	add	r0, r0, #8
    7cc8:	e0813003 	add	r3, r1, r3
    7ccc:	e58d304c 	str	r3, [sp, #76]	@ 0x4c
    7cd0:	e59d3044 	ldr	r3, [sp, #68]	@ 0x44
    7cd4:	e1530002 	cmp	r3, r2
    7cd8:	11a01005 	movne	r1, r5
    7cdc:	1affffdd 	bne	7c58 <w2c_0x24coremark0x2Ewasm_calc_func+0x15a8>
    7ce0:	e59d3048 	ldr	r3, [sp, #72]	@ 0x48
    7ce4:	e3530000 	cmp	r3, #0
    7ce8:	0afffe47 	beq	760c <w2c_0x24coremark0x2Ewasm_calc_func+0xf5c>
    7cec:	eafffe36 	b	75cc <w2c_0x24coremark0x2Ewasm_calc_func+0xf1c>
    7cf0:	e59d3000 	ldr	r3, [sp]
    7cf4:	e1a09005 	mov	r9, r5
    7cf8:	e59d0050 	ldr	r0, [sp, #80]	@ 0x50
    7cfc:	e3a02000 	mov	r2, #0
    7d00:	e5938030 	ldr	r8, [r3, #48]	@ 0x30
    7d04:	e5934034 	ldr	r4, [r3, #52]	@ 0x34
    7d08:	e2803004 	add	r3, r0, #4
    7d0c:	e3a01000 	mov	r1, #0
    7d10:	e293e004 	adds	lr, r3, #4
    7d14:	e2a1c000 	adc	ip, r1, #0
    7d18:	e158000e 	cmp	r8, lr
    7d1c:	e0d4c00c 	sbcs	ip, r4, ip
    7d20:	3afffb29 	bcc	69cc <w2c_0x24coremark0x2Ewasm_calc_func+0x31c>
    7d24:	e59dc000 	ldr	ip, [sp]
    7d28:	e59cc010 	ldr	ip, [ip, #16]
    7d2c:	e79c5003 	ldr	r5, [ip, r3]
    7d30:	e290e004 	adds	lr, r0, #4
    7d34:	e2a1e000 	adc	lr, r1, #0
    7d38:	e1580003 	cmp	r8, r3
    7d3c:	e0d4e00e 	sbcs	lr, r4, lr
    7d40:	3afffb21 	bcc	69cc <w2c_0x24coremark0x2Ewasm_calc_func+0x31c>
    7d44:	e79c3000 	ldr	r3, [ip, r0]
    7d48:	e59dc040 	ldr	ip, [sp, #64]	@ 0x40
    7d4c:	e086e003 	add	lr, r6, r3
    7d50:	e15e000c 	cmp	lr, ip
    7d54:	da000052 	ble	7ea4 <w2c_0x24coremark0x2Ewasm_calc_func+0x17f4>
    7d58:	e59d1040 	ldr	r1, [sp, #64]	@ 0x40
    7d5c:	e1510005 	cmp	r1, r5
    7d60:	a1a06005 	movge	r6, r5
    7d64:	aa000043 	bge	7e78 <w2c_0x24coremark0x2Ewasm_calc_func+0x17c8>
    7d68:	e3a0c00a 	mov	ip, #10
    7d6c:	e3a06000 	mov	r6, #0
    7d70:	e1a0300c 	mov	r3, ip
    7d74:	e59d104c 	ldr	r1, [sp, #76]	@ 0x4c
    7d78:	e083300c 	add	r3, r3, ip
    7d7c:	e2822002 	add	r2, r2, #2
    7d80:	e2800008 	add	r0, r0, #8
    7d84:	e0813003 	add	r3, r1, r3
    7d88:	e58d304c 	str	r3, [sp, #76]	@ 0x4c
    7d8c:	e59d3044 	ldr	r3, [sp, #68]	@ 0x44
    7d90:	e1530002 	cmp	r3, r2
    7d94:	0a000002 	beq	7da4 <w2c_0x24coremark0x2Ewasm_calc_func+0x16f4>
    7d98:	e1a09005 	mov	r9, r5
    7d9c:	eaffffd9 	b	7d08 <w2c_0x24coremark0x2Ewasm_calc_func+0x1658>
    7da0:	ebffe0cb 	bl	d4 <f64_store_default32.part.0>
    7da4:	e59d3048 	ldr	r3, [sp, #72]	@ 0x48
    7da8:	e3530000 	cmp	r3, #0
    7dac:	0afffe6d 	beq	7768 <w2c_0x24coremark0x2Ewasm_calc_func+0x10b8>
    7db0:	eafffe5b 	b	7724 <w2c_0x24coremark0x2Ewasm_calc_func+0x1074>
    7db4:	e1a0c081 	lsl	ip, r1, #1
    7db8:	e59d104c 	ldr	r1, [sp, #76]	@ 0x4c
    7dbc:	e1a0b004 	mov	fp, r4
    7dc0:	e58de050 	str	lr, [sp, #80]	@ 0x50
    7dc4:	e08cc081 	add	ip, ip, r1, lsl #1
    7dc8:	e58dc04c 	str	ip, [sp, #76]	@ 0x4c
    7dcc:	e1a0c081 	lsl	ip, r1, #1
    7dd0:	e3a01000 	mov	r1, #0
    7dd4:	e59d4038 	ldr	r4, [sp, #56]	@ 0x38
    7dd8:	e08c4004 	add	r4, ip, r4
    7ddc:	e2948002 	adds	r8, r4, #2
    7de0:	e2a15000 	adc	r5, r1, #0
    7de4:	e1520008 	cmp	r2, r8
    7de8:	e0d35005 	sbcs	r5, r3, r5
    7dec:	3afffaf6 	bcc	69cc <w2c_0x24coremark0x2Ewasm_calc_func+0x31c>
    7df0:	e59d5000 	ldr	r5, [sp]
    7df4:	e5958010 	ldr	r8, [r5, #16]
    7df8:	e19850f4 	ldrsh	r5, [r8, r4]
    7dfc:	e087400c 	add	r4, r7, ip
    7e00:	e2949002 	adds	r9, r4, #2
    7e04:	e2a1e000 	adc	lr, r1, #0
    7e08:	e1520009 	cmp	r2, r9
    7e0c:	e0d3900e 	sbcs	r9, r3, lr
    7e10:	3afffaed 	bcc	69cc <w2c_0x24coremark0x2Ewasm_calc_func+0x31c>
    7e14:	e19840f4 	ldrsh	r4, [r8, r4]
    7e18:	e0200594 	mla	r0, r4, r5, r0
    7e1c:	e59d404c 	ldr	r4, [sp, #76]	@ 0x4c
    7e20:	e28cc002 	add	ip, ip, #2
    7e24:	e15c0004 	cmp	ip, r4
    7e28:	1affffe9 	bne	7dd4 <w2c_0x24coremark0x2Ewasm_calc_func+0x1724>
    7e2c:	e59de050 	ldr	lr, [sp, #80]	@ 0x50
    7e30:	e1a0400b 	mov	r4, fp
    7e34:	eafffe15 	b	7690 <w2c_0x24coremark0x2Ewasm_calc_func+0xfe0>
    7e38:	e1550003 	cmp	r5, r3
    7e3c:	d3a0c000 	movle	ip, #0
    7e40:	c3a0c001 	movgt	ip, #1
    7e44:	e15e0004 	cmp	lr, r4
    7e48:	da000006 	ble	7e68 <w2c_0x24coremark0x2Ewasm_calc_func+0x17b8>
    7e4c:	e3a0300a 	mov	r3, #10
    7e50:	eaffff98 	b	7cb8 <w2c_0x24coremark0x2Ewasm_calc_func+0x1608>
    7e54:	e08e6005 	add	r6, lr, r5
    7e58:	e1540006 	cmp	r4, r6
    7e5c:	aafffff5 	bge	7e38 <w2c_0x24coremark0x2Ewasm_calc_func+0x1788>
    7e60:	e3a0c00a 	mov	ip, #10
    7e64:	e3a06000 	mov	r6, #0
    7e68:	e1510003 	cmp	r1, r3
    7e6c:	a3a03000 	movge	r3, #0
    7e70:	b3a03001 	movlt	r3, #1
    7e74:	eaffff8f 	b	7cb8 <w2c_0x24coremark0x2Ewasm_calc_func+0x1608>
    7e78:	e59d1040 	ldr	r1, [sp, #64]	@ 0x40
    7e7c:	e1550003 	cmp	r5, r3
    7e80:	d3a0c000 	movle	ip, #0
    7e84:	c3a0c001 	movgt	ip, #1
    7e88:	e15e0001 	cmp	lr, r1
    7e8c:	c3a0300a 	movgt	r3, #10
    7e90:	caffffb7 	bgt	7d74 <w2c_0x24coremark0x2Ewasm_calc_func+0x16c4>
    7e94:	e1590003 	cmp	r9, r3
    7e98:	a3a03000 	movge	r3, #0
    7e9c:	b3a03001 	movlt	r3, #1
    7ea0:	eaffffb3 	b	7d74 <w2c_0x24coremark0x2Ewasm_calc_func+0x16c4>
    7ea4:	e59d1040 	ldr	r1, [sp, #64]	@ 0x40
    7ea8:	e08e6005 	add	r6, lr, r5
    7eac:	e1510006 	cmp	r1, r6
    7eb0:	aafffff0 	bge	7e78 <w2c_0x24coremark0x2Ewasm_calc_func+0x17c8>
    7eb4:	e3a0c00a 	mov	ip, #10
    7eb8:	e3a06000 	mov	r6, #0
    7ebc:	eafffff4 	b	7e94 <w2c_0x24coremark0x2Ewasm_calc_func+0x17e4>
    7ec0:	e3a01000 	mov	r1, #0
    7ec4:	e59de04c 	ldr	lr, [sp, #76]	@ 0x4c
    7ec8:	e1a07008 	mov	r7, r8
    7ecc:	e1a03001 	mov	r3, r1
    7ed0:	e58da070 	str	sl, [sp, #112]	@ 0x70
    7ed4:	e58d6074 	str	r6, [sp, #116]	@ 0x74
    7ed8:	e59d203c 	ldr	r2, [sp, #60]	@ 0x3c
    7edc:	e3a06000 	mov	r6, #0
    7ee0:	e082400e 	add	r4, r2, lr
    7ee4:	e2949002 	adds	r9, r4, #2
    7ee8:	e2a62000 	adc	r2, r6, #0
    7eec:	e15c0009 	cmp	ip, r9
    7ef0:	e0d02002 	sbcs	r2, r0, r2
    7ef4:	3afffab4 	bcc	69cc <w2c_0x24coremark0x2Ewasm_calc_func+0x31c>
    7ef8:	e59d2000 	ldr	r2, [sp]
    7efc:	e5922010 	ldr	r2, [r2, #16]
    7f00:	e19250f4 	ldrsh	r5, [r2, r4]
    7f04:	e2879002 	add	r9, r7, #2
    7f08:	e299a002 	adds	sl, r9, #2
    7f0c:	e2a64000 	adc	r4, r6, #0
    7f10:	e15c000a 	cmp	ip, sl
    7f14:	e0d04004 	sbcs	r4, r0, r4
    7f18:	3afffaab 	bcc	69cc <w2c_0x24coremark0x2Ewasm_calc_func+0x31c>
    7f1c:	e19260f9 	ldrsh	r6, [r2, r9]
    7f20:	e29ea002 	adds	sl, lr, #2
    7f24:	23a04001 	movcs	r4, #1
    7f28:	33a04000 	movcc	r4, #0
    7f2c:	e15c000a 	cmp	ip, sl
    7f30:	e0d04004 	sbcs	r4, r0, r4
    7f34:	3afffaa4 	bcc	69cc <w2c_0x24coremark0x2Ewasm_calc_func+0x31c>
    7f38:	e19240fe 	ldrsh	r4, [r2, lr]
    7f3c:	e297a002 	adds	sl, r7, #2
    7f40:	23a0a001 	movcs	sl, #1
    7f44:	33a0a000 	movcc	sl, #0
    7f48:	e15c0009 	cmp	ip, r9
    7f4c:	e0d0a00a 	sbcs	sl, r0, sl
    7f50:	3afffa9d 	bcc	69cc <w2c_0x24coremark0x2Ewasm_calc_func+0x31c>
    7f54:	e19290f7 	ldrsh	r9, [r2, r7]
    7f58:	e0040499 	mul	r4, r9, r4
    7f5c:	e2833002 	add	r3, r3, #2
    7f60:	e0244596 	mla	r4, r6, r5, r4
    7f64:	e2877004 	add	r7, r7, #4
    7f68:	e0811004 	add	r1, r1, r4
    7f6c:	e59d4024 	ldr	r4, [sp, #36]	@ 0x24
    7f70:	e08ee104 	add	lr, lr, r4, lsl #2
    7f74:	e59d4044 	ldr	r4, [sp, #68]	@ 0x44
    7f78:	e1540003 	cmp	r4, r3
    7f7c:	1affffd5 	bne	7ed8 <w2c_0x24coremark0x2Ewasm_calc_func+0x1828>
    7f80:	e59de048 	ldr	lr, [sp, #72]	@ 0x48
    7f84:	e59da070 	ldr	sl, [sp, #112]	@ 0x70
    7f88:	e59d6074 	ldr	r6, [sp, #116]	@ 0x74
    7f8c:	e35e0000 	cmp	lr, #0
    7f90:	0afffe33 	beq	7864 <w2c_0x24coremark0x2Ewasm_calc_func+0x11b4>
    7f94:	eafffe1e 	b	7814 <w2c_0x24coremark0x2Ewasm_calc_func+0x1164>
    7f98:	e59d3060 	ldr	r3, [sp, #96]	@ 0x60
    7f9c:	e3a07000 	mov	r7, #0
    7fa0:	e59d2068 	ldr	r2, [sp, #104]	@ 0x68
    7fa4:	e1a0900a 	mov	r9, sl
    7fa8:	e59d105c 	ldr	r1, [sp, #92]	@ 0x5c
    7fac:	e1dd04fc 	ldrsh	r0, [sp, #76]	@ 0x4c
    7fb0:	e59d4064 	ldr	r4, [sp, #100]	@ 0x64
    7fb4:	e58d3054 	str	r3, [sp, #84]	@ 0x54
    7fb8:	e58d2050 	str	r2, [sp, #80]	@ 0x50
    7fbc:	ebffe0ce 	bl	2fc <w2c_0x24coremark0x2Ewasm_crc16.isra.0>
    7fc0:	e59d2050 	ldr	r2, [sp, #80]	@ 0x50
    7fc4:	e59d3054 	ldr	r3, [sp, #84]	@ 0x54
    7fc8:	e58d0060 	str	r0, [sp, #96]	@ 0x60
    7fcc:	e58d3064 	str	r3, [sp, #100]	@ 0x64
    7fd0:	e58d4068 	str	r4, [sp, #104]	@ 0x68
    7fd4:	e58da04c 	str	sl, [sp, #76]	@ 0x4c
    7fd8:	e59d3058 	ldr	r3, [sp, #88]	@ 0x58
    7fdc:	e3a06000 	mov	r6, #0
    7fe0:	e59d8038 	ldr	r8, [sp, #56]	@ 0x38
    7fe4:	e59d4000 	ldr	r4, [sp]
    7fe8:	e0833089 	add	r3, r3, r9, lsl #1
    7fec:	e58d9050 	str	r9, [sp, #80]	@ 0x50
    7ff0:	e58d3054 	str	r3, [sp, #84]	@ 0x54
    7ff4:	e58d706c 	str	r7, [sp, #108]	@ 0x6c
    7ff8:	e58da070 	str	sl, [sp, #112]	@ 0x70
    7ffc:	e58d2074 	str	r2, [sp, #116]	@ 0x74
    8000:	ea000020 	b	8088 <w2c_0x24coremark0x2Ewasm_calc_func+0x19d8>
    8004:	e59d3024 	ldr	r3, [sp, #36]	@ 0x24
    8008:	e1a0000b 	mov	r0, fp
    800c:	e0020793 	mul	r2, r3, r7
    8010:	e3a03000 	mov	r3, #0
    8014:	e0882082 	add	r2, r8, r2, lsl #1
    8018:	ebffe005 	bl	34 <i32_load16_u_default32>
    801c:	e59d3050 	ldr	r3, [sp, #80]	@ 0x50
    8020:	e1a09000 	mov	r9, r0
    8024:	e1a0000b 	mov	r0, fp
    8028:	e0832087 	add	r2, r3, r7, lsl #1
    802c:	e3a03000 	mov	r3, #0
    8030:	ebffdfff 	bl	34 <i32_load16_u_default32>
    8034:	e0090990 	mul	r9, r0, r9
    8038:	e7e33159 	ubfx	r3, r9, #2, #4
    803c:	e7e692d9 	ubfx	r9, r9, #5, #7
    8040:	e0255993 	mla	r5, r3, r9, r5
    8044:	e59d3054 	ldr	r3, [sp, #84]	@ 0x54
    8048:	e594c030 	ldr	ip, [r4, #48]	@ 0x30
    804c:	e5942034 	ldr	r2, [r4, #52]	@ 0x34
    8050:	e0833106 	add	r3, r3, r6, lsl #2
    8054:	e2930004 	adds	r0, r3, #4
    8058:	23a01001 	movcs	r1, #1
    805c:	33a01000 	movcc	r1, #0
    8060:	e15c0000 	cmp	ip, r0
    8064:	e0d22001 	sbcs	r2, r2, r1
    8068:	3affff4c 	bcc	7da0 <w2c_0x24coremark0x2Ewasm_calc_func+0x16f0>
    806c:	e59d2024 	ldr	r2, [sp, #36]	@ 0x24
    8070:	e2866001 	add	r6, r6, #1
    8074:	e2888002 	add	r8, r8, #2
    8078:	e1560002 	cmp	r6, r2
    807c:	e5942010 	ldr	r2, [r4, #16]
    8080:	e7825003 	str	r5, [r2, r3]
    8084:	0a000033 	beq	8158 <w2c_0x24coremark0x2Ewasm_calc_func+0x1aa8>
    8088:	e59d3028 	ldr	r3, [sp, #40]	@ 0x28
    808c:	e3530000 	cmp	r3, #0
    8090:	059d7028 	ldreq	r7, [sp, #40]	@ 0x28
    8094:	01a05007 	moveq	r5, r7
    8098:	0affffd9 	beq	8004 <w2c_0x24coremark0x2Ewasm_calc_func+0x1954>
    809c:	e3a05000 	mov	r5, #0
    80a0:	e59d904c 	ldr	r9, [sp, #76]	@ 0x4c
    80a4:	e1a0a008 	mov	sl, r8
    80a8:	e1a07005 	mov	r7, r5
    80ac:	e58d6078 	str	r6, [sp, #120]	@ 0x78
    80b0:	e59d303c 	ldr	r3, [sp, #60]	@ 0x3c
    80b4:	e1a0000b 	mov	r0, fp
    80b8:	e2877002 	add	r7, r7, #2
    80bc:	e083200a 	add	r2, r3, sl
    80c0:	e3a03000 	mov	r3, #0
    80c4:	ebffdfda 	bl	34 <i32_load16_u_default32>
    80c8:	e1a06000 	mov	r6, r0
    80cc:	e2892002 	add	r2, r9, #2
    80d0:	e3a03000 	mov	r3, #0
    80d4:	e1a0000b 	mov	r0, fp
    80d8:	ebffdfd5 	bl	34 <i32_load16_u_default32>
    80dc:	e0060690 	mul	r6, r0, r6
    80e0:	e1a0200a 	mov	r2, sl
    80e4:	e3a03000 	mov	r3, #0
    80e8:	e1a0000b 	mov	r0, fp
    80ec:	e7e3c156 	ubfx	ip, r6, #2, #4
    80f0:	e7e662d6 	ubfx	r6, r6, #5, #7
    80f4:	e001069c 	mul	r1, ip, r6
    80f8:	e58d105c 	str	r1, [sp, #92]	@ 0x5c
    80fc:	ebffdfcc 	bl	34 <i32_load16_u_default32>
    8100:	e1a02009 	mov	r2, r9
    8104:	e1a06000 	mov	r6, r0
    8108:	e3a03000 	mov	r3, #0
    810c:	e1a0000b 	mov	r0, fp
    8110:	ebffdfc7 	bl	34 <i32_load16_u_default32>
    8114:	e59d3024 	ldr	r3, [sp, #36]	@ 0x24
    8118:	e0060690 	mul	r6, r0, r6
    811c:	e59d105c 	ldr	r1, [sp, #92]	@ 0x5c
    8120:	e2899004 	add	r9, r9, #4
    8124:	e08aa103 	add	sl, sl, r3, lsl #2
    8128:	e59d3044 	ldr	r3, [sp, #68]	@ 0x44
    812c:	e1530007 	cmp	r3, r7
    8130:	e7e33156 	ubfx	r3, r6, #2, #4
    8134:	e7e662d6 	ubfx	r6, r6, #5, #7
    8138:	e0231693 	mla	r3, r3, r6, r1
    813c:	e0855003 	add	r5, r5, r3
    8140:	1affffda 	bne	80b0 <w2c_0x24coremark0x2Ewasm_calc_func+0x1a00>
    8144:	e59d3048 	ldr	r3, [sp, #72]	@ 0x48
    8148:	e59d6078 	ldr	r6, [sp, #120]	@ 0x78
    814c:	e3530000 	cmp	r3, #0
    8150:	0affffbb 	beq	8044 <w2c_0x24coremark0x2Ewasm_calc_func+0x1994>
    8154:	eaffffaa 	b	8004 <w2c_0x24coremark0x2Ewasm_calc_func+0x1954>
    8158:	e59d303c 	ldr	r3, [sp, #60]	@ 0x3c
    815c:	e59d104c 	ldr	r1, [sp, #76]	@ 0x4c
    8160:	e59d9050 	ldr	r9, [sp, #80]	@ 0x50
    8164:	e59d706c 	ldr	r7, [sp, #108]	@ 0x6c
    8168:	e0811003 	add	r1, r1, r3
    816c:	e0899003 	add	r9, r9, r3
    8170:	e59d3024 	ldr	r3, [sp, #36]	@ 0x24
    8174:	e2877001 	add	r7, r7, #1
    8178:	e59da070 	ldr	sl, [sp, #112]	@ 0x70
    817c:	e59d2074 	ldr	r2, [sp, #116]	@ 0x74
    8180:	e1570003 	cmp	r7, r3
    8184:	e58d104c 	str	r1, [sp, #76]	@ 0x4c
    8188:	1affff92 	bne	7fd8 <w2c_0x24coremark0x2Ewasm_calc_func+0x1928>
    818c:	e3a06000 	mov	r6, #0
    8190:	e59d4068 	ldr	r4, [sp, #104]	@ 0x68
    8194:	e59d3064 	ldr	r3, [sp, #100]	@ 0x64
    8198:	e1a08006 	mov	r8, r6
    819c:	e59d102c 	ldr	r1, [sp, #44]	@ 0x2c
    81a0:	e1a07006 	mov	r7, r6
    81a4:	e58d4050 	str	r4, [sp, #80]	@ 0x50
    81a8:	e1a04006 	mov	r4, r6
    81ac:	e58da054 	str	sl, [sp, #84]	@ 0x54
    81b0:	e58d1038 	str	r1, [sp, #56]	@ 0x38
    81b4:	e59da040 	ldr	sl, [sp, #64]	@ 0x40
    81b8:	e58d304c 	str	r3, [sp, #76]	@ 0x4c
    81bc:	e58d2040 	str	r2, [sp, #64]	@ 0x40
    81c0:	e59d3028 	ldr	r3, [sp, #40]	@ 0x28
    81c4:	e3530000 	cmp	r3, #0
    81c8:	059d5028 	ldreq	r5, [sp, #40]	@ 0x28
    81cc:	1a00003c 	bne	82c4 <w2c_0x24coremark0x2Ewasm_calc_func+0x1c14>
    81d0:	e59d3038 	ldr	r3, [sp, #56]	@ 0x38
    81d4:	e1a0000b 	mov	r0, fp
    81d8:	e0832105 	add	r2, r3, r5, lsl #2
    81dc:	e3a03000 	mov	r3, #0
    81e0:	ebffdf86 	bl	0 <i32_load_default32>
    81e4:	e0877000 	add	r7, r7, r0
    81e8:	e157000a 	cmp	r7, sl
    81ec:	c3a07000 	movgt	r7, #0
    81f0:	c3a0400a 	movgt	r4, #10
    81f4:	ca000002 	bgt	8204 <w2c_0x24coremark0x2Ewasm_calc_func+0x1b54>
    81f8:	e1540000 	cmp	r4, r0
    81fc:	a3a04000 	movge	r4, #0
    8200:	b3a04001 	movlt	r4, #1
    8204:	e0888004 	add	r8, r8, r4
    8208:	e1a04000 	mov	r4, r0
    820c:	e59d3024 	ldr	r3, [sp, #36]	@ 0x24
    8210:	e2866001 	add	r6, r6, #1
    8214:	e59d202c 	ldr	r2, [sp, #44]	@ 0x2c
    8218:	e1560003 	cmp	r6, r3
    821c:	e0822103 	add	r2, r2, r3, lsl #2
    8220:	e58d202c 	str	r2, [sp, #44]	@ 0x2c
    8224:	e59d2038 	ldr	r2, [sp, #56]	@ 0x38
    8228:	e0822103 	add	r2, r2, r3, lsl #2
    822c:	e58d2038 	str	r2, [sp, #56]	@ 0x38
    8230:	1affffe2 	bne	81c0 <w2c_0x24coremark0x2Ewasm_calc_func+0x1b10>
    8234:	e59d304c 	ldr	r3, [sp, #76]	@ 0x4c
    8238:	e6bf0078 	sxth	r0, r8
    823c:	e59d1060 	ldr	r1, [sp, #96]	@ 0x60
    8240:	e59d4050 	ldr	r4, [sp, #80]	@ 0x50
    8244:	e59da054 	ldr	sl, [sp, #84]	@ 0x54
    8248:	e58d302c 	str	r3, [sp, #44]	@ 0x2c
    824c:	ebffe02a 	bl	2fc <w2c_0x24coremark0x2Ewasm_crc16.isra.0>
    8250:	e59d5000 	ldr	r5, [sp]
    8254:	e1a07000 	mov	r7, r0
    8258:	e59d2040 	ldr	r2, [sp, #64]	@ 0x40
    825c:	e58d4038 	str	r4, [sp, #56]	@ 0x38
    8260:	e3a04000 	mov	r4, #0
    8264:	e59d6020 	ldr	r6, [sp, #32]
    8268:	e58d2020 	str	r2, [sp, #32]
    826c:	e59d3028 	ldr	r3, [sp, #40]	@ 0x28
    8270:	e3530002 	cmp	r3, #2
    8274:	93a08000 	movls	r8, #0
    8278:	8a00004c 	bhi	83b0 <w2c_0x24coremark0x2Ewasm_calc_func+0x1d00>
    827c:	e59d3034 	ldr	r3, [sp, #52]	@ 0x34
    8280:	e3530000 	cmp	r3, #0
    8284:	1a000033 	bne	8358 <w2c_0x24coremark0x2Ewasm_calc_func+0x1ca8>
    8288:	e59d303c 	ldr	r3, [sp, #60]	@ 0x3c
    828c:	e2844001 	add	r4, r4, #1
    8290:	e08aa003 	add	sl, sl, r3
    8294:	e59d3024 	ldr	r3, [sp, #36]	@ 0x24
    8298:	e1540003 	cmp	r4, r3
    829c:	1afffff2 	bne	826c <w2c_0x24coremark0x2Ewasm_calc_func+0x1bbc>
    82a0:	e51f1db8 	ldr	r1, [pc, #-3512]	@ 74f0 <w2c_0x24coremark0x2Ewasm_calc_func+0xe40>
    82a4:	e6bf0077 	sxth	r0, r7
    82a8:	e59dc008 	ldr	ip, [sp, #8]
    82ac:	e59d302c 	ldr	r3, [sp, #44]	@ 0x2c
    82b0:	e59d4038 	ldr	r4, [sp, #56]	@ 0x38
    82b4:	e79f1001 	ldr	r1, [pc, r1]
    82b8:	e59d2020 	ldr	r2, [sp, #32]
    82bc:	e79c1001 	ldr	r1, [ip, r1]
    82c0:	eafffb23 	b	6f54 <w2c_0x24coremark0x2Ewasm_calc_func+0x8a4>
    82c4:	e59d902c 	ldr	r9, [sp, #44]	@ 0x2c
    82c8:	e3a05000 	mov	r5, #0
    82cc:	e58d6058 	str	r6, [sp, #88]	@ 0x58
    82d0:	e2892004 	add	r2, r9, #4
    82d4:	e3a03000 	mov	r3, #0
    82d8:	e1a0000b 	mov	r0, fp
    82dc:	e1a06004 	mov	r6, r4
    82e0:	ebffdf46 	bl	0 <i32_load_default32>
    82e4:	e1a02009 	mov	r2, r9
    82e8:	e1a04000 	mov	r4, r0
    82ec:	e3a03000 	mov	r3, #0
    82f0:	e1a0000b 	mov	r0, fp
    82f4:	ebffdf41 	bl	0 <i32_load_default32>
    82f8:	e0802007 	add	r2, r0, r7
    82fc:	e152000a 	cmp	r2, sl
    8300:	da000075 	ble	84dc <w2c_0x24coremark0x2Ewasm_calc_func+0x1e2c>
    8304:	e154000a 	cmp	r4, sl
    8308:	d1a07004 	movle	r7, r4
    830c:	ca00007b 	bgt	8500 <w2c_0x24coremark0x2Ewasm_calc_func+0x1e50>
    8310:	e1500004 	cmp	r0, r4
    8314:	a3a03000 	movge	r3, #0
    8318:	b3a03001 	movlt	r3, #1
    831c:	e152000a 	cmp	r2, sl
    8320:	c3a0000a 	movgt	r0, #10
    8324:	da000071 	ble	84f0 <w2c_0x24coremark0x2Ewasm_calc_func+0x1e40>
    8328:	e0800003 	add	r0, r0, r3
    832c:	e59d3044 	ldr	r3, [sp, #68]	@ 0x44
    8330:	e2855002 	add	r5, r5, #2
    8334:	e0888000 	add	r8, r8, r0
    8338:	e2899008 	add	r9, r9, #8
    833c:	e1530005 	cmp	r3, r5
    8340:	1affffe2 	bne	82d0 <w2c_0x24coremark0x2Ewasm_calc_func+0x1c20>
    8344:	e59d3048 	ldr	r3, [sp, #72]	@ 0x48
    8348:	e59d6058 	ldr	r6, [sp, #88]	@ 0x58
    834c:	e3530000 	cmp	r3, #0
    8350:	0affffad 	beq	820c <w2c_0x24coremark0x2Ewasm_calc_func+0x1b5c>
    8354:	eaffff9d 	b	81d0 <w2c_0x24coremark0x2Ewasm_calc_func+0x1b20>
    8358:	e59d3034 	ldr	r3, [sp, #52]	@ 0x34
    835c:	e08a8088 	add	r8, sl, r8, lsl #1
    8360:	e0889083 	add	r9, r8, r3, lsl #1
    8364:	e1a02008 	mov	r2, r8
    8368:	e3a03000 	mov	r3, #0
    836c:	e1a0000b 	mov	r0, fp
    8370:	ebffdf2f 	bl	34 <i32_load16_u_default32>
    8374:	e595c030 	ldr	ip, [r5, #48]	@ 0x30
    8378:	e2982002 	adds	r2, r8, #2
    837c:	e5953034 	ldr	r3, [r5, #52]	@ 0x34
    8380:	23a01001 	movcs	r1, #1
    8384:	33a01000 	movcc	r1, #0
    8388:	e15c0002 	cmp	ip, r2
    838c:	e0d33001 	sbcs	r3, r3, r1
    8390:	3a000050 	bcc	84d8 <w2c_0x24coremark0x2Ewasm_calc_func+0x1e28>
    8394:	e5951010 	ldr	r1, [r5, #16]
    8398:	e0403006 	sub	r3, r0, r6
    839c:	e1520009 	cmp	r2, r9
    83a0:	e18130b8 	strh	r3, [r1, r8]
    83a4:	e1a08002 	mov	r8, r2
    83a8:	1affffed 	bne	8364 <w2c_0x24coremark0x2Ewasm_calc_func+0x1cb4>
    83ac:	eaffffb5 	b	8288 <w2c_0x24coremark0x2Ewasm_calc_func+0x1bd8>
    83b0:	e1a0900a 	mov	r9, sl
    83b4:	e3a08000 	mov	r8, #0
    83b8:	e1a02009 	mov	r2, r9
    83bc:	e3a03000 	mov	r3, #0
    83c0:	e1a0000b 	mov	r0, fp
    83c4:	ebffdf1a 	bl	34 <i32_load16_u_default32>
    83c8:	e595c030 	ldr	ip, [r5, #48]	@ 0x30
    83cc:	e2992002 	adds	r2, r9, #2
    83d0:	e5953034 	ldr	r3, [r5, #52]	@ 0x34
    83d4:	23a01001 	movcs	r1, #1
    83d8:	33a01000 	movcc	r1, #0
    83dc:	e15c0002 	cmp	ip, r2
    83e0:	e0d33001 	sbcs	r3, r3, r1
    83e4:	3a00003b 	bcc	84d8 <w2c_0x24coremark0x2Ewasm_calc_func+0x1e28>
    83e8:	e5951010 	ldr	r1, [r5, #16]
    83ec:	e0403006 	sub	r3, r0, r6
    83f0:	e1a0000b 	mov	r0, fp
    83f4:	e58d2040 	str	r2, [sp, #64]	@ 0x40
    83f8:	e18130b9 	strh	r3, [r1, r9]
    83fc:	e3a03000 	mov	r3, #0
    8400:	ebffdf0b 	bl	34 <i32_load16_u_default32>
    8404:	e59d2040 	ldr	r2, [sp, #64]	@ 0x40
    8408:	e595c030 	ldr	ip, [r5, #48]	@ 0x30
    840c:	e2922002 	adds	r2, r2, #2
    8410:	e5953034 	ldr	r3, [r5, #52]	@ 0x34
    8414:	23a01001 	movcs	r1, #1
    8418:	33a01000 	movcc	r1, #0
    841c:	e15c0002 	cmp	ip, r2
    8420:	e0d33001 	sbcs	r3, r3, r1
    8424:	3a00002b 	bcc	84d8 <w2c_0x24coremark0x2Ewasm_calc_func+0x1e28>
    8428:	e5953010 	ldr	r3, [r5, #16]
    842c:	e2892004 	add	r2, r9, #4
    8430:	e0400006 	sub	r0, r0, r6
    8434:	e58d2040 	str	r2, [sp, #64]	@ 0x40
    8438:	e0833009 	add	r3, r3, r9
    843c:	e1c300b2 	strh	r0, [r3, #2]
    8440:	e3a03000 	mov	r3, #0
    8444:	e1a0000b 	mov	r0, fp
    8448:	ebffdef9 	bl	34 <i32_load16_u_default32>
    844c:	e59d2040 	ldr	r2, [sp, #64]	@ 0x40
    8450:	e595e030 	ldr	lr, [r5, #48]	@ 0x30
    8454:	e292c002 	adds	ip, r2, #2
    8458:	e5953034 	ldr	r3, [r5, #52]	@ 0x34
    845c:	23a01001 	movcs	r1, #1
    8460:	33a01000 	movcc	r1, #0
    8464:	e15e000c 	cmp	lr, ip
    8468:	e0d33001 	sbcs	r3, r3, r1
    846c:	3a000019 	bcc	84d8 <w2c_0x24coremark0x2Ewasm_calc_func+0x1e28>
    8470:	e5951010 	ldr	r1, [r5, #16]
    8474:	e0403006 	sub	r3, r0, r6
    8478:	e1a0000b 	mov	r0, fp
    847c:	e18130b2 	strh	r3, [r1, r2]
    8480:	e2892006 	add	r2, r9, #6
    8484:	e3a03000 	mov	r3, #0
    8488:	e58d2040 	str	r2, [sp, #64]	@ 0x40
    848c:	ebffdee8 	bl	34 <i32_load16_u_default32>
    8490:	e59d2040 	ldr	r2, [sp, #64]	@ 0x40
    8494:	e595e030 	ldr	lr, [r5, #48]	@ 0x30
    8498:	e292c002 	adds	ip, r2, #2
    849c:	e5953034 	ldr	r3, [r5, #52]	@ 0x34
    84a0:	23a01001 	movcs	r1, #1
    84a4:	33a01000 	movcc	r1, #0
    84a8:	e15e000c 	cmp	lr, ip
    84ac:	e0d33001 	sbcs	r3, r3, r1
    84b0:	3a000008 	bcc	84d8 <w2c_0x24coremark0x2Ewasm_calc_func+0x1e28>
    84b4:	e59d1030 	ldr	r1, [sp, #48]	@ 0x30
    84b8:	e2888004 	add	r8, r8, #4
    84bc:	e0403006 	sub	r3, r0, r6
    84c0:	e2899008 	add	r9, r9, #8
    84c4:	e1510008 	cmp	r1, r8
    84c8:	e5951010 	ldr	r1, [r5, #16]
    84cc:	e18130b2 	strh	r3, [r1, r2]
    84d0:	1affffb8 	bne	83b8 <w2c_0x24coremark0x2Ewasm_calc_func+0x1d08>
    84d4:	eaffff68 	b	827c <w2c_0x24coremark0x2Ewasm_calc_func+0x1bcc>
    84d8:	ebffdefd 	bl	d4 <f64_store_default32.part.0>
    84dc:	e0847002 	add	r7, r4, r2
    84e0:	e15a0007 	cmp	sl, r7
    84e4:	aaffff89 	bge	8310 <w2c_0x24coremark0x2Ewasm_calc_func+0x1c60>
    84e8:	e3a0300a 	mov	r3, #10
    84ec:	e3a07000 	mov	r7, #0
    84f0:	e1560000 	cmp	r6, r0
    84f4:	a3a00000 	movge	r0, #0
    84f8:	b3a00001 	movlt	r0, #1
    84fc:	eaffff89 	b	8328 <w2c_0x24coremark0x2Ewasm_calc_func+0x1c78>
    8500:	e3a0300a 	mov	r3, #10
    8504:	e3a07000 	mov	r7, #0
    8508:	e1a00003 	mov	r0, r3
    850c:	eaffff85 	b	8328 <w2c_0x24coremark0x2Ewasm_calc_func+0x1c78>
    8510:	e59d1038 	ldr	r1, [sp, #56]	@ 0x38
    8514:	e1a08007 	mov	r8, r7
    8518:	e1a09000 	mov	r9, r0
    851c:	e58d004c 	str	r0, [sp, #76]	@ 0x4c
    8520:	e281b006 	add	fp, r1, #6
    8524:	e58d4064 	str	r4, [sp, #100]	@ 0x64
    8528:	e58d7068 	str	r7, [sp, #104]	@ 0x68
    852c:	e58d0050 	str	r0, [sp, #80]	@ 0x50
    8530:	e58d606c 	str	r6, [sp, #108]	@ 0x6c
    8534:	e58da070 	str	sl, [sp, #112]	@ 0x70
    8538:	e58de074 	str	lr, [sp, #116]	@ 0x74
    853c:	e29bc002 	adds	ip, fp, #2
    8540:	e2a91000 	adc	r1, r9, #0
    8544:	e152000c 	cmp	r2, ip
    8548:	e0d31001 	sbcs	r1, r3, r1
    854c:	3afff91e 	bcc	69cc <w2c_0x24coremark0x2Ewasm_calc_func+0x31c>
    8550:	e59d1000 	ldr	r1, [sp]
    8554:	e5911010 	ldr	r1, [r1, #16]
    8558:	e19170fb 	ldrsh	r7, [r1, fp]
    855c:	e288c006 	add	ip, r8, #6
    8560:	e29c5002 	adds	r5, ip, #2
    8564:	e2a94000 	adc	r4, r9, #0
    8568:	e1520005 	cmp	r2, r5
    856c:	e0d34004 	sbcs	r4, r3, r4
    8570:	3afff915 	bcc	69cc <w2c_0x24coremark0x2Ewasm_calc_func+0x31c>
    8574:	e191a0fc 	ldrsh	sl, [r1, ip]
    8578:	e24bc002 	sub	ip, fp, #2
    857c:	e29c5002 	adds	r5, ip, #2
    8580:	e2a94000 	adc	r4, r9, #0
    8584:	e1520005 	cmp	r2, r5
    8588:	e0d34004 	sbcs	r4, r3, r4
    858c:	3afff90e 	bcc	69cc <w2c_0x24coremark0x2Ewasm_calc_func+0x31c>
    8590:	e191c0fc 	ldrsh	ip, [r1, ip]
    8594:	e58dc058 	str	ip, [sp, #88]	@ 0x58
    8598:	e288c004 	add	ip, r8, #4
    859c:	e29c5002 	adds	r5, ip, #2
    85a0:	e2a94000 	adc	r4, r9, #0
    85a4:	e1520005 	cmp	r2, r5
    85a8:	e0d34004 	sbcs	r4, r3, r4
    85ac:	3afff906 	bcc	69cc <w2c_0x24coremark0x2Ewasm_calc_func+0x31c>
    85b0:	e191e0fc 	ldrsh	lr, [r1, ip]
    85b4:	e58de054 	str	lr, [sp, #84]	@ 0x54
    85b8:	e24bc004 	sub	ip, fp, #4
    85bc:	e29c5002 	adds	r5, ip, #2
    85c0:	e2a94000 	adc	r4, r9, #0
    85c4:	e1520005 	cmp	r2, r5
    85c8:	e0d34004 	sbcs	r4, r3, r4
    85cc:	3afff8fe 	bcc	69cc <w2c_0x24coremark0x2Ewasm_calc_func+0x31c>
    85d0:	e191e0fc 	ldrsh	lr, [r1, ip]
    85d4:	e288c002 	add	ip, r8, #2
    85d8:	e29c5002 	adds	r5, ip, #2
    85dc:	e2a94000 	adc	r4, r9, #0
    85e0:	e1520005 	cmp	r2, r5
    85e4:	e0d34004 	sbcs	r4, r3, r4
    85e8:	3afff8f7 	bcc	69cc <w2c_0x24coremark0x2Ewasm_calc_func+0x31c>
    85ec:	e19160fc 	ldrsh	r6, [r1, ip]
    85f0:	e24b4006 	sub	r4, fp, #6
    85f4:	e2945002 	adds	r5, r4, #2
    85f8:	e2a90000 	adc	r0, r9, #0
    85fc:	e1520005 	cmp	r2, r5
    8600:	e0d35000 	sbcs	r5, r3, r0
    8604:	3afff8f0 	bcc	69cc <w2c_0x24coremark0x2Ewasm_calc_func+0x31c>
    8608:	e19140f4 	ldrsh	r4, [r1, r4]
    860c:	e2985002 	adds	r5, r8, #2
    8610:	e2a95000 	adc	r5, r9, #0
    8614:	e152000c 	cmp	r2, ip
    8618:	e0d35005 	sbcs	r5, r3, r5
    861c:	3afff8ea 	bcc	69cc <w2c_0x24coremark0x2Ewasm_calc_func+0x31c>
    8620:	e19110f8 	ldrsh	r1, [r1, r8]
    8624:	e59dc058 	ldr	ip, [sp, #88]	@ 0x58
    8628:	e28bb008 	add	fp, fp, #8
    862c:	e59d5054 	ldr	r5, [sp, #84]	@ 0x54
    8630:	e2888008 	add	r8, r8, #8
    8634:	e00c0c95 	mul	ip, r5, ip
    8638:	e02cc79a 	mla	ip, sl, r7, ip
    863c:	e02cce96 	mla	ip, r6, lr, ip
    8640:	e02cc491 	mla	ip, r1, r4, ip
    8644:	e59d1050 	ldr	r1, [sp, #80]	@ 0x50
    8648:	e081100c 	add	r1, r1, ip
    864c:	e58d1050 	str	r1, [sp, #80]	@ 0x50
    8650:	e59d104c 	ldr	r1, [sp, #76]	@ 0x4c
    8654:	e59dc030 	ldr	ip, [sp, #48]	@ 0x30
    8658:	e2811004 	add	r1, r1, #4
    865c:	e58d104c 	str	r1, [sp, #76]	@ 0x4c
    8660:	e15c0001 	cmp	ip, r1
    8664:	1affffb4 	bne	853c <w2c_0x24coremark0x2Ewasm_calc_func+0x1e8c>
    8668:	e28d606c 	add	r6, sp, #108	@ 0x6c
    866c:	e59d4064 	ldr	r4, [sp, #100]	@ 0x64
    8670:	e59d7068 	ldr	r7, [sp, #104]	@ 0x68
    8674:	e59d0050 	ldr	r0, [sp, #80]	@ 0x50
    8678:	e8964440 	ldm	r6, {r6, sl, lr}
    867c:	eafffc00 	b	7684 <w2c_0x24coremark0x2Ewasm_calc_func+0xfd4>
    8680:	e1500004 	cmp	r0, r4
    8684:	a3a03000 	movge	r3, #0
    8688:	b3a03001 	movlt	r3, #1
    868c:	e1520009 	cmp	r2, r9
    8690:	c3a0000a 	movgt	r0, #10
    8694:	cafffcd2 	bgt	79e4 <w2c_0x24coremark0x2Ewasm_calc_func+0x1334>
    8698:	eafffcce 	b	79d8 <w2c_0x24coremark0x2Ewasm_calc_func+0x1328>
    869c:	e1590004 	cmp	r9, r4
    86a0:	a1a07004 	movge	r7, r4
    86a4:	aafffff5 	bge	8680 <w2c_0x24coremark0x2Ewasm_calc_func+0x1fd0>
    86a8:	e3a0300a 	mov	r3, #10
    86ac:	e3a07000 	mov	r7, #0
    86b0:	e1a00003 	mov	r0, r3
    86b4:	eafffcca 	b	79e4 <w2c_0x24coremark0x2Ewasm_calc_func+0x1334>

000086b8 <w2c_0x24coremark0x2Ewasm_core_bench_list>:
    86b8:	e92d4ff0 	push	{r4, r5, r6, r7, r8, r9, sl, fp, lr}
    86bc:	ee1dcf70 	mrc	15, 0, ip, cr13, cr0, {3}
    86c0:	e59f3e84 	ldr	r3, [pc, #3716]	@ 954c <w2c_0x24coremark0x2Ewasm_core_bench_list+0xe94>
    86c4:	e24dd02c 	sub	sp, sp, #44	@ 0x2c
    86c8:	e1a05002 	mov	r5, r2
    86cc:	e59f2e7c 	ldr	r2, [pc, #3708]	@ 9550 <w2c_0x24coremark0x2Ewasm_core_bench_list+0xe98>
    86d0:	e58dc010 	str	ip, [sp, #16]
    86d4:	e58d1000 	str	r1, [sp]
    86d8:	e79f3003 	ldr	r3, [pc, r3]
    86dc:	e79f2002 	ldr	r2, [pc, r2]
    86e0:	e79c3003 	ldr	r3, [ip, r3]
    86e4:	e2833001 	add	r3, r3, #1
    86e8:	e78c3002 	str	r3, [ip, r2]
    86ec:	e3530f7d 	cmp	r3, #500	@ 0x1f4
    86f0:	8a00032b 	bhi	93a4 <w2c_0x24coremark0x2Ewasm_core_bench_list+0xcec>
    86f4:	e59d3000 	ldr	r3, [sp]
    86f8:	e3a02000 	mov	r2, #0
    86fc:	e5901030 	ldr	r1, [r0, #48]	@ 0x30
    8700:	e1a0b000 	mov	fp, r0
    8704:	e293c028 	adds	ip, r3, #40	@ 0x28
    8708:	e5903034 	ldr	r3, [r0, #52]	@ 0x34
    870c:	e2a20000 	adc	r0, r2, #0
    8710:	e151000c 	cmp	r1, ip
    8714:	e0d30000 	sbcs	r0, r3, r0
    8718:	3a00006b 	bcc	88cc <w2c_0x24coremark0x2Ewasm_core_bench_list+0x214>
    871c:	e59b0010 	ldr	r0, [fp, #16]
    8720:	e59dc000 	ldr	ip, [sp]
    8724:	e080000c 	add	r0, r0, ip
    8728:	e5909024 	ldr	r9, [r0, #36]	@ 0x24
    872c:	e29ce006 	adds	lr, ip, #6
    8730:	e2a2c000 	adc	ip, r2, #0
    8734:	e151000e 	cmp	r1, lr
    8738:	e0d3c00c 	sbcs	ip, r3, ip
    873c:	3a000062 	bcc	88cc <w2c_0x24coremark0x2Ewasm_core_bench_list+0x214>
    8740:	e1d0e0b4 	ldrh	lr, [r0, #4]
    8744:	e6bf007e 	sxth	r0, lr
    8748:	e58d000c 	str	r0, [sp, #12]
    874c:	e3500000 	cmp	r0, #0
    8750:	da00003b 	ble	8844 <w2c_0x24coremark0x2Ewasm_core_bench_list+0x18c>
    8754:	e1a0c002 	mov	ip, r2
    8758:	e1a0a005 	mov	sl, r5
    875c:	e1a08002 	mov	r8, r2
    8760:	e58d2008 	str	r2, [sp, #8]
    8764:	e58d2014 	str	r2, [sp, #20]
    8768:	e58d2004 	str	r2, [sp, #4]
    876c:	e58de018 	str	lr, [sp, #24]
    8770:	e58d501c 	str	r5, [sp, #28]
    8774:	e31a0902 	tst	sl, #32768	@ 0x8000
    8778:	0a000055 	beq	88d4 <w2c_0x24coremark0x2Ewasm_core_bench_list+0x21c>
    877c:	e3590000 	cmp	r9, #0
    8780:	1a0000ce 	bne	8ac0 <w2c_0x24coremark0x2Ewasm_core_bench_list+0x408>
    8784:	e3a00004 	mov	r0, #4
    8788:	e1a02009 	mov	r2, r9
    878c:	e1510000 	cmp	r1, r0
    8790:	e0d32002 	sbcs	r2, r3, r2
    8794:	3a00004c 	bcc	88cc <w2c_0x24coremark0x2Ewasm_core_bench_list+0x214>
    8798:	e59b0010 	ldr	r0, [fp, #16]
    879c:	e7902009 	ldr	r2, [r0, r9]
    87a0:	e2924008 	adds	r4, r2, #8
    87a4:	e2ace000 	adc	lr, ip, #0
    87a8:	e1510004 	cmp	r1, r4
    87ac:	e0d3e00e 	sbcs	lr, r3, lr
    87b0:	3a000045 	bcc	88cc <w2c_0x24coremark0x2Ewasm_core_bench_list+0x214>
    87b4:	e0802002 	add	r2, r0, r2
    87b8:	e5922004 	ldr	r2, [r2, #4]
    87bc:	e2924002 	adds	r4, r2, #2
    87c0:	e2ace000 	adc	lr, ip, #0
    87c4:	e1510004 	cmp	r1, r4
    87c8:	e0d3e00e 	sbcs	lr, r3, lr
    87cc:	3a00003e 	bcc	88cc <w2c_0x24coremark0x2Ewasm_core_bench_list+0x214>
    87d0:	e0800002 	add	r0, r0, r2
    87d4:	e59d2008 	ldr	r2, [sp, #8]
    87d8:	e2822001 	add	r2, r2, #1
    87dc:	e58d2008 	str	r2, [sp, #8]
    87e0:	e5d02001 	ldrb	r2, [r0, #1]
    87e4:	e2022001 	and	r2, r2, #1
    87e8:	e59d0004 	ldr	r0, [sp, #4]
    87ec:	e2888001 	add	r8, r8, #1
    87f0:	e0802002 	add	r2, r0, r2
    87f4:	e58d2004 	str	r2, [sp, #4]
    87f8:	e59d200c 	ldr	r2, [sp, #12]
    87fc:	e6bf8078 	sxth	r8, r8
    8800:	e1520008 	cmp	r2, r8
    8804:	e1e0200a 	mvn	r2, sl
    8808:	e7e027d2 	ubfx	r2, r2, #15, #1
    880c:	e08aa002 	add	sl, sl, r2
    8810:	caffffd7 	bgt	8774 <w2c_0x24coremark0x2Ewasm_core_bench_list+0xbc>
    8814:	e59d2004 	ldr	r2, [sp, #4]
    8818:	e59d0014 	ldr	r0, [sp, #20]
    881c:	e59de018 	ldr	lr, [sp, #24]
    8820:	e59d501c 	ldr	r5, [sp, #28]
    8824:	e0820100 	add	r0, r2, r0, lsl #2
    8828:	e59d2008 	ldr	r2, [sp, #8]
    882c:	e0402002 	sub	r2, r0, r2
    8830:	e58d201c 	str	r2, [sp, #28]
    8834:	e24e2001 	sub	r2, lr, #1
    8838:	e6ef2072 	uxtb	r2, r2
    883c:	e58d200c 	str	r2, [sp, #12]
    8840:	ea000002 	b	8850 <w2c_0x24coremark0x2Ewasm_core_bench_list+0x198>
    8844:	e1a0a005 	mov	sl, r5
    8848:	e58d201c 	str	r2, [sp, #28]
    884c:	e58d200c 	str	r2, [sp, #12]
    8850:	e3550001 	cmp	r5, #1
    8854:	1a0000b8 	bne	8b3c <w2c_0x24coremark0x2Ewasm_core_bench_list+0x484>
    8858:	e1a02003 	mov	r2, r3
    885c:	e58da024 	str	sl, [sp, #36]	@ 0x24
    8860:	e58d5004 	str	r5, [sp, #4]
    8864:	e3a0c000 	mov	ip, #0
    8868:	e58dc020 	str	ip, [sp, #32]
    886c:	e1a0500c 	mov	r5, ip
    8870:	e58dc008 	str	ip, [sp, #8]
    8874:	e59d3004 	ldr	r3, [sp, #4]
    8878:	e3530000 	cmp	r3, #0
    887c:	d1a04009 	movle	r4, r9
    8880:	d3a0a000 	movle	sl, #0
    8884:	da000042 	ble	8994 <w2c_0x24coremark0x2Ewasm_core_bench_list+0x2dc>
    8888:	e3a0a000 	mov	sl, #0
    888c:	e1a04009 	mov	r4, r9
    8890:	e1a0e00a 	mov	lr, sl
    8894:	e1a0c003 	mov	ip, r3
    8898:	ea000006 	b	88b8 <w2c_0x24coremark0x2Ewasm_core_bench_list+0x200>
    889c:	e59b3010 	ldr	r3, [fp, #16]
    88a0:	e7934004 	ldr	r4, [r3, r4]
    88a4:	e28aa001 	add	sl, sl, #1
    88a8:	e3540000 	cmp	r4, #0
    88ac:	0a000038 	beq	8994 <w2c_0x24coremark0x2Ewasm_core_bench_list+0x2dc>
    88b0:	e15c000a 	cmp	ip, sl
    88b4:	0a000036 	beq	8994 <w2c_0x24coremark0x2Ewasm_core_bench_list+0x2dc>
    88b8:	e2940004 	adds	r0, r4, #4
    88bc:	e2ae3000 	adc	r3, lr, #0
    88c0:	e1510000 	cmp	r1, r0
    88c4:	e0d23003 	sbcs	r3, r2, r3
    88c8:	2afffff3 	bcs	889c <w2c_0x24coremark0x2Ewasm_core_bench_list+0x1e4>
    88cc:	e3a00001 	mov	r0, #1
    88d0:	ebfffffe 	bl	0 <wasm_rt_trap>
    88d4:	e3590000 	cmp	r9, #0
    88d8:	0affffa9 	beq	8784 <w2c_0x24coremark0x2Ewasm_core_bench_list+0xcc>
    88dc:	e6ff707a 	uxth	r7, sl
    88e0:	e1a02009 	mov	r2, r9
    88e4:	e3a04000 	mov	r4, #0
    88e8:	e292e008 	adds	lr, r2, #8
    88ec:	e2a40000 	adc	r0, r4, #0
    88f0:	e151000e 	cmp	r1, lr
    88f4:	e0d30000 	sbcs	r0, r3, r0
    88f8:	3afffff3 	bcc	88cc <w2c_0x24coremark0x2Ewasm_core_bench_list+0x214>
    88fc:	e59be010 	ldr	lr, [fp, #16]
    8900:	e08e0002 	add	r0, lr, r2
    8904:	e5900004 	ldr	r0, [r0, #4]
    8908:	e2906004 	adds	r6, r0, #4
    890c:	e2a45000 	adc	r5, r4, #0
    8910:	e1510006 	cmp	r1, r6
    8914:	e0d35005 	sbcs	r5, r3, r5
    8918:	3affffeb 	bcc	88cc <w2c_0x24coremark0x2Ewasm_core_bench_list+0x214>
    891c:	e08e0000 	add	r0, lr, r0
    8920:	e1d000b2 	ldrh	r0, [r0, #2]
    8924:	e1570000 	cmp	r7, r0
    8928:	0a000007 	beq	894c <w2c_0x24coremark0x2Ewasm_core_bench_list+0x294>
    892c:	e2925004 	adds	r5, r2, #4
    8930:	e2a40000 	adc	r0, r4, #0
    8934:	e1510005 	cmp	r1, r5
    8938:	e0d30000 	sbcs	r0, r3, r0
    893c:	3affffe2 	bcc	88cc <w2c_0x24coremark0x2Ewasm_core_bench_list+0x214>
    8940:	e79e2002 	ldr	r2, [lr, r2]
    8944:	e3520000 	cmp	r2, #0
    8948:	1affffe6 	bne	88e8 <w2c_0x24coremark0x2Ewasm_core_bench_list+0x230>
    894c:	e3a0e000 	mov	lr, #0
    8950:	e1a0400e 	mov	r4, lr
    8954:	ea000008 	b	897c <w2c_0x24coremark0x2Ewasm_core_bench_list+0x2c4>
    8958:	e59b3010 	ldr	r3, [fp, #16]
    895c:	e7930009 	ldr	r0, [r3, r9]
    8960:	e783e009 	str	lr, [r3, r9]
    8964:	e3500000 	cmp	r0, #0
    8968:	e59b1030 	ldr	r1, [fp, #48]	@ 0x30
    896c:	e1a0e009 	mov	lr, r9
    8970:	e59b3034 	ldr	r3, [fp, #52]	@ 0x34
    8974:	0a0001f3 	beq	9148 <w2c_0x24coremark0x2Ewasm_core_bench_list+0xa90>
    8978:	e1a09000 	mov	r9, r0
    897c:	e2995004 	adds	r5, r9, #4
    8980:	e2a40000 	adc	r0, r4, #0
    8984:	e1510005 	cmp	r1, r5
    8988:	e0d33000 	sbcs	r3, r3, r0
    898c:	2afffff1 	bcs	8958 <w2c_0x24coremark0x2Ewasm_core_bench_list+0x2a0>
    8990:	eaffffcd 	b	88cc <w2c_0x24coremark0x2Ewasm_core_bench_list+0x214>
    8994:	e59d7004 	ldr	r7, [sp, #4]
    8998:	e3a08000 	mov	r8, #0
    899c:	e35a0000 	cmp	sl, #0
    89a0:	ca000033 	bgt	8a74 <w2c_0x24coremark0x2Ewasm_core_bench_list+0x3bc>
    89a4:	e3570000 	cmp	r7, #0
    89a8:	da000219 	ble	9214 <w2c_0x24coremark0x2Ewasm_core_bench_list+0xb5c>
    89ac:	e3540000 	cmp	r4, #0
    89b0:	0a000205 	beq	91cc <w2c_0x24coremark0x2Ewasm_core_bench_list+0xb14>
    89b4:	e35a0000 	cmp	sl, #0
    89b8:	0a0001a7 	beq	905c <w2c_0x24coremark0x2Ewasm_core_bench_list+0x9a4>
    89bc:	e2940008 	adds	r0, r4, #8
    89c0:	e2a83000 	adc	r3, r8, #0
    89c4:	e1510000 	cmp	r1, r0
    89c8:	e0d23003 	sbcs	r3, r2, r3
    89cc:	3affffbe 	bcc	88cc <w2c_0x24coremark0x2Ewasm_core_bench_list+0x214>
    89d0:	e59b0010 	ldr	r0, [fp, #16]
    89d4:	e0803004 	add	r3, r0, r4
    89d8:	e5933004 	ldr	r3, [r3, #4]
    89dc:	e299e008 	adds	lr, r9, #8
    89e0:	e3a06000 	mov	r6, #0
    89e4:	e2a8c000 	adc	ip, r8, #0
    89e8:	e151000e 	cmp	r1, lr
    89ec:	e0d2c00c 	sbcs	ip, r2, ip
    89f0:	3affffb5 	bcc	88cc <w2c_0x24coremark0x2Ewasm_core_bench_list+0x214>
    89f4:	e0800009 	add	r0, r0, r9
    89f8:	e5901004 	ldr	r1, [r0, #4]
    89fc:	e59d2000 	ldr	r2, [sp]
    8a00:	e1a0000b 	mov	r0, fp
    8a04:	e58d3018 	str	r3, [sp, #24]
    8a08:	ebfff728 	bl	66b0 <w2c_0x24coremark0x2Ewasm_calc_func>
    8a0c:	e59d1018 	ldr	r1, [sp, #24]
    8a10:	e58d0014 	str	r0, [sp, #20]
    8a14:	e1a0000b 	mov	r0, fp
    8a18:	e59d2000 	ldr	r2, [sp]
    8a1c:	ebfff723 	bl	66b0 <w2c_0x24coremark0x2Ewasm_calc_func>
    8a20:	e59d3014 	ldr	r3, [sp, #20]
    8a24:	e59b1030 	ldr	r1, [fp, #48]	@ 0x30
    8a28:	e1530000 	cmp	r3, r0
    8a2c:	8a00019d 	bhi	90a8 <w2c_0x24coremark0x2Ewasm_core_bench_list+0x9f0>
    8a30:	e59b2034 	ldr	r2, [fp, #52]	@ 0x34
    8a34:	e2993004 	adds	r3, r9, #4
    8a38:	e2a66000 	adc	r6, r6, #0
    8a3c:	e1510003 	cmp	r1, r3
    8a40:	e0d26006 	sbcs	r6, r2, r6
    8a44:	3affffa0 	bcc	88cc <w2c_0x24coremark0x2Ewasm_core_bench_list+0x214>
    8a48:	e59b3010 	ldr	r3, [fp, #16]
    8a4c:	e24aa001 	sub	sl, sl, #1
    8a50:	e793c009 	ldr	ip, [r3, r9]
    8a54:	e1a00009 	mov	r0, r9
    8a58:	e1a0900c 	mov	r9, ip
    8a5c:	e3550000 	cmp	r5, #0
    8a60:	1a00000c 	bne	8a98 <w2c_0x24coremark0x2Ewasm_core_bench_list+0x3e0>
    8a64:	e1a05000 	mov	r5, r0
    8a68:	e35a0000 	cmp	sl, #0
    8a6c:	e58d0008 	str	r0, [sp, #8]
    8a70:	daffffcb 	ble	89a4 <w2c_0x24coremark0x2Ewasm_core_bench_list+0x2ec>
    8a74:	e3570000 	cmp	r7, #0
    8a78:	01a06007 	moveq	r6, r7
    8a7c:	0affffec 	beq	8a34 <w2c_0x24coremark0x2Ewasm_core_bench_list+0x37c>
    8a80:	e3540000 	cmp	r4, #0
    8a84:	01a06004 	moveq	r6, r4
    8a88:	0affffe9 	beq	8a34 <w2c_0x24coremark0x2Ewasm_core_bench_list+0x37c>
    8a8c:	eaffffca 	b	89bc <w2c_0x24coremark0x2Ewasm_core_bench_list+0x304>
    8a90:	e1a00004 	mov	r0, r4
    8a94:	e1a0400e 	mov	r4, lr
    8a98:	e295e004 	adds	lr, r5, #4
    8a9c:	e2a8c000 	adc	ip, r8, #0
    8aa0:	e151000e 	cmp	r1, lr
    8aa4:	e0d2c00c 	sbcs	ip, r2, ip
    8aa8:	3affff87 	bcc	88cc <w2c_0x24coremark0x2Ewasm_core_bench_list+0x214>
    8aac:	e7830005 	str	r0, [r3, r5]
    8ab0:	e1a05000 	mov	r5, r0
    8ab4:	e59b1030 	ldr	r1, [fp, #48]	@ 0x30
    8ab8:	e59b2034 	ldr	r2, [fp, #52]	@ 0x34
    8abc:	eaffffb6 	b	899c <w2c_0x24coremark0x2Ewasm_core_bench_list+0x2e4>
    8ac0:	e1a02009 	mov	r2, r9
    8ac4:	e3a04000 	mov	r4, #0
    8ac8:	e6ef7078 	uxtb	r7, r8
    8acc:	e292e008 	adds	lr, r2, #8
    8ad0:	e2a40000 	adc	r0, r4, #0
    8ad4:	e151000e 	cmp	r1, lr
    8ad8:	e0d30000 	sbcs	r0, r3, r0
    8adc:	3affff7a 	bcc	88cc <w2c_0x24coremark0x2Ewasm_core_bench_list+0x214>
    8ae0:	e59be010 	ldr	lr, [fp, #16]
    8ae4:	e08e0002 	add	r0, lr, r2
    8ae8:	e5900004 	ldr	r0, [r0, #4]
    8aec:	e2906001 	adds	r6, r0, #1
    8af0:	e2a45000 	adc	r5, r4, #0
    8af4:	e1510006 	cmp	r1, r6
    8af8:	e0d35005 	sbcs	r5, r3, r5
    8afc:	3affff72 	bcc	88cc <w2c_0x24coremark0x2Ewasm_core_bench_list+0x214>
    8b00:	e7de0000 	ldrb	r0, [lr, r0]
    8b04:	e1570000 	cmp	r7, r0
    8b08:	0affff8f 	beq	894c <w2c_0x24coremark0x2Ewasm_core_bench_list+0x294>
    8b0c:	e2925004 	adds	r5, r2, #4
    8b10:	e2a40000 	adc	r0, r4, #0
    8b14:	e1510005 	cmp	r1, r5
    8b18:	e0d30000 	sbcs	r0, r3, r0
    8b1c:	3affff6a 	bcc	88cc <w2c_0x24coremark0x2Ewasm_core_bench_list+0x214>
    8b20:	e79e2002 	ldr	r2, [lr, r2]
    8b24:	e3520000 	cmp	r2, #0
    8b28:	1affffe7 	bne	8acc <w2c_0x24coremark0x2Ewasm_core_bench_list+0x414>
    8b2c:	eaffff86 	b	894c <w2c_0x24coremark0x2Ewasm_core_bench_list+0x294>
    8b30:	e59da024 	ldr	sl, [sp, #36]	@ 0x24
    8b34:	e59b1030 	ldr	r1, [fp, #48]	@ 0x30
    8b38:	e59b3034 	ldr	r3, [fp, #52]	@ 0x34
    8b3c:	e2990004 	adds	r0, r9, #4
    8b40:	e3a02000 	mov	r2, #0
    8b44:	e2a2c000 	adc	ip, r2, #0
    8b48:	e1510000 	cmp	r1, r0
    8b4c:	e58d0014 	str	r0, [sp, #20]
    8b50:	e0d3000c 	sbcs	r0, r3, ip
    8b54:	e58dc018 	str	ip, [sp, #24]
    8b58:	3affff5b 	bcc	88cc <w2c_0x24coremark0x2Ewasm_core_bench_list+0x214>
    8b5c:	e59b4010 	ldr	r4, [fp, #16]
    8b60:	e7940009 	ldr	r0, [r4, r9]
    8b64:	e290e008 	adds	lr, r0, #8
    8b68:	e2a2c000 	adc	ip, r2, #0
    8b6c:	e151000e 	cmp	r1, lr
    8b70:	e0d3c00c 	sbcs	ip, r3, ip
    8b74:	3affff54 	bcc	88cc <w2c_0x24coremark0x2Ewasm_core_bench_list+0x214>
    8b78:	e290c004 	adds	ip, r0, #4
    8b7c:	e2a2e000 	adc	lr, r2, #0
    8b80:	e794800c 	ldr	r8, [r4, ip]
    8b84:	e58d8020 	str	r8, [sp, #32]
    8b88:	e151000c 	cmp	r1, ip
    8b8c:	e0d3500e 	sbcs	r5, r3, lr
    8b90:	3affff4d 	bcc	88cc <w2c_0x24coremark0x2Ewasm_core_bench_list+0x214>
    8b94:	e7945000 	ldr	r5, [r4, r0]
    8b98:	e2956008 	adds	r6, r5, #8
    8b9c:	e58d6000 	str	r6, [sp]
    8ba0:	e2a27000 	adc	r7, r2, #0
    8ba4:	e1510006 	cmp	r1, r6
    8ba8:	e0d33007 	sbcs	r3, r3, r7
    8bac:	e58d7004 	str	r7, [sp, #4]
    8bb0:	3affff45 	bcc	88cc <w2c_0x24coremark0x2Ewasm_core_bench_list+0x214>
    8bb4:	e2951004 	adds	r1, r5, #4
    8bb8:	e2a27000 	adc	r7, r2, #0
    8bbc:	e7943001 	ldr	r3, [r4, r1]
    8bc0:	e784300c 	str	r3, [r4, ip]
    8bc4:	e59b6030 	ldr	r6, [fp, #48]	@ 0x30
    8bc8:	e59b3034 	ldr	r3, [fp, #52]	@ 0x34
    8bcc:	e1560001 	cmp	r6, r1
    8bd0:	e58d7008 	str	r7, [sp, #8]
    8bd4:	e0d34007 	sbcs	r4, r3, r7
    8bd8:	3affff3b 	bcc	88cc <w2c_0x24coremark0x2Ewasm_core_bench_list+0x214>
    8bdc:	e59b4010 	ldr	r4, [fp, #16]
    8be0:	e7947005 	ldr	r7, [r4, r5]
    8be4:	e156000c 	cmp	r6, ip
    8be8:	e0d3300e 	sbcs	r3, r3, lr
    8bec:	3affff36 	bcc	88cc <w2c_0x24coremark0x2Ewasm_core_bench_list+0x214>
    8bf0:	e7847000 	str	r7, [r4, r0]
    8bf4:	e59b3030 	ldr	r3, [fp, #48]	@ 0x30
    8bf8:	e59d6000 	ldr	r6, [sp]
    8bfc:	e59d7004 	ldr	r7, [sp, #4]
    8c00:	e1530006 	cmp	r3, r6
    8c04:	e59b3034 	ldr	r3, [fp, #52]	@ 0x34
    8c08:	e0d33007 	sbcs	r3, r3, r7
    8c0c:	3affff2e 	bcc	88cc <w2c_0x24coremark0x2Ewasm_core_bench_list+0x214>
    8c10:	e59b3010 	ldr	r3, [fp, #16]
    8c14:	e59d4008 	ldr	r4, [sp, #8]
    8c18:	e7838001 	str	r8, [r3, r1]
    8c1c:	e59b3030 	ldr	r3, [fp, #48]	@ 0x30
    8c20:	e1530001 	cmp	r3, r1
    8c24:	e59b3034 	ldr	r3, [fp, #52]	@ 0x34
    8c28:	e0d33004 	sbcs	r3, r3, r4
    8c2c:	3affff26 	bcc	88cc <w2c_0x24coremark0x2Ewasm_core_bench_list+0x214>
    8c30:	e59b3010 	ldr	r3, [fp, #16]
    8c34:	e31a0902 	tst	sl, #32768	@ 0x8000
    8c38:	e7832005 	str	r2, [r3, r5]
    8c3c:	e59b8030 	ldr	r8, [fp, #48]	@ 0x30
    8c40:	e59b7034 	ldr	r7, [fp, #52]	@ 0x34
    8c44:	0a000123 	beq	90d8 <w2c_0x24coremark0x2Ewasm_core_bench_list+0xa20>
    8c48:	e59de00c 	ldr	lr, [sp, #12]
    8c4c:	e1a04009 	mov	r4, r9
    8c50:	e2940008 	adds	r0, r4, #8
    8c54:	e2a23000 	adc	r3, r2, #0
    8c58:	e1580000 	cmp	r8, r0
    8c5c:	e0d73003 	sbcs	r3, r7, r3
    8c60:	3affff19 	bcc	88cc <w2c_0x24coremark0x2Ewasm_core_bench_list+0x214>
    8c64:	e59b3010 	ldr	r3, [fp, #16]
    8c68:	e0830004 	add	r0, r3, r4
    8c6c:	e5900004 	ldr	r0, [r0, #4]
    8c70:	e2906001 	adds	r6, r0, #1
    8c74:	e2a2c000 	adc	ip, r2, #0
    8c78:	e1580006 	cmp	r8, r6
    8c7c:	e0d7c00c 	sbcs	ip, r7, ip
    8c80:	3affff11 	bcc	88cc <w2c_0x24coremark0x2Ewasm_core_bench_list+0x214>
    8c84:	e7d30000 	ldrb	r0, [r3, r0]
    8c88:	e15e0000 	cmp	lr, r0
    8c8c:	0a000010 	beq	8cd4 <w2c_0x24coremark0x2Ewasm_core_bench_list+0x61c>
    8c90:	e294c004 	adds	ip, r4, #4
    8c94:	e2a20000 	adc	r0, r2, #0
    8c98:	e158000c 	cmp	r8, ip
    8c9c:	e0d70000 	sbcs	r0, r7, r0
    8ca0:	3affff09 	bcc	88cc <w2c_0x24coremark0x2Ewasm_core_bench_list+0x214>
    8ca4:	e7934004 	ldr	r4, [r3, r4]
    8ca8:	e3540000 	cmp	r4, #0
    8cac:	1affffe7 	bne	8c50 <w2c_0x24coremark0x2Ewasm_core_bench_list+0x598>
    8cb0:	e59d0014 	ldr	r0, [sp, #20]
    8cb4:	e1580000 	cmp	r8, r0
    8cb8:	e59d0018 	ldr	r0, [sp, #24]
    8cbc:	e0d70000 	sbcs	r0, r7, r0
    8cc0:	3affff01 	bcc	88cc <w2c_0x24coremark0x2Ewasm_core_bench_list+0x214>
    8cc4:	e7934009 	ldr	r4, [r3, r9]
    8cc8:	e1a0a003 	mov	sl, r3
    8ccc:	e3540000 	cmp	r4, #0
    8cd0:	0a000047 	beq	8df4 <w2c_0x24coremark0x2Ewasm_core_bench_list+0x73c>
    8cd4:	e2993008 	adds	r3, r9, #8
    8cd8:	e58d5020 	str	r5, [sp, #32]
    8cdc:	e58d1024 	str	r1, [sp, #36]	@ 0x24
    8ce0:	e2a25000 	adc	r5, r2, #0
    8ce4:	e59d101c 	ldr	r1, [sp, #28]
    8ce8:	e1a02007 	mov	r2, r7
    8cec:	e59d6010 	ldr	r6, [sp, #16]
    8cf0:	e1a07008 	mov	r7, r8
    8cf4:	e1a08002 	mov	r8, r2
    8cf8:	e58d300c 	str	r3, [sp, #12]
    8cfc:	e59d300c 	ldr	r3, [sp, #12]
    8d00:	e1570003 	cmp	r7, r3
    8d04:	e0d80005 	sbcs	r0, r8, r5
    8d08:	3afffeef 	bcc	88cc <w2c_0x24coremark0x2Ewasm_core_bench_list+0x214>
    8d0c:	e59ba010 	ldr	sl, [fp, #16]
    8d10:	e08a0009 	add	r0, sl, r9
    8d14:	e590c004 	ldr	ip, [r0, #4]
    8d18:	e29ce002 	adds	lr, ip, #2
    8d1c:	23a00001 	movcs	r0, #1
    8d20:	33a00000 	movcc	r0, #0
    8d24:	e157000e 	cmp	r7, lr
    8d28:	e0d80000 	sbcs	r0, r8, r0
    8d2c:	3afffee6 	bcc	88cc <w2c_0x24coremark0x2Ewasm_core_bench_list+0x214>
    8d30:	e19a00fc 	ldrsh	r0, [sl, ip]
    8d34:	e59fc818 	ldr	ip, [pc, #2072]	@ 9554 <w2c_0x24coremark0x2Ewasm_core_bench_list+0xe9c>
    8d38:	e59fe818 	ldr	lr, [pc, #2072]	@ 9558 <w2c_0x24coremark0x2Ewasm_core_bench_list+0xea0>
    8d3c:	e79fc00c 	ldr	ip, [pc, ip]
    8d40:	e79fe00e 	ldr	lr, [pc, lr]
    8d44:	e796c00c 	ldr	ip, [r6, ip]
    8d48:	e28cc001 	add	ip, ip, #1
    8d4c:	e786c00e 	str	ip, [r6, lr]
    8d50:	e35c0f7d 	cmp	ip, #500	@ 0x1f4
    8d54:	8a000192 	bhi	93a4 <w2c_0x24coremark0x2Ewasm_core_bench_list+0xcec>
    8d58:	e6ff1071 	uxth	r1, r1
    8d5c:	e6ff0070 	uxth	r0, r0
    8d60:	ebffdcde 	bl	e0 <w2c_0x24coremark0x2Ewasm_crcu16.isra.0>
    8d64:	e1a01000 	mov	r1, r0
    8d68:	e59f07ec 	ldr	r0, [pc, #2028]	@ 955c <w2c_0x24coremark0x2Ewasm_core_bench_list+0xea4>
    8d6c:	e79f0000 	ldr	r0, [pc, r0]
    8d70:	e796c000 	ldr	ip, [r6, r0]
    8d74:	e59f07e4 	ldr	r0, [pc, #2020]	@ 9560 <w2c_0x24coremark0x2Ewasm_core_bench_list+0xea8>
    8d78:	e24cc001 	sub	ip, ip, #1
    8d7c:	e79f0000 	ldr	r0, [pc, r0]
    8d80:	e786c000 	str	ip, [r6, r0]
    8d84:	e294c004 	adds	ip, r4, #4
    8d88:	23a00001 	movcs	r0, #1
    8d8c:	33a00000 	movcc	r0, #0
    8d90:	e157000c 	cmp	r7, ip
    8d94:	e0d80000 	sbcs	r0, r8, r0
    8d98:	3afffecb 	bcc	88cc <w2c_0x24coremark0x2Ewasm_core_bench_list+0x214>
    8d9c:	e79a4004 	ldr	r4, [sl, r4]
    8da0:	e3540000 	cmp	r4, #0
    8da4:	1affffd4 	bne	8cfc <w2c_0x24coremark0x2Ewasm_core_bench_list+0x644>
    8da8:	e1a03008 	mov	r3, r8
    8dac:	e1a08007 	mov	r8, r7
    8db0:	e1a07003 	mov	r7, r3
    8db4:	e59d3000 	ldr	r3, [sp]
    8db8:	e58d101c 	str	r1, [sp, #28]
    8dbc:	e1580003 	cmp	r8, r3
    8dc0:	e59d3004 	ldr	r3, [sp, #4]
    8dc4:	e59d5020 	ldr	r5, [sp, #32]
    8dc8:	e59d1024 	ldr	r1, [sp, #36]	@ 0x24
    8dcc:	e0d73003 	sbcs	r3, r7, r3
    8dd0:	3afffebd 	bcc	88cc <w2c_0x24coremark0x2Ewasm_core_bench_list+0x214>
    8dd4:	e79a3001 	ldr	r3, [sl, r1]
    8dd8:	e58d3020 	str	r3, [sp, #32]
    8ddc:	e59d3014 	ldr	r3, [sp, #20]
    8de0:	e1580003 	cmp	r8, r3
    8de4:	e59d3018 	ldr	r3, [sp, #24]
    8de8:	e0d73003 	sbcs	r3, r7, r3
    8dec:	3afffeb6 	bcc	88cc <w2c_0x24coremark0x2Ewasm_core_bench_list+0x214>
    8df0:	e79a4009 	ldr	r4, [sl, r9]
    8df4:	e3a0e000 	mov	lr, #0
    8df8:	e294c008 	adds	ip, r4, #8
    8dfc:	e2ae0000 	adc	r0, lr, #0
    8e00:	e158000c 	cmp	r8, ip
    8e04:	e0d73000 	sbcs	r3, r7, r0
    8e08:	3afffeaf 	bcc	88cc <w2c_0x24coremark0x2Ewasm_core_bench_list+0x214>
    8e0c:	e2842004 	add	r2, r4, #4
    8e10:	e79a3002 	ldr	r3, [sl, r2]
    8e14:	e59d6000 	ldr	r6, [sp]
    8e18:	e1580006 	cmp	r8, r6
    8e1c:	e59d6004 	ldr	r6, [sp, #4]
    8e20:	e0d77006 	sbcs	r7, r7, r6
    8e24:	3afffea8 	bcc	88cc <w2c_0x24coremark0x2Ewasm_core_bench_list+0x214>
    8e28:	e78a3001 	str	r3, [sl, r1]
    8e2c:	e2943004 	adds	r3, r4, #4
    8e30:	e59b8030 	ldr	r8, [fp, #48]	@ 0x30
    8e34:	e2aee000 	adc	lr, lr, #0
    8e38:	e59b3034 	ldr	r3, [fp, #52]	@ 0x34
    8e3c:	e1580002 	cmp	r8, r2
    8e40:	e0d3600e 	sbcs	r6, r3, lr
    8e44:	3afffea0 	bcc	88cc <w2c_0x24coremark0x2Ewasm_core_bench_list+0x214>
    8e48:	e59b6010 	ldr	r6, [fp, #16]
    8e4c:	e7967004 	ldr	r7, [r6, r4]
    8e50:	e1580001 	cmp	r8, r1
    8e54:	e59d1008 	ldr	r1, [sp, #8]
    8e58:	e0d33001 	sbcs	r3, r3, r1
    8e5c:	3afffe9a 	bcc	88cc <w2c_0x24coremark0x2Ewasm_core_bench_list+0x214>
    8e60:	e7867005 	str	r7, [r6, r5]
    8e64:	e59b3030 	ldr	r3, [fp, #48]	@ 0x30
    8e68:	e153000c 	cmp	r3, ip
    8e6c:	e59b3034 	ldr	r3, [fp, #52]	@ 0x34
    8e70:	e0d33000 	sbcs	r3, r3, r0
    8e74:	3afffe94 	bcc	88cc <w2c_0x24coremark0x2Ewasm_core_bench_list+0x214>
    8e78:	e59b3010 	ldr	r3, [fp, #16]
    8e7c:	e59d1020 	ldr	r1, [sp, #32]
    8e80:	e7831002 	str	r1, [r3, r2]
    8e84:	e59b3030 	ldr	r3, [fp, #48]	@ 0x30
    8e88:	e1530002 	cmp	r3, r2
    8e8c:	e59b3034 	ldr	r3, [fp, #52]	@ 0x34
    8e90:	e0d3300e 	sbcs	r3, r3, lr
    8e94:	3afffe8c 	bcc	88cc <w2c_0x24coremark0x2Ewasm_core_bench_list+0x214>
    8e98:	e59b3010 	ldr	r3, [fp, #16]
    8e9c:	e3a0a001 	mov	sl, #1
    8ea0:	e7835004 	str	r5, [r3, r4]
    8ea4:	e1a04009 	mov	r4, r9
    8ea8:	e3a09000 	mov	r9, #0
    8eac:	e59b6030 	ldr	r6, [fp, #48]	@ 0x30
    8eb0:	e59b5034 	ldr	r5, [fp, #52]	@ 0x34
    8eb4:	e1a07009 	mov	r7, r9
    8eb8:	e58d9004 	str	r9, [sp, #4]
    8ebc:	e58da000 	str	sl, [sp]
    8ec0:	e59d3000 	ldr	r3, [sp]
    8ec4:	e3530000 	cmp	r3, #0
    8ec8:	d1a03004 	movle	r3, r4
    8ecc:	d3a02000 	movle	r2, #0
    8ed0:	ca00010a 	bgt	9300 <w2c_0x24coremark0x2Ewasm_core_bench_list+0xc48>
    8ed4:	e59da000 	ldr	sl, [sp]
    8ed8:	e58d7008 	str	r7, [sp, #8]
    8edc:	e3520000 	cmp	r2, #0
    8ee0:	ca000058 	bgt	9048 <w2c_0x24coremark0x2Ewasm_core_bench_list+0x990>
    8ee4:	e35a0000 	cmp	sl, #0
    8ee8:	da00018c 	ble	9520 <w2c_0x24coremark0x2Ewasm_core_bench_list+0xe68>
    8eec:	e3530000 	cmp	r3, #0
    8ef0:	0a000137 	beq	93d4 <w2c_0x24coremark0x2Ewasm_core_bench_list+0xd1c>
    8ef4:	e3520000 	cmp	r2, #0
    8ef8:	0a000112 	beq	9348 <w2c_0x24coremark0x2Ewasm_core_bench_list+0xc90>
    8efc:	e2940008 	adds	r0, r4, #8
    8f00:	e3a0e000 	mov	lr, #0
    8f04:	e2ae1000 	adc	r1, lr, #0
    8f08:	e1560000 	cmp	r6, r0
    8f0c:	e0d51001 	sbcs	r1, r5, r1
    8f10:	3afffe6d 	bcc	88cc <w2c_0x24coremark0x2Ewasm_core_bench_list+0x214>
    8f14:	e59b1010 	ldr	r1, [fp, #16]
    8f18:	e0810004 	add	r0, r1, r4
    8f1c:	e5908004 	ldr	r8, [r0, #4]
    8f20:	e298c002 	adds	ip, r8, #2
    8f24:	e2ae0000 	adc	r0, lr, #0
    8f28:	e156000c 	cmp	r6, ip
    8f2c:	e0d50000 	sbcs	r0, r5, r0
    8f30:	3afffe65 	bcc	88cc <w2c_0x24coremark0x2Ewasm_core_bench_list+0x214>
    8f34:	e0810008 	add	r0, r1, r8
    8f38:	e5d00001 	ldrb	r0, [r0, #1]
    8f3c:	e2987001 	adds	r7, r8, #1
    8f40:	e2aec000 	adc	ip, lr, #0
    8f44:	e1560007 	cmp	r6, r7
    8f48:	e0d5c00c 	sbcs	ip, r5, ip
    8f4c:	3afffe5e 	bcc	88cc <w2c_0x24coremark0x2Ewasm_core_bench_list+0x214>
    8f50:	e7c10008 	strb	r0, [r1, r8]
    8f54:	e2930008 	adds	r0, r3, #8
    8f58:	e59b7030 	ldr	r7, [fp, #48]	@ 0x30
    8f5c:	e2ae1000 	adc	r1, lr, #0
    8f60:	e59bc034 	ldr	ip, [fp, #52]	@ 0x34
    8f64:	e1570000 	cmp	r7, r0
    8f68:	e0dc1001 	sbcs	r1, ip, r1
    8f6c:	3afffe56 	bcc	88cc <w2c_0x24coremark0x2Ewasm_core_bench_list+0x214>
    8f70:	e59b0010 	ldr	r0, [fp, #16]
    8f74:	e0801003 	add	r1, r0, r3
    8f78:	e5911004 	ldr	r1, [r1, #4]
    8f7c:	e2916002 	adds	r6, r1, #2
    8f80:	e2ae5000 	adc	r5, lr, #0
    8f84:	e1570006 	cmp	r7, r6
    8f88:	e0dc5005 	sbcs	r5, ip, r5
    8f8c:	3afffe4e 	bcc	88cc <w2c_0x24coremark0x2Ewasm_core_bench_list+0x214>
    8f90:	e0805001 	add	r5, r0, r1
    8f94:	e5d55001 	ldrb	r5, [r5, #1]
    8f98:	e58d500c 	str	r5, [sp, #12]
    8f9c:	e2916001 	adds	r6, r1, #1
    8fa0:	e2ae5000 	adc	r5, lr, #0
    8fa4:	e1570006 	cmp	r7, r6
    8fa8:	e0dc6005 	sbcs	r6, ip, r5
    8fac:	3afffe46 	bcc	88cc <w2c_0x24coremark0x2Ewasm_core_bench_list+0x214>
    8fb0:	e59dc00c 	ldr	ip, [sp, #12]
    8fb4:	e7c0c001 	strb	ip, [r0, r1]
    8fb8:	e298c004 	adds	ip, r8, #4
    8fbc:	e59b6030 	ldr	r6, [fp, #48]	@ 0x30
    8fc0:	e2ae0000 	adc	r0, lr, #0
    8fc4:	e59b5034 	ldr	r5, [fp, #52]	@ 0x34
    8fc8:	e156000c 	cmp	r6, ip
    8fcc:	e0d50000 	sbcs	r0, r5, r0
    8fd0:	3afffe3d 	bcc	88cc <w2c_0x24coremark0x2Ewasm_core_bench_list+0x214>
    8fd4:	e59b0010 	ldr	r0, [fp, #16]
    8fd8:	e0808008 	add	r8, r0, r8
    8fdc:	e1d8c0f2 	ldrsh	ip, [r8, #2]
    8fe0:	e2918004 	adds	r8, r1, #4
    8fe4:	e2ae7000 	adc	r7, lr, #0
    8fe8:	e1560008 	cmp	r6, r8
    8fec:	e0d57007 	sbcs	r7, r5, r7
    8ff0:	3afffe35 	bcc	88cc <w2c_0x24coremark0x2Ewasm_core_bench_list+0x214>
    8ff4:	e0801001 	add	r1, r0, r1
    8ff8:	e1d110f2 	ldrsh	r1, [r1, #2]
    8ffc:	e151000c 	cmp	r1, ip
    9000:	ba0000e9 	blt	93ac <w2c_0x24coremark0x2Ewasm_core_bench_list+0xcf4>
    9004:	e2940004 	adds	r0, r4, #4
    9008:	23a01001 	movcs	r1, #1
    900c:	33a01000 	movcc	r1, #0
    9010:	e1560000 	cmp	r6, r0
    9014:	e0d51001 	sbcs	r1, r5, r1
    9018:	3afffe2b 	bcc	88cc <w2c_0x24coremark0x2Ewasm_core_bench_list+0x214>
    901c:	e59b0010 	ldr	r0, [fp, #16]
    9020:	e2422001 	sub	r2, r2, #1
    9024:	e7901004 	ldr	r1, [r0, r4]
    9028:	e1a0c004 	mov	ip, r4
    902c:	e1a04001 	mov	r4, r1
    9030:	e3590000 	cmp	r9, #0
    9034:	1a0000a6 	bne	92d4 <w2c_0x24coremark0x2Ewasm_core_bench_list+0xc1c>
    9038:	e1a0900c 	mov	r9, ip
    903c:	e3520000 	cmp	r2, #0
    9040:	e58dc004 	str	ip, [sp, #4]
    9044:	daffffa6 	ble	8ee4 <w2c_0x24coremark0x2Ewasm_core_bench_list+0x82c>
    9048:	e35a0000 	cmp	sl, #0
    904c:	0affffec 	beq	9004 <w2c_0x24coremark0x2Ewasm_core_bench_list+0x94c>
    9050:	e3530000 	cmp	r3, #0
    9054:	0affffea 	beq	9004 <w2c_0x24coremark0x2Ewasm_core_bench_list+0x94c>
    9058:	eaffffa7 	b	8efc <w2c_0x24coremark0x2Ewasm_core_bench_list+0x844>
    905c:	e1a0000a 	mov	r0, sl
    9060:	e294c004 	adds	ip, r4, #4
    9064:	e2a03000 	adc	r3, r0, #0
    9068:	e151000c 	cmp	r1, ip
    906c:	e0d23003 	sbcs	r3, r2, r3
    9070:	3afffe15 	bcc	88cc <w2c_0x24coremark0x2Ewasm_core_bench_list+0x214>
    9074:	e59b3010 	ldr	r3, [fp, #16]
    9078:	e2477001 	sub	r7, r7, #1
    907c:	e793e004 	ldr	lr, [r3, r4]
    9080:	e3550000 	cmp	r5, #0
    9084:	1afffe81 	bne	8a90 <w2c_0x24coremark0x2Ewasm_core_bench_list+0x3d8>
    9088:	e3570000 	cmp	r7, #0
    908c:	0a000087 	beq	92b0 <w2c_0x24coremark0x2Ewasm_core_bench_list+0xbf8>
    9090:	e35e0000 	cmp	lr, #0
    9094:	e1a05004 	mov	r5, r4
    9098:	e58d4008 	str	r4, [sp, #8]
    909c:	0a000087 	beq	92c0 <w2c_0x24coremark0x2Ewasm_core_bench_list+0xc08>
    90a0:	e1a0400e 	mov	r4, lr
    90a4:	eaffffed 	b	9060 <w2c_0x24coremark0x2Ewasm_core_bench_list+0x9a8>
    90a8:	e2940004 	adds	r0, r4, #4
    90ac:	e59b2034 	ldr	r2, [fp, #52]	@ 0x34
    90b0:	e2a83000 	adc	r3, r8, #0
    90b4:	e1510000 	cmp	r1, r0
    90b8:	e0d23003 	sbcs	r3, r2, r3
    90bc:	3afffe02 	bcc	88cc <w2c_0x24coremark0x2Ewasm_core_bench_list+0x214>
    90c0:	e59b3010 	ldr	r3, [fp, #16]
    90c4:	e2477001 	sub	r7, r7, #1
    90c8:	e793c004 	ldr	ip, [r3, r4]
    90cc:	e1a00004 	mov	r0, r4
    90d0:	e1a0400c 	mov	r4, ip
    90d4:	eafffe60 	b	8a5c <w2c_0x24coremark0x2Ewasm_core_bench_list+0x3a4>
    90d8:	e6ffa07a 	uxth	sl, sl
    90dc:	e1a04009 	mov	r4, r9
    90e0:	e2940008 	adds	r0, r4, #8
    90e4:	e2a23000 	adc	r3, r2, #0
    90e8:	e1580000 	cmp	r8, r0
    90ec:	e0d73003 	sbcs	r3, r7, r3
    90f0:	3afffdf5 	bcc	88cc <w2c_0x24coremark0x2Ewasm_core_bench_list+0x214>
    90f4:	e59b3010 	ldr	r3, [fp, #16]
    90f8:	e0830004 	add	r0, r3, r4
    90fc:	e5900004 	ldr	r0, [r0, #4]
    9100:	e290e004 	adds	lr, r0, #4
    9104:	e2a2c000 	adc	ip, r2, #0
    9108:	e158000e 	cmp	r8, lr
    910c:	e0d7c00c 	sbcs	ip, r7, ip
    9110:	3afffded 	bcc	88cc <w2c_0x24coremark0x2Ewasm_core_bench_list+0x214>
    9114:	e0830000 	add	r0, r3, r0
    9118:	e1d000b2 	ldrh	r0, [r0, #2]
    911c:	e15a0000 	cmp	sl, r0
    9120:	0afffeeb 	beq	8cd4 <w2c_0x24coremark0x2Ewasm_core_bench_list+0x61c>
    9124:	e294c004 	adds	ip, r4, #4
    9128:	e2a20000 	adc	r0, r2, #0
    912c:	e158000c 	cmp	r8, ip
    9130:	e0d70000 	sbcs	r0, r7, r0
    9134:	3afffde4 	bcc	88cc <w2c_0x24coremark0x2Ewasm_core_bench_list+0x214>
    9138:	e7934004 	ldr	r4, [r3, r4]
    913c:	e3540000 	cmp	r4, #0
    9140:	1affffe6 	bne	90e0 <w2c_0x24coremark0x2Ewasm_core_bench_list+0xa28>
    9144:	eafffed9 	b	8cb0 <w2c_0x24coremark0x2Ewasm_core_bench_list+0x5f8>
    9148:	e3520000 	cmp	r2, #0
    914c:	1a000002 	bne	915c <w2c_0x24coremark0x2Ewasm_core_bench_list+0xaa4>
    9150:	e2990004 	adds	r0, r9, #4
    9154:	e2a22000 	adc	r2, r2, #0
    9158:	eafffd8b 	b	878c <w2c_0x24coremark0x2Ewasm_core_bench_list+0xd4>
    915c:	e2924008 	adds	r4, r2, #8
    9160:	e2a0e000 	adc	lr, r0, #0
    9164:	e1510004 	cmp	r1, r4
    9168:	e0d3e00e 	sbcs	lr, r3, lr
    916c:	3afffdd6 	bcc	88cc <w2c_0x24coremark0x2Ewasm_core_bench_list+0x214>
    9170:	e59b7010 	ldr	r7, [fp, #16]
    9174:	e087e002 	add	lr, r7, r2
    9178:	e59ee004 	ldr	lr, [lr, #4]
    917c:	e29e5002 	adds	r5, lr, #2
    9180:	e2a04000 	adc	r4, r0, #0
    9184:	e1510005 	cmp	r1, r5
    9188:	e0d34004 	sbcs	r4, r3, r4
    918c:	3afffdce 	bcc	88cc <w2c_0x24coremark0x2Ewasm_core_bench_list+0x214>
    9190:	e19760be 	ldrh	r6, [r7, lr]
    9194:	e2924004 	adds	r4, r2, #4
    9198:	e2a0e000 	adc	lr, r0, #0
    919c:	e1510004 	cmp	r1, r4
    91a0:	e0d3e00e 	sbcs	lr, r3, lr
    91a4:	3afffdc8 	bcc	88cc <w2c_0x24coremark0x2Ewasm_core_bench_list+0x214>
    91a8:	e797e002 	ldr	lr, [r7, r2]
    91ac:	e35e0000 	cmp	lr, #0
    91b0:	1a00001e 	bne	9230 <w2c_0x24coremark0x2Ewasm_core_bench_list+0xb78>
    91b4:	e59d0014 	ldr	r0, [sp, #20]
    91b8:	e00624a6 	and	r2, r6, r6, lsr #9
    91bc:	e2022001 	and	r2, r2, #1
    91c0:	e2800001 	add	r0, r0, #1
    91c4:	e58d0014 	str	r0, [sp, #20]
    91c8:	eafffd86 	b	87e8 <w2c_0x24coremark0x2Ewasm_core_bench_list+0x130>
    91cc:	e59d6020 	ldr	r6, [sp, #32]
    91d0:	e59d9008 	ldr	r9, [sp, #8]
    91d4:	e295c004 	adds	ip, r5, #4
    91d8:	e3a00000 	mov	r0, #0
    91dc:	e2a03000 	adc	r3, r0, #0
    91e0:	e151000c 	cmp	r1, ip
    91e4:	e0d23003 	sbcs	r3, r2, r3
    91e8:	3afffdb7 	bcc	88cc <w2c_0x24coremark0x2Ewasm_core_bench_list+0x214>
    91ec:	e59d3004 	ldr	r3, [sp, #4]
    91f0:	e1560000 	cmp	r6, r0
    91f4:	e1a03083 	lsl	r3, r3, #1
    91f8:	e58d3004 	str	r3, [sp, #4]
    91fc:	e59b3010 	ldr	r3, [fp, #16]
    9200:	e7830005 	str	r0, [r3, r5]
    9204:	0afffe49 	beq	8b30 <w2c_0x24coremark0x2Ewasm_core_bench_list+0x478>
    9208:	e59b1030 	ldr	r1, [fp, #48]	@ 0x30
    920c:	e59b2034 	ldr	r2, [fp, #52]	@ 0x34
    9210:	eafffd93 	b	8864 <w2c_0x24coremark0x2Ewasm_core_bench_list+0x1ac>
    9214:	e1a09004 	mov	r9, r4
    9218:	e3590000 	cmp	r9, #0
    921c:	0affffea 	beq	91cc <w2c_0x24coremark0x2Ewasm_core_bench_list+0xb14>
    9220:	e59d3020 	ldr	r3, [sp, #32]
    9224:	e2833001 	add	r3, r3, #1
    9228:	e58d3020 	str	r3, [sp, #32]
    922c:	eafffd90 	b	8874 <w2c_0x24coremark0x2Ewasm_core_bench_list+0x1bc>
    9230:	e29e4004 	adds	r4, lr, #4
    9234:	e2a05000 	adc	r5, r0, #0
    9238:	e1510004 	cmp	r1, r4
    923c:	e0d33005 	sbcs	r3, r3, r5
    9240:	e58d5020 	str	r5, [sp, #32]
    9244:	3afffda0 	bcc	88cc <w2c_0x24coremark0x2Ewasm_core_bench_list+0x214>
    9248:	e797300e 	ldr	r3, [r7, lr]
    924c:	e7873002 	str	r3, [r7, r2]
    9250:	e2997004 	adds	r7, r9, #4
    9254:	e59b2030 	ldr	r2, [fp, #48]	@ 0x30
    9258:	e2a00000 	adc	r0, r0, #0
    925c:	e59b3034 	ldr	r3, [fp, #52]	@ 0x34
    9260:	e1520007 	cmp	r2, r7
    9264:	e0d31000 	sbcs	r1, r3, r0
    9268:	3afffd97 	bcc	88cc <w2c_0x24coremark0x2Ewasm_core_bench_list+0x214>
    926c:	e59b1010 	ldr	r1, [fp, #16]
    9270:	e7915009 	ldr	r5, [r1, r9]
    9274:	e1520004 	cmp	r2, r4
    9278:	e59d2020 	ldr	r2, [sp, #32]
    927c:	e0d33002 	sbcs	r3, r3, r2
    9280:	3afffd91 	bcc	88cc <w2c_0x24coremark0x2Ewasm_core_bench_list+0x214>
    9284:	e781500e 	str	r5, [r1, lr]
    9288:	e59b3030 	ldr	r3, [fp, #48]	@ 0x30
    928c:	e1530007 	cmp	r3, r7
    9290:	e59b3034 	ldr	r3, [fp, #52]	@ 0x34
    9294:	e0d33000 	sbcs	r3, r3, r0
    9298:	3afffd8b 	bcc	88cc <w2c_0x24coremark0x2Ewasm_core_bench_list+0x214>
    929c:	e59b3010 	ldr	r3, [fp, #16]
    92a0:	e783e009 	str	lr, [r3, r9]
    92a4:	e59b1030 	ldr	r1, [fp, #48]	@ 0x30
    92a8:	e59b3034 	ldr	r3, [fp, #52]	@ 0x34
    92ac:	eaffffc0 	b	91b4 <w2c_0x24coremark0x2Ewasm_core_bench_list+0xafc>
    92b0:	e1a05004 	mov	r5, r4
    92b4:	e1a0900e 	mov	r9, lr
    92b8:	e58d4008 	str	r4, [sp, #8]
    92bc:	eaffffd5 	b	9218 <w2c_0x24coremark0x2Ewasm_core_bench_list+0xb60>
    92c0:	e59d6020 	ldr	r6, [sp, #32]
    92c4:	e1a09004 	mov	r9, r4
    92c8:	eaffffc1 	b	91d4 <w2c_0x24coremark0x2Ewasm_core_bench_list+0xb1c>
    92cc:	e1a0c009 	mov	ip, r9
    92d0:	e1a09001 	mov	r9, r1
    92d4:	e2997004 	adds	r7, r9, #4
    92d8:	23a01001 	movcs	r1, #1
    92dc:	33a01000 	movcc	r1, #0
    92e0:	e1560007 	cmp	r6, r7
    92e4:	e0d51001 	sbcs	r1, r5, r1
    92e8:	3afffd77 	bcc	88cc <w2c_0x24coremark0x2Ewasm_core_bench_list+0x214>
    92ec:	e780c009 	str	ip, [r0, r9]
    92f0:	e1a0900c 	mov	r9, ip
    92f4:	e59b6030 	ldr	r6, [fp, #48]	@ 0x30
    92f8:	e59b5034 	ldr	r5, [fp, #52]	@ 0x34
    92fc:	eafffef6 	b	8edc <w2c_0x24coremark0x2Ewasm_core_bench_list+0x824>
    9300:	e3a02000 	mov	r2, #0
    9304:	e59de000 	ldr	lr, [sp]
    9308:	e1a03004 	mov	r3, r4
    930c:	e1a00002 	mov	r0, r2
    9310:	ea000006 	b	9330 <w2c_0x24coremark0x2Ewasm_core_bench_list+0xc78>
    9314:	e59b1010 	ldr	r1, [fp, #16]
    9318:	e7913003 	ldr	r3, [r1, r3]
    931c:	e2822001 	add	r2, r2, #1
    9320:	e3530000 	cmp	r3, #0
    9324:	0afffeea 	beq	8ed4 <w2c_0x24coremark0x2Ewasm_core_bench_list+0x81c>
    9328:	e15e0002 	cmp	lr, r2
    932c:	0afffee8 	beq	8ed4 <w2c_0x24coremark0x2Ewasm_core_bench_list+0x81c>
    9330:	e293c004 	adds	ip, r3, #4
    9334:	e2a01000 	adc	r1, r0, #0
    9338:	e156000c 	cmp	r6, ip
    933c:	e0d51001 	sbcs	r1, r5, r1
    9340:	2afffff3 	bcs	9314 <w2c_0x24coremark0x2Ewasm_core_bench_list+0xc5c>
    9344:	eafffd60 	b	88cc <w2c_0x24coremark0x2Ewasm_core_bench_list+0x214>
    9348:	e1a01009 	mov	r1, r9
    934c:	e1a0c002 	mov	ip, r2
    9350:	e293e004 	adds	lr, r3, #4
    9354:	e1a09003 	mov	r9, r3
    9358:	e2ac0000 	adc	r0, ip, #0
    935c:	e156000e 	cmp	r6, lr
    9360:	e0d50000 	sbcs	r0, r5, r0
    9364:	3afffd58 	bcc	88cc <w2c_0x24coremark0x2Ewasm_core_bench_list+0x214>
    9368:	e59b0010 	ldr	r0, [fp, #16]
    936c:	e24aa001 	sub	sl, sl, #1
    9370:	e7903003 	ldr	r3, [r0, r3]
    9374:	e3510000 	cmp	r1, #0
    9378:	1affffd3 	bne	92cc <w2c_0x24coremark0x2Ewasm_core_bench_list+0xc14>
    937c:	e35a0000 	cmp	sl, #0
    9380:	0a00006e 	beq	9540 <w2c_0x24coremark0x2Ewasm_core_bench_list+0xe88>
    9384:	e3530000 	cmp	r3, #0
    9388:	e1a01009 	mov	r1, r9
    938c:	e58d9004 	str	r9, [sp, #4]
    9390:	1affffee 	bne	9350 <w2c_0x24coremark0x2Ewasm_core_bench_list+0xc98>
    9394:	e59d7008 	ldr	r7, [sp, #8]
    9398:	e1a04009 	mov	r4, r9
    939c:	e59da000 	ldr	sl, [sp]
    93a0:	ea00000e 	b	93e0 <w2c_0x24coremark0x2Ewasm_core_bench_list+0xd28>
    93a4:	e3a0000a 	mov	r0, #10
    93a8:	ebfffffe 	bl	0 <wasm_rt_trap>
    93ac:	e293c004 	adds	ip, r3, #4
    93b0:	e2ae1000 	adc	r1, lr, #0
    93b4:	e156000c 	cmp	r6, ip
    93b8:	e0d51001 	sbcs	r1, r5, r1
    93bc:	3afffd42 	bcc	88cc <w2c_0x24coremark0x2Ewasm_core_bench_list+0x214>
    93c0:	e7901003 	ldr	r1, [r0, r3]
    93c4:	e24aa001 	sub	sl, sl, #1
    93c8:	e1a0c003 	mov	ip, r3
    93cc:	e1a03001 	mov	r3, r1
    93d0:	eaffff16 	b	9030 <w2c_0x24coremark0x2Ewasm_core_bench_list+0x978>
    93d4:	e59d7008 	ldr	r7, [sp, #8]
    93d8:	e59da000 	ldr	sl, [sp]
    93dc:	e59d4004 	ldr	r4, [sp, #4]
    93e0:	e2991004 	adds	r1, r9, #4
    93e4:	e3a03000 	mov	r3, #0
    93e8:	e2a32000 	adc	r2, r3, #0
    93ec:	e1560001 	cmp	r6, r1
    93f0:	e0d52002 	sbcs	r2, r5, r2
    93f4:	3afffd34 	bcc	88cc <w2c_0x24coremark0x2Ewasm_core_bench_list+0x214>
    93f8:	e59b2010 	ldr	r2, [fp, #16]
    93fc:	e1a0a08a 	lsl	sl, sl, #1
    9400:	e1570003 	cmp	r7, r3
    9404:	e7823009 	str	r3, [r2, r9]
    9408:	1afffea6 	bne	8ea8 <w2c_0x24coremark0x2Ewasm_core_bench_list+0x7f0>
    940c:	e1a02004 	mov	r2, r4
    9410:	e1a03007 	mov	r3, r7
    9414:	e28b0010 	add	r0, fp, #16
    9418:	e1a09004 	mov	r9, r4
    941c:	ebffdaf7 	bl	0 <i32_load_default32>
    9420:	e2504000 	subs	r4, r0, #0
    9424:	0a000032 	beq	94f4 <w2c_0x24coremark0x2Ewasm_core_bench_list+0xe3c>
    9428:	e59d101c 	ldr	r1, [sp, #28]
    942c:	e1a06007 	mov	r6, r7
    9430:	e59d5010 	ldr	r5, [sp, #16]
    9434:	e1a02007 	mov	r2, r7
    9438:	e59ba030 	ldr	sl, [fp, #48]	@ 0x30
    943c:	e2990008 	adds	r0, r9, #8
    9440:	e59b8034 	ldr	r8, [fp, #52]	@ 0x34
    9444:	e2a23000 	adc	r3, r2, #0
    9448:	e15a0000 	cmp	sl, r0
    944c:	e0d83003 	sbcs	r3, r8, r3
    9450:	3afffd1d 	bcc	88cc <w2c_0x24coremark0x2Ewasm_core_bench_list+0x214>
    9454:	e59b7010 	ldr	r7, [fp, #16]
    9458:	e0873009 	add	r3, r7, r9
    945c:	e5933004 	ldr	r3, [r3, #4]
    9460:	e293c002 	adds	ip, r3, #2
    9464:	e2a60000 	adc	r0, r6, #0
    9468:	e15a000c 	cmp	sl, ip
    946c:	e0d80000 	sbcs	r0, r8, r0
    9470:	3afffd15 	bcc	88cc <w2c_0x24coremark0x2Ewasm_core_bench_list+0x214>
    9474:	e19700f3 	ldrsh	r0, [r7, r3]
    9478:	e59f30e4 	ldr	r3, [pc, #228]	@ 9564 <w2c_0x24coremark0x2Ewasm_core_bench_list+0xeac>
    947c:	e59fc0e4 	ldr	ip, [pc, #228]	@ 9568 <w2c_0x24coremark0x2Ewasm_core_bench_list+0xeb0>
    9480:	e79f3003 	ldr	r3, [pc, r3]
    9484:	e79fc00c 	ldr	ip, [pc, ip]
    9488:	e7953003 	ldr	r3, [r5, r3]
    948c:	e2833001 	add	r3, r3, #1
    9490:	e785300c 	str	r3, [r5, ip]
    9494:	e3530f7d 	cmp	r3, #500	@ 0x1f4
    9498:	8affffc1 	bhi	93a4 <w2c_0x24coremark0x2Ewasm_core_bench_list+0xcec>
    949c:	e6ff1071 	uxth	r1, r1
    94a0:	e6ff0070 	uxth	r0, r0
    94a4:	e58d2000 	str	r2, [sp]
    94a8:	ebffdb0c 	bl	e0 <w2c_0x24coremark0x2Ewasm_crcu16.isra.0>
    94ac:	e59f30b8 	ldr	r3, [pc, #184]	@ 956c <w2c_0x24coremark0x2Ewasm_core_bench_list+0xeb4>
    94b0:	e1a01000 	mov	r1, r0
    94b4:	e79f3003 	ldr	r3, [pc, r3]
    94b8:	e7950003 	ldr	r0, [r5, r3]
    94bc:	e59f30ac 	ldr	r3, [pc, #172]	@ 9570 <w2c_0x24coremark0x2Ewasm_core_bench_list+0xeb8>
    94c0:	e2400001 	sub	r0, r0, #1
    94c4:	e79f3003 	ldr	r3, [pc, r3]
    94c8:	e7850003 	str	r0, [r5, r3]
    94cc:	e2940004 	adds	r0, r4, #4
    94d0:	e2a63000 	adc	r3, r6, #0
    94d4:	e15a0000 	cmp	sl, r0
    94d8:	e0d83003 	sbcs	r3, r8, r3
    94dc:	3afffcfa 	bcc	88cc <w2c_0x24coremark0x2Ewasm_core_bench_list+0x214>
    94e0:	e7974004 	ldr	r4, [r7, r4]
    94e4:	e59d2000 	ldr	r2, [sp]
    94e8:	e3540000 	cmp	r4, #0
    94ec:	1affffd1 	bne	9438 <w2c_0x24coremark0x2Ewasm_core_bench_list+0xd80>
    94f0:	e58d101c 	str	r1, [sp, #28]
    94f4:	e59f2078 	ldr	r2, [pc, #120]	@ 9574 <w2c_0x24coremark0x2Ewasm_core_bench_list+0xebc>
    94f8:	e59f3078 	ldr	r3, [pc, #120]	@ 9578 <w2c_0x24coremark0x2Ewasm_core_bench_list+0xec0>
    94fc:	e59d1010 	ldr	r1, [sp, #16]
    9500:	e1dd01bc 	ldrh	r0, [sp, #28]
    9504:	e79f2002 	ldr	r2, [pc, r2]
    9508:	e79f3003 	ldr	r3, [pc, r3]
    950c:	e7912002 	ldr	r2, [r1, r2]
    9510:	e2422001 	sub	r2, r2, #1
    9514:	e7812003 	str	r2, [r1, r3]
    9518:	e28dd02c 	add	sp, sp, #44	@ 0x2c
    951c:	e8bd8ff0 	pop	{r4, r5, r6, r7, r8, r9, sl, fp, pc}
    9520:	e99d0090 	ldmib	sp, {r4, r7}
    9524:	e3530000 	cmp	r3, #0
    9528:	158d4004 	strne	r4, [sp, #4]
    952c:	12877001 	addne	r7, r7, #1
    9530:	11a04003 	movne	r4, r3
    9534:	1afffe61 	bne	8ec0 <w2c_0x24coremark0x2Ewasm_core_bench_list+0x808>
    9538:	e59da000 	ldr	sl, [sp]
    953c:	eaffffa7 	b	93e0 <w2c_0x24coremark0x2Ewasm_core_bench_list+0xd28>
    9540:	e59d7008 	ldr	r7, [sp, #8]
    9544:	e1a04009 	mov	r4, r9
    9548:	eafffff5 	b	9524 <w2c_0x24coremark0x2Ewasm_core_bench_list+0xe6c>
    954c:	00000e6c 	.word	0x00000e6c
    9550:	00000e6c 	.word	0x00000e6c
    9554:	00000810 	.word	0x00000810
    9558:	00000810 	.word	0x00000810
    955c:	000007e8 	.word	0x000007e8
    9560:	000007dc 	.word	0x000007dc
    9564:	000000dc 	.word	0x000000dc
    9568:	000000dc 	.word	0x000000dc
    956c:	000000b0 	.word	0x000000b0
    9570:	000000a4 	.word	0x000000a4
    9574:	00000068 	.word	0x00000068
    9578:	00000068 	.word	0x00000068

0000957c <w2c_0x24coremark0x2Ewasm_iterate.isra.0>:
    957c:	e59f3218 	ldr	r3, [pc, #536]	@ 979c <w2c_0x24coremark0x2Ewasm_iterate.isra.0+0x220>
    9580:	e92d4ff0 	push	{r4, r5, r6, r7, r8, r9, sl, fp, lr}
    9584:	ee1d9f70 	mrc	15, 0, r9, cr13, cr0, {3}
    9588:	e24dd014 	sub	sp, sp, #20
    958c:	e79f3003 	ldr	r3, [pc, r3]
    9590:	e7992003 	ldr	r2, [r9, r3]
    9594:	e59f3204 	ldr	r3, [pc, #516]	@ 97a0 <w2c_0x24coremark0x2Ewasm_iterate.isra.0+0x224>
    9598:	e282c001 	add	ip, r2, #1
    959c:	e35c0f7d 	cmp	ip, #500	@ 0x1f4
    95a0:	e79f3003 	ldr	r3, [pc, r3]
    95a4:	e789c003 	str	ip, [r9, r3]
    95a8:	8a000079 	bhi	9794 <w2c_0x24coremark0x2Ewasm_iterate.isra.0+0x218>
    95ac:	e5907030 	ldr	r7, [r0, #48]	@ 0x30
    95b0:	e291e040 	adds	lr, r1, #64	@ 0x40
    95b4:	e5903034 	ldr	r3, [r0, #52]	@ 0x34
    95b8:	e3a06000 	mov	r6, #0
    95bc:	e2a6c000 	adc	ip, r6, #0
    95c0:	e157000e 	cmp	r7, lr
    95c4:	e1a04000 	mov	r4, r0
    95c8:	e1a05001 	mov	r5, r1
    95cc:	e0d3300c 	sbcs	r3, r3, ip
    95d0:	3a000068 	bcc	9778 <w2c_0x24coremark0x2Ewasm_iterate.isra.0+0x1fc>
    95d4:	e5903010 	ldr	r3, [r0, #16]
    95d8:	e2817038 	add	r7, r1, #56	@ 0x38
    95dc:	e7836007 	str	r6, [r3, r7]
    95e0:	e0833007 	add	r3, r3, r7
    95e4:	e5836004 	str	r6, [r3, #4]
    95e8:	e2913020 	adds	r3, r1, #32
    95ec:	e2a6c000 	adc	ip, r6, #0
    95f0:	e590e030 	ldr	lr, [r0, #48]	@ 0x30
    95f4:	e15e0003 	cmp	lr, r3
    95f8:	e5903034 	ldr	r3, [r0, #52]	@ 0x34
    95fc:	e0d3300c 	sbcs	r3, r3, ip
    9600:	3a00005c 	bcc	9778 <w2c_0x24coremark0x2Ewasm_iterate.isra.0+0x1fc>
    9604:	e5903010 	ldr	r3, [r0, #16]
    9608:	e0833001 	add	r3, r3, r1
    960c:	e593801c 	ldr	r8, [r3, #28]
    9610:	e3580000 	cmp	r8, #0
    9614:	1a000004 	bne	962c <w2c_0x24coremark0x2Ewasm_iterate.isra.0+0xb0>
    9618:	e59f3184 	ldr	r3, [pc, #388]	@ 97a4 <w2c_0x24coremark0x2Ewasm_iterate.isra.0+0x228>
    961c:	e79f3003 	ldr	r3, [pc, r3]
    9620:	e7892003 	str	r2, [r9, r3]
    9624:	e28dd014 	add	sp, sp, #20
    9628:	e8bd8ff0 	pop	{r4, r5, r6, r7, r8, r9, sl, fp, pc}
    962c:	e3a02001 	mov	r2, #1
    9630:	ebfffc20 	bl	86b8 <w2c_0x24coremark0x2Ewasm_core_bench_list>
    9634:	e5942030 	ldr	r2, [r4, #48]	@ 0x30
    9638:	e295a03a 	adds	sl, r5, #58	@ 0x3a
    963c:	e5943034 	ldr	r3, [r4, #52]	@ 0x34
    9640:	e2a6b000 	adc	fp, r6, #0
    9644:	e152000a 	cmp	r2, sl
    9648:	e0d3300b 	sbcs	r3, r3, fp
    964c:	3a000049 	bcc	9778 <w2c_0x24coremark0x2Ewasm_iterate.isra.0+0x1fc>
    9650:	e5943010 	ldr	r3, [r4, #16]
    9654:	e58d3004 	str	r3, [sp, #4]
    9658:	e19310b7 	ldrh	r1, [r3, r7]
    965c:	ebffda9f 	bl	e0 <w2c_0x24coremark0x2Ewasm_crcu16.isra.0>
    9660:	e59d3004 	ldr	r3, [sp, #4]
    9664:	e1a01005 	mov	r1, r5
    9668:	e3e02000 	mvn	r2, #0
    966c:	e18300b7 	strh	r0, [r3, r7]
    9670:	e1a00004 	mov	r0, r4
    9674:	ebfffc0f 	bl	86b8 <w2c_0x24coremark0x2Ewasm_core_bench_list>
    9678:	e5942030 	ldr	r2, [r4, #48]	@ 0x30
    967c:	e5943034 	ldr	r3, [r4, #52]	@ 0x34
    9680:	e152000a 	cmp	r2, sl
    9684:	e0d3100b 	sbcs	r1, r3, fp
    9688:	3a00003a 	bcc	9778 <w2c_0x24coremark0x2Ewasm_iterate.isra.0+0x1fc>
    968c:	e5941010 	ldr	r1, [r4, #16]
    9690:	e58d1004 	str	r1, [sp, #4]
    9694:	e19110b7 	ldrh	r1, [r1, r7]
    9698:	e58d3008 	str	r3, [sp, #8]
    969c:	e58d200c 	str	r2, [sp, #12]
    96a0:	ebffda8e 	bl	e0 <w2c_0x24coremark0x2Ewasm_crcu16.isra.0>
    96a4:	e59d200c 	ldr	r2, [sp, #12]
    96a8:	e295103c 	adds	r1, r5, #60	@ 0x3c
    96ac:	e59d3008 	ldr	r3, [sp, #8]
    96b0:	e2a66000 	adc	r6, r6, #0
    96b4:	e1520001 	cmp	r2, r1
    96b8:	e0d36006 	sbcs	r6, r3, r6
    96bc:	3a00002d 	bcc	9778 <w2c_0x24coremark0x2Ewasm_iterate.isra.0+0x1fc>
    96c0:	e59d1004 	ldr	r1, [sp, #4]
    96c4:	e0813005 	add	r3, r1, r5
    96c8:	e1c303ba 	strh	r0, [r3, #58]	@ 0x3a
    96cc:	e5943030 	ldr	r3, [r4, #48]	@ 0x30
    96d0:	e153000a 	cmp	r3, sl
    96d4:	e5943034 	ldr	r3, [r4, #52]	@ 0x34
    96d8:	e0d3300b 	sbcs	r3, r3, fp
    96dc:	3a000025 	bcc	9778 <w2c_0x24coremark0x2Ewasm_iterate.isra.0+0x1fc>
    96e0:	e5943010 	ldr	r3, [r4, #16]
    96e4:	e3580001 	cmp	r8, #1
    96e8:	12488001 	subne	r8, r8, #1
    96ec:	e18300b7 	strh	r0, [r3, r7]
    96f0:	0a000022 	beq	9780 <w2c_0x24coremark0x2Ewasm_iterate.isra.0+0x204>
    96f4:	e3a02001 	mov	r2, #1
    96f8:	e1a01005 	mov	r1, r5
    96fc:	e1a00004 	mov	r0, r4
    9700:	ebfffbec 	bl	86b8 <w2c_0x24coremark0x2Ewasm_core_bench_list>
    9704:	e5943030 	ldr	r3, [r4, #48]	@ 0x30
    9708:	e153000a 	cmp	r3, sl
    970c:	e5943034 	ldr	r3, [r4, #52]	@ 0x34
    9710:	e0d3300b 	sbcs	r3, r3, fp
    9714:	3a000017 	bcc	9778 <w2c_0x24coremark0x2Ewasm_iterate.isra.0+0x1fc>
    9718:	e5946010 	ldr	r6, [r4, #16]
    971c:	e19610b7 	ldrh	r1, [r6, r7]
    9720:	ebffda6e 	bl	e0 <w2c_0x24coremark0x2Ewasm_crcu16.isra.0>
    9724:	e1a01005 	mov	r1, r5
    9728:	e18600b7 	strh	r0, [r6, r7]
    972c:	e3e02000 	mvn	r2, #0
    9730:	e1a00004 	mov	r0, r4
    9734:	ebfffbdf 	bl	86b8 <w2c_0x24coremark0x2Ewasm_core_bench_list>
    9738:	e5943030 	ldr	r3, [r4, #48]	@ 0x30
    973c:	e153000a 	cmp	r3, sl
    9740:	e5943034 	ldr	r3, [r4, #52]	@ 0x34
    9744:	e0d3300b 	sbcs	r3, r3, fp
    9748:	3a00000a 	bcc	9778 <w2c_0x24coremark0x2Ewasm_iterate.isra.0+0x1fc>
    974c:	e5946010 	ldr	r6, [r4, #16]
    9750:	e19610b7 	ldrh	r1, [r6, r7]
    9754:	ebffda61 	bl	e0 <w2c_0x24coremark0x2Ewasm_crcu16.isra.0>
    9758:	e2588001 	subs	r8, r8, #1
    975c:	e18600b7 	strh	r0, [r6, r7]
    9760:	1affffe3 	bne	96f4 <w2c_0x24coremark0x2Ewasm_iterate.isra.0+0x178>
    9764:	e59f303c 	ldr	r3, [pc, #60]	@ 97a8 <w2c_0x24coremark0x2Ewasm_iterate.isra.0+0x22c>
    9768:	e79f3003 	ldr	r3, [pc, r3]
    976c:	e7992003 	ldr	r2, [r9, r3]
    9770:	e2422001 	sub	r2, r2, #1
    9774:	eaffffa7 	b	9618 <w2c_0x24coremark0x2Ewasm_iterate.isra.0+0x9c>
    9778:	e3a00001 	mov	r0, #1
    977c:	ebfffffe 	bl	0 <wasm_rt_trap>
    9780:	e59f3024 	ldr	r3, [pc, #36]	@ 97ac <w2c_0x24coremark0x2Ewasm_iterate.isra.0+0x230>
    9784:	e79f3003 	ldr	r3, [pc, r3]
    9788:	e7992003 	ldr	r2, [r9, r3]
    978c:	e2422001 	sub	r2, r2, #1
    9790:	eaffffa0 	b	9618 <w2c_0x24coremark0x2Ewasm_iterate.isra.0+0x9c>
    9794:	e3a0000a 	mov	r0, #10
    9798:	ebfffffe 	bl	0 <wasm_rt_trap>
    979c:	00000208 	.word	0x00000208
    97a0:	000001f8 	.word	0x000001f8
    97a4:	00000180 	.word	0x00000180
    97a8:	00000038 	.word	0x00000038
    97ac:	00000020 	.word	0x00000020

000097b0 <w2c_0x24coremark0x2Ewasm_memory>:
    97b0:	e2800010 	add	r0, r0, #16
    97b4:	e12fff1e 	bx	lr

000097b8 <w2c_0x24coremark0x2Ewasm_0x5Fstart>:
    97b8:	e92d4ff0 	push	{r4, r5, r6, r7, r8, r9, sl, fp, lr}
    97bc:	ee1d1f70 	mrc	15, 0, r1, cr13, cr0, {3}
    97c0:	e59f3ee0 	ldr	r3, [pc, #3808]	@ a6a8 <w2c_0x24coremark0x2Ewasm_0x5Fstart+0xef0>
    97c4:	e24dd09c 	sub	sp, sp, #156	@ 0x9c
    97c8:	e59f2edc 	ldr	r2, [pc, #3804]	@ a6ac <w2c_0x24coremark0x2Ewasm_0x5Fstart+0xef4>
    97cc:	e58d1000 	str	r1, [sp]
    97d0:	e79f3003 	ldr	r3, [pc, r3]
    97d4:	e79f2002 	ldr	r2, [pc, r2]
    97d8:	e7913003 	ldr	r3, [r1, r3]
    97dc:	e2833001 	add	r3, r3, #1
    97e0:	e7813002 	str	r3, [r1, r2]
    97e4:	e3530f7d 	cmp	r3, #500	@ 0x1f4
    97e8:	8a0008f0 	bhi	bbb0 <w2c_0x24coremark0x2Ewasm_0x5Fstart+0x23f8>
    97ec:	e5903008 	ldr	r3, [r0, #8]
    97f0:	e1a04000 	mov	r4, r0
    97f4:	e5900030 	ldr	r0, [r0, #48]	@ 0x30
    97f8:	e2833e99 	add	r3, r3, #2448	@ 0x990
    97fc:	e2932004 	adds	r2, r3, #4
    9800:	23a01001 	movcs	r1, #1
    9804:	33a01000 	movcc	r1, #0
    9808:	e1500002 	cmp	r0, r2
    980c:	e5942034 	ldr	r2, [r4, #52]	@ 0x34
    9810:	e0d22001 	sbcs	r2, r2, r1
    9814:	3a000083 	bcc	9a28 <w2c_0x24coremark0x2Ewasm_0x5Fstart+0x270>
    9818:	e5941010 	ldr	r1, [r4, #16]
    981c:	e7912003 	ldr	r2, [r1, r3]
    9820:	e3520000 	cmp	r2, #0
    9824:	1a00097a 	bne	be14 <w2c_0x24coremark0x2Ewasm_0x5Fstart+0x265c>
    9828:	e3a02001 	mov	r2, #1
    982c:	e7812003 	str	r2, [r1, r3]
    9830:	e59f3e78 	ldr	r3, [pc, #3704]	@ a6b0 <w2c_0x24coremark0x2Ewasm_0x5Fstart+0xef8>
    9834:	e59f2e78 	ldr	r2, [pc, #3704]	@ a6b4 <w2c_0x24coremark0x2Ewasm_0x5Fstart+0xefc>
    9838:	e59d5000 	ldr	r5, [sp]
    983c:	e79f3003 	ldr	r3, [pc, r3]
    9840:	e79f2002 	ldr	r2, [pc, r2]
    9844:	e7953003 	ldr	r3, [r5, r3]
    9848:	e2831001 	add	r1, r3, #1
    984c:	e7851002 	str	r1, [r5, r2]
    9850:	e3510f7d 	cmp	r1, #500	@ 0x1f4
    9854:	8a0008d5 	bhi	bbb0 <w2c_0x24coremark0x2Ewasm_0x5Fstart+0x23f8>
    9858:	e5941004 	ldr	r1, [r4, #4]
    985c:	e2833002 	add	r3, r3, #2
    9860:	e59f2e50 	ldr	r2, [pc, #3664]	@ a6b8 <w2c_0x24coremark0x2Ewasm_0x5Fstart+0xf00>
    9864:	e2416010 	sub	r6, r1, #16
    9868:	e58d1028 	str	r1, [sp, #40]	@ 0x28
    986c:	e5846004 	str	r6, [r4, #4]
    9870:	e79f2002 	ldr	r2, [pc, r2]
    9874:	e7853002 	str	r3, [r5, r2]
    9878:	e30021f5 	movw	r2, #501	@ 0x1f5
    987c:	e1530002 	cmp	r3, r2
    9880:	0a0008ca 	beq	bbb0 <w2c_0x24coremark0x2Ewasm_0x5Fstart+0x23f8>
    9884:	e241b004 	sub	fp, r1, #4
    9888:	e2417008 	sub	r7, r1, #8
    988c:	e1a0200b 	mov	r2, fp
    9890:	e1a01007 	mov	r1, r7
    9894:	e5940000 	ldr	r0, [r4]
    9898:	ebfffffe 	bl	0 <w2c_wasi__snapshot__preview1_args_sizes_get>
    989c:	e59f3e18 	ldr	r3, [pc, #3608]	@ a6bc <w2c_0x24coremark0x2Ewasm_0x5Fstart+0xf04>
    98a0:	e6ff0070 	uxth	r0, r0
    98a4:	e3500000 	cmp	r0, #0
    98a8:	e79f3003 	ldr	r3, [pc, r3]
    98ac:	e7952003 	ldr	r2, [r5, r3]
    98b0:	e59f3e08 	ldr	r3, [pc, #3592]	@ a6c0 <w2c_0x24coremark0x2Ewasm_0x5Fstart+0xf08>
    98b4:	e2421001 	sub	r1, r2, #1
    98b8:	e79f3003 	ldr	r3, [pc, r3]
    98bc:	e7851003 	str	r1, [r5, r3]
    98c0:	1a000903 	bne	bcd4 <w2c_0x24coremark0x2Ewasm_0x5Fstart+0x251c>
    98c4:	e594c030 	ldr	ip, [r4, #48]	@ 0x30
    98c8:	e296a00c 	adds	sl, r6, #12
    98cc:	e5941034 	ldr	r1, [r4, #52]	@ 0x34
    98d0:	e2a08000 	adc	r8, r0, #0
    98d4:	e15c000a 	cmp	ip, sl
    98d8:	e0d13008 	sbcs	r3, r1, r8
    98dc:	3a000051 	bcc	9a28 <w2c_0x24coremark0x2Ewasm_0x5Fstart+0x270>
    98e0:	e594e010 	ldr	lr, [r4, #16]
    98e4:	e79e3007 	ldr	r3, [lr, r7]
    98e8:	e2933001 	adds	r3, r3, #1
    98ec:	0a000030 	beq	99b4 <w2c_0x24coremark0x2Ewasm_0x5Fstart+0x1fc>
    98f0:	e2966010 	adds	r6, r6, #16
    98f4:	e2a00000 	adc	r0, r0, #0
    98f8:	e15c0006 	cmp	ip, r6
    98fc:	e0d10000 	sbcs	r0, r1, r0
    9900:	3a000048 	bcc	9a28 <w2c_0x24coremark0x2Ewasm_0x5Fstart+0x270>
    9904:	e79e100b 	ldr	r1, [lr, fp]
    9908:	e59f0db4 	ldr	r0, [pc, #3508]	@ a6c4 <w2c_0x24coremark0x2Ewasm_0x5Fstart+0xf0c>
    990c:	e3520f7d 	cmp	r2, #500	@ 0x1f4
    9910:	e59d6000 	ldr	r6, [sp]
    9914:	e79f0000 	ldr	r0, [pc, r0]
    9918:	e7862000 	str	r2, [r6, r0]
    991c:	8a0008a3 	bhi	bbb0 <w2c_0x24coremark0x2Ewasm_0x5Fstart+0x23f8>
    9920:	e1a00004 	mov	r0, r4
    9924:	e58d3004 	str	r3, [sp, #4]
    9928:	ebffe66b 	bl	32dc <w2c_0x24coremark0x2Ewasm_dlmalloc>
    992c:	e59f2d94 	ldr	r2, [pc, #3476]	@ a6c8 <w2c_0x24coremark0x2Ewasm_0x5Fstart+0xf10>
    9930:	e59d3004 	ldr	r3, [sp, #4]
    9934:	e2505000 	subs	r5, r0, #0
    9938:	e79f2002 	ldr	r2, [pc, r2]
    993c:	e7962002 	ldr	r2, [r6, r2]
    9940:	0a00093c 	beq	be38 <w2c_0x24coremark0x2Ewasm_0x5Fstart+0x2680>
    9944:	e3520f7d 	cmp	r2, #500	@ 0x1f4
    9948:	8a000898 	bhi	bbb0 <w2c_0x24coremark0x2Ewasm_0x5Fstart+0x23f8>
    994c:	e0936003 	adds	r6, r3, r3
    9950:	e3833004 	orr	r3, r3, #4
    9954:	23a02001 	movcs	r2, #1
    9958:	33a02000 	movcc	r2, #0
    995c:	e0966006 	adds	r6, r6, r6
    9960:	e0a22002 	adc	r2, r2, r2
    9964:	e3530801 	cmp	r3, #65536	@ 0x10000
    9968:	3a000001 	bcc	9974 <w2c_0x24coremark0x2Ewasm_0x5Fstart+0x1bc>
    996c:	e3520000 	cmp	r2, #0
    9970:	13e06000 	mvnne	r6, #0
    9974:	e1a01006 	mov	r1, r6
    9978:	e1a00004 	mov	r0, r4
    997c:	ebffe656 	bl	32dc <w2c_0x24coremark0x2Ewasm_dlmalloc>
    9980:	e250b000 	subs	fp, r0, #0
    9984:	1a000029 	bne	9a30 <w2c_0x24coremark0x2Ewasm_0x5Fstart+0x278>
    9988:	e59f2d3c 	ldr	r2, [pc, #3388]	@ a6cc <w2c_0x24coremark0x2Ewasm_0x5Fstart+0xf14>
    998c:	e1a01005 	mov	r1, r5
    9990:	e59f3d38 	ldr	r3, [pc, #3384]	@ a6d0 <w2c_0x24coremark0x2Ewasm_0x5Fstart+0xf18>
    9994:	e59d0000 	ldr	r0, [sp]
    9998:	e79f2002 	ldr	r2, [pc, r2]
    999c:	e79f3003 	ldr	r3, [pc, r3]
    99a0:	e7902002 	ldr	r2, [r0, r2]
    99a4:	e2422001 	sub	r2, r2, #1
    99a8:	e7802003 	str	r2, [r0, r3]
    99ac:	e1a00004 	mov	r0, r4
    99b0:	ebffe195 	bl	200c <w2c_0x24coremark0x2Ewasm_free>
    99b4:	e3a01046 	mov	r1, #70	@ 0x46
    99b8:	e1a00004 	mov	r0, r4
    99bc:	ebffd9a9 	bl	68 <w2c_0x24coremark0x2Ewasm_0x5FExit>
    99c0:	e59d5044 	ldr	r5, [sp, #68]	@ 0x44
    99c4:	e3550001 	cmp	r5, #1
    99c8:	1a0000e3 	bne	9d5c <w2c_0x24coremark0x2Ewasm_0x5Fstart+0x5a4>
    99cc:	e19cc00e 	orrs	ip, ip, lr
    99d0:	1a0000e1 	bne	9d5c <w2c_0x24coremark0x2Ewasm_0x5Fstart+0x5a4>
    99d4:	e3032415 	movw	r2, #13333	@ 0x3415
    99d8:	e58d2044 	str	r2, [sp, #68]	@ 0x44
    99dc:	e59d1024 	ldr	r1, [sp, #36]	@ 0x24
    99e0:	e3a02066 	mov	r2, #102	@ 0x66
    99e4:	e18020b1 	strh	r2, [r0, r1]
    99e8:	e59d1038 	ldr	r1, [sp, #56]	@ 0x38
    99ec:	e5942030 	ldr	r2, [r4, #48]	@ 0x30
    99f0:	e1520001 	cmp	r2, r1
    99f4:	e5942034 	ldr	r2, [r4, #52]	@ 0x34
    99f8:	e59d103c 	ldr	r1, [sp, #60]	@ 0x3c
    99fc:	e0d22001 	sbcs	r2, r2, r1
    9a00:	3a000008 	bcc	9a28 <w2c_0x24coremark0x2Ewasm_0x5Fstart+0x270>
    9a04:	e5942010 	ldr	r2, [r4, #16]
    9a08:	e59d0010 	ldr	r0, [sp, #16]
    9a0c:	e59d1044 	ldr	r1, [sp, #68]	@ 0x44
    9a10:	e18210b0 	strh	r1, [r2, r0]
    9a14:	e5942030 	ldr	r2, [r4, #48]	@ 0x30
    9a18:	e152000a 	cmp	r2, sl
    9a1c:	e5942034 	ldr	r2, [r4, #52]	@ 0x34
    9a20:	e0d22009 	sbcs	r2, r2, r9
    9a24:	2a0001bf 	bcs	a128 <w2c_0x24coremark0x2Ewasm_0x5Fstart+0x970>
    9a28:	e3a00001 	mov	r0, #1
    9a2c:	ebfffffe 	bl	0 <wasm_rt_trap>
    9a30:	e594e030 	ldr	lr, [r4, #48]	@ 0x30
    9a34:	e24b2004 	sub	r2, fp, #4
    9a38:	e292c001 	adds	ip, r2, #1
    9a3c:	e5941034 	ldr	r1, [r4, #52]	@ 0x34
    9a40:	23a00001 	movcs	r0, #1
    9a44:	33a00000 	movcc	r0, #0
    9a48:	e15e000c 	cmp	lr, ip
    9a4c:	e0d11000 	sbcs	r1, r1, r0
    9a50:	3afffff4 	bcc	9a28 <w2c_0x24coremark0x2Ewasm_0x5Fstart+0x270>
    9a54:	e5941010 	ldr	r1, [r4, #16]
    9a58:	e7d12002 	ldrb	r2, [r1, r2]
    9a5c:	e3120003 	tst	r2, #3
    9a60:	1a0001a7 	bne	a104 <w2c_0x24coremark0x2Ewasm_0x5Fstart+0x94c>
    9a64:	e59f2c68 	ldr	r2, [pc, #3176]	@ a6d4 <w2c_0x24coremark0x2Ewasm_0x5Fstart+0xf1c>
    9a68:	e59d3000 	ldr	r3, [sp]
    9a6c:	e79f2002 	ldr	r2, [pc, r2]
    9a70:	e7931002 	ldr	r1, [r3, r2]
    9a74:	e59f2c5c 	ldr	r2, [pc, #3164]	@ a6d8 <w2c_0x24coremark0x2Ewasm_0x5Fstart+0xf20>
    9a78:	e3510f7d 	cmp	r1, #500	@ 0x1f4
    9a7c:	e59d6000 	ldr	r6, [sp]
    9a80:	e79f2002 	ldr	r2, [pc, r2]
    9a84:	e7861002 	str	r1, [r6, r2]
    9a88:	8a000848 	bhi	bbb0 <w2c_0x24coremark0x2Ewasm_0x5Fstart+0x23f8>
    9a8c:	e1a02005 	mov	r2, r5
    9a90:	e1a0100b 	mov	r1, fp
    9a94:	e5940000 	ldr	r0, [r4]
    9a98:	ebfffffe 	bl	0 <w2c_wasi__snapshot__preview1_args_get>
    9a9c:	e59f2c38 	ldr	r2, [pc, #3128]	@ a6dc <w2c_0x24coremark0x2Ewasm_0x5Fstart+0xf24>
    9aa0:	e6ff3070 	uxth	r3, r0
    9aa4:	e58d3004 	str	r3, [sp, #4]
    9aa8:	e3530000 	cmp	r3, #0
    9aac:	e79f2002 	ldr	r2, [pc, r2]
    9ab0:	e7961002 	ldr	r1, [r6, r2]
    9ab4:	e59f2c24 	ldr	r2, [pc, #3108]	@ a6e0 <w2c_0x24coremark0x2Ewasm_0x5Fstart+0xf28>
    9ab8:	e2410001 	sub	r0, r1, #1
    9abc:	e79f2002 	ldr	r2, [pc, r2]
    9ac0:	e7860002 	str	r0, [r6, r2]
    9ac4:	1a00087c 	bne	bcbc <w2c_0x24coremark0x2Ewasm_0x5Fstart+0x2504>
    9ac8:	e594c030 	ldr	ip, [r4, #48]	@ 0x30
    9acc:	e5940034 	ldr	r0, [r4, #52]	@ 0x34
    9ad0:	e15c000a 	cmp	ip, sl
    9ad4:	e0d08008 	sbcs	r8, r0, r8
    9ad8:	3affffd2 	bcc	9a28 <w2c_0x24coremark0x2Ewasm_0x5Fstart+0x270>
    9adc:	e5943010 	ldr	r3, [r4, #16]
    9ae0:	e793e007 	ldr	lr, [r3, r7]
    9ae4:	e59f2bf8 	ldr	r2, [pc, #3064]	@ a6e4 <w2c_0x24coremark0x2Ewasm_0x5Fstart+0xf2c>
    9ae8:	e3510f7d 	cmp	r1, #500	@ 0x1f4
    9aec:	e59d8000 	ldr	r8, [sp]
    9af0:	e79f2002 	ldr	r2, [pc, r2]
    9af4:	e7881002 	str	r1, [r8, r2]
    9af8:	8a00082c 	bhi	bbb0 <w2c_0x24coremark0x2Ewasm_0x5Fstart+0x23f8>
    9afc:	e5945004 	ldr	r5, [r4, #4]
    9b00:	e59d7004 	ldr	r7, [sp, #4]
    9b04:	e2456d25 	sub	r6, r5, #2368	@ 0x940
    9b08:	e58d5008 	str	r5, [sp, #8]
    9b0c:	e2961d25 	adds	r1, r6, #2368	@ 0x940
    9b10:	e58d6014 	str	r6, [sp, #20]
    9b14:	e2a72000 	adc	r2, r7, #0
    9b18:	e15c0001 	cmp	ip, r1
    9b1c:	e0d02002 	sbcs	r2, r0, r2
    9b20:	e5846004 	str	r6, [r4, #4]
    9b24:	3affffbf 	bcc	9a28 <w2c_0x24coremark0x2Ewasm_0x5Fstart+0x270>
    9b28:	e0833005 	add	r3, r3, r5
    9b2c:	e59f2bb4 	ldr	r2, [pc, #2996]	@ a6e8 <w2c_0x24coremark0x2Ewasm_0x5Fstart+0xf30>
    9b30:	e503e004 	str	lr, [r3, #-4]
    9b34:	e59f3bb0 	ldr	r3, [pc, #2992]	@ a6ec <w2c_0x24coremark0x2Ewasm_0x5Fstart+0xf34>
    9b38:	e79f2002 	ldr	r2, [pc, r2]
    9b3c:	e79f3003 	ldr	r3, [pc, r3]
    9b40:	e7983003 	ldr	r3, [r8, r3]
    9b44:	e2833001 	add	r3, r3, #1
    9b48:	e7883002 	str	r3, [r8, r2]
    9b4c:	e3530f7d 	cmp	r3, #500	@ 0x1f4
    9b50:	8a000816 	bhi	bbb0 <w2c_0x24coremark0x2Ewasm_0x5Fstart+0x23f8>
    9b54:	e245c00e 	sub	ip, r5, #14
    9b58:	e5942030 	ldr	r2, [r4, #48]	@ 0x30
    9b5c:	e29c1001 	adds	r1, ip, #1
    9b60:	e5943034 	ldr	r3, [r4, #52]	@ 0x34
    9b64:	e2a7e000 	adc	lr, r7, #0
    9b68:	e1520001 	cmp	r2, r1
    9b6c:	e0d3300e 	sbcs	r3, r3, lr
    9b70:	e58dc02c 	str	ip, [sp, #44]	@ 0x2c
    9b74:	e58d1030 	str	r1, [sp, #48]	@ 0x30
    9b78:	e58de034 	str	lr, [sp, #52]	@ 0x34
    9b7c:	3affffa9 	bcc	9a28 <w2c_0x24coremark0x2Ewasm_0x5Fstart+0x270>
    9b80:	e5942010 	ldr	r2, [r4, #16]
    9b84:	e3a01001 	mov	r1, #1
    9b88:	e59f3b60 	ldr	r3, [pc, #2912]	@ a6f0 <w2c_0x24coremark0x2Ewasm_0x5Fstart+0xf38>
    9b8c:	e1a00004 	mov	r0, r4
    9b90:	e7c2100c 	strb	r1, [r2, ip]
    9b94:	e79f3003 	ldr	r3, [pc, r3]
    9b98:	e7982003 	ldr	r2, [r8, r3]
    9b9c:	e59f3b50 	ldr	r3, [pc, #2896]	@ a6f4 <w2c_0x24coremark0x2Ewasm_0x5Fstart+0xf3c>
    9ba0:	e2422001 	sub	r2, r2, #1
    9ba4:	e79f3003 	ldr	r3, [pc, r3]
    9ba8:	e7882003 	str	r2, [r8, r3]
    9bac:	ebffda0d 	bl	3e8 <w2c_0x24coremark0x2Ewasm_get_seed_32>
    9bb0:	e5941030 	ldr	r1, [r4, #48]	@ 0x30
    9bb4:	e30028f2 	movw	r2, #2290	@ 0x8f2
    9bb8:	e5943034 	ldr	r3, [r4, #52]	@ 0x34
    9bbc:	e096a002 	adds	sl, r6, r2
    9bc0:	e0a79007 	adc	r9, r7, r7
    9bc4:	e151000a 	cmp	r1, sl
    9bc8:	e0d33009 	sbcs	r3, r3, r9
    9bcc:	3affff95 	bcc	9a28 <w2c_0x24coremark0x2Ewasm_0x5Fstart+0x270>
    9bd0:	e2452050 	sub	r2, r5, #80	@ 0x50
    9bd4:	e5943010 	ldr	r3, [r4, #16]
    9bd8:	e3a01002 	mov	r1, #2
    9bdc:	e58d200c 	str	r2, [sp, #12]
    9be0:	e18300b2 	strh	r0, [r3, r2]
    9be4:	e1a00004 	mov	r0, r4
    9be8:	ebffd9fe 	bl	3e8 <w2c_0x24coremark0x2Ewasm_get_seed_32>
    9bec:	e5941030 	ldr	r1, [r4, #48]	@ 0x30
    9bf0:	e5943034 	ldr	r3, [r4, #52]	@ 0x34
    9bf4:	e30028f4 	movw	r2, #2292	@ 0x8f4
    9bf8:	e0968002 	adds	r8, r6, r2
    9bfc:	e58d8038 	str	r8, [sp, #56]	@ 0x38
    9c00:	e0a7b007 	adc	fp, r7, r7
    9c04:	e1510008 	cmp	r1, r8
    9c08:	e0d3300b 	sbcs	r3, r3, fp
    9c0c:	e58db03c 	str	fp, [sp, #60]	@ 0x3c
    9c10:	3affff84 	bcc	9a28 <w2c_0x24coremark0x2Ewasm_0x5Fstart+0x270>
    9c14:	e5943010 	ldr	r3, [r4, #16]
    9c18:	e245104e 	sub	r1, r5, #78	@ 0x4e
    9c1c:	e58d1010 	str	r1, [sp, #16]
    9c20:	e18300b1 	strh	r0, [r3, r1]
    9c24:	e3a01003 	mov	r1, #3
    9c28:	e1a00004 	mov	r0, r4
    9c2c:	ebffd9ed 	bl	3e8 <w2c_0x24coremark0x2Ewasm_get_seed_32>
    9c30:	e5941030 	ldr	r1, [r4, #48]	@ 0x30
    9c34:	e5943034 	ldr	r3, [r4, #52]	@ 0x34
    9c38:	e30028f6 	movw	r2, #2294	@ 0x8f6
    9c3c:	e096c002 	adds	ip, r6, r2
    9c40:	e58dc018 	str	ip, [sp, #24]
    9c44:	e0a7e007 	adc	lr, r7, r7
    9c48:	e151000c 	cmp	r1, ip
    9c4c:	e0d3300e 	sbcs	r3, r3, lr
    9c50:	e58de020 	str	lr, [sp, #32]
    9c54:	3affff73 	bcc	9a28 <w2c_0x24coremark0x2Ewasm_0x5Fstart+0x270>
    9c58:	e5943010 	ldr	r3, [r4, #16]
    9c5c:	e245104c 	sub	r1, r5, #76	@ 0x4c
    9c60:	e58d1024 	str	r1, [sp, #36]	@ 0x24
    9c64:	e18300b1 	strh	r0, [r3, r1]
    9c68:	e3a01004 	mov	r1, #4
    9c6c:	e1a00004 	mov	r0, r4
    9c70:	ebffd9dc 	bl	3e8 <w2c_0x24coremark0x2Ewasm_get_seed_32>
    9c74:	e2963e91 	adds	r3, r6, #2320	@ 0x910
    9c78:	e5942030 	ldr	r2, [r4, #48]	@ 0x30
    9c7c:	e1a0c003 	mov	ip, r3
    9c80:	e58d3048 	str	r3, [sp, #72]	@ 0x48
    9c84:	e2a7e000 	adc	lr, r7, #0
    9c88:	e5943034 	ldr	r3, [r4, #52]	@ 0x34
    9c8c:	e152000c 	cmp	r2, ip
    9c90:	e58de04c 	str	lr, [sp, #76]	@ 0x4c
    9c94:	e0d3300e 	sbcs	r3, r3, lr
    9c98:	3affff62 	bcc	9a28 <w2c_0x24coremark0x2Ewasm_0x5Fstart+0x270>
    9c9c:	e2452034 	sub	r2, r5, #52	@ 0x34
    9ca0:	e5943010 	ldr	r3, [r4, #16]
    9ca4:	e3a01005 	mov	r1, #5
    9ca8:	e58d2050 	str	r2, [sp, #80]	@ 0x50
    9cac:	e7830002 	str	r0, [r3, r2]
    9cb0:	e1a00004 	mov	r0, r4
    9cb4:	ebffd9cb 	bl	3e8 <w2c_0x24coremark0x2Ewasm_get_seed_32>
    9cb8:	e2503000 	subs	r3, r0, #0
    9cbc:	e5940030 	ldr	r0, [r4, #48]	@ 0x30
    9cc0:	03a03007 	moveq	r3, #7
    9cc4:	e5942034 	ldr	r2, [r4, #52]	@ 0x34
    9cc8:	e3001914 	movw	r1, #2324	@ 0x914
    9ccc:	e0966001 	adds	r6, r6, r1
    9cd0:	e58d6054 	str	r6, [sp, #84]	@ 0x54
    9cd4:	e2a77000 	adc	r7, r7, #0
    9cd8:	e1500006 	cmp	r0, r6
    9cdc:	e0d22007 	sbcs	r2, r2, r7
    9ce0:	e58d7058 	str	r7, [sp, #88]	@ 0x58
    9ce4:	3affff4f 	bcc	9a28 <w2c_0x24coremark0x2Ewasm_0x5Fstart+0x270>
    9ce8:	e2450030 	sub	r0, r5, #48	@ 0x30
    9cec:	e5942010 	ldr	r2, [r4, #16]
    9cf0:	e59dc018 	ldr	ip, [sp, #24]
    9cf4:	e59de020 	ldr	lr, [sp, #32]
    9cf8:	e7823000 	str	r3, [r2, r0]
    9cfc:	e58d005c 	str	r0, [sp, #92]	@ 0x5c
    9d00:	e5941030 	ldr	r1, [r4, #48]	@ 0x30
    9d04:	e5942034 	ldr	r2, [r4, #52]	@ 0x34
    9d08:	e151000c 	cmp	r1, ip
    9d0c:	e0d2000e 	sbcs	r0, r2, lr
    9d10:	3affff44 	bcc	9a28 <w2c_0x24coremark0x2Ewasm_0x5Fstart+0x270>
    9d14:	e5940010 	ldr	r0, [r4, #16]
    9d18:	e59de024 	ldr	lr, [sp, #36]	@ 0x24
    9d1c:	e190e0be 	ldrh	lr, [r0, lr]
    9d20:	e1510008 	cmp	r1, r8
    9d24:	e0d2c00b 	sbcs	ip, r2, fp
    9d28:	3affff3e 	bcc	9a28 <w2c_0x24coremark0x2Ewasm_0x5Fstart+0x270>
    9d2c:	e59dc010 	ldr	ip, [sp, #16]
    9d30:	e190c0bc 	ldrh	ip, [r0, ip]
    9d34:	e151000a 	cmp	r1, sl
    9d38:	e0d26009 	sbcs	r6, r2, r9
    9d3c:	3affff39 	bcc	9a28 <w2c_0x24coremark0x2Ewasm_0x5Fstart+0x270>
    9d40:	e59d500c 	ldr	r5, [sp, #12]
    9d44:	e19050b5 	ldrh	r5, [r0, r5]
    9d48:	e3550000 	cmp	r5, #0
    9d4c:	e58d5044 	str	r5, [sp, #68]	@ 0x44
    9d50:	1affff1a 	bne	99c0 <w2c_0x24coremark0x2Ewasm_0x5Fstart+0x208>
    9d54:	e19cc00e 	orrs	ip, ip, lr
    9d58:	0affff1f 	beq	99dc <w2c_0x24coremark0x2Ewasm_0x5Fstart+0x224>
    9d5c:	e59dc014 	ldr	ip, [sp, #20]
    9d60:	e3000932 	movw	r0, #2354	@ 0x932
    9d64:	e09c0000 	adds	r0, ip, r0
    9d68:	e59dc004 	ldr	ip, [sp, #4]
    9d6c:	e58d0064 	str	r0, [sp, #100]	@ 0x64
    9d70:	e2acc000 	adc	ip, ip, #0
    9d74:	e1510000 	cmp	r1, r0
    9d78:	e0d2200c 	sbcs	r2, r2, ip
    9d7c:	e58dc068 	str	ip, [sp, #104]	@ 0x68
    9d80:	3affff28 	bcc	9a28 <w2c_0x24coremark0x2Ewasm_0x5Fstart+0x270>
    9d84:	e59d2008 	ldr	r2, [sp, #8]
    9d88:	e2031004 	and	r1, r3, #4
    9d8c:	e5940010 	ldr	r0, [r4, #16]
    9d90:	e1a0b001 	mov	fp, r1
    9d94:	e242e010 	sub	lr, r2, #16
    9d98:	e2032002 	and	r2, r3, #2
    9d9c:	e1a01121 	lsr	r1, r1, #2
    9da0:	e2033001 	and	r3, r3, #1
    9da4:	e08110a2 	add	r1, r1, r2, lsr #1
    9da8:	e3a0c000 	mov	ip, #0
    9dac:	e0911003 	adds	r1, r1, r3
    9db0:	e58de078 	str	lr, [sp, #120]	@ 0x78
    9db4:	e180c0be 	strh	ip, [r0, lr]
    9db8:	0a00053f 	beq	b2bc <w2c_0x24coremark0x2Ewasm_0x5Fstart+0x1b04>
    9dbc:	e59d6014 	ldr	r6, [sp, #20]
    9dc0:	e300c90c 	movw	ip, #2316	@ 0x90c
    9dc4:	e594e030 	ldr	lr, [r4, #48]	@ 0x30
    9dc8:	e59d7004 	ldr	r7, [sp, #4]
    9dcc:	e096c00c 	adds	ip, r6, ip
    9dd0:	e5940034 	ldr	r0, [r4, #52]	@ 0x34
    9dd4:	e2a75000 	adc	r5, r7, #0
    9dd8:	e15e000c 	cmp	lr, ip
    9ddc:	e0d00005 	sbcs	r0, r0, r5
    9de0:	e58dc06c 	str	ip, [sp, #108]	@ 0x6c
    9de4:	e58d5070 	str	r5, [sp, #112]	@ 0x70
    9de8:	3affff0e 	bcc	9a28 <w2c_0x24coremark0x2Ewasm_0x5Fstart+0x270>
    9dec:	e3a00e7d 	mov	r0, #2000	@ 0x7d0
    9df0:	e58d3040 	str	r3, [sp, #64]	@ 0x40
    9df4:	e58d2060 	str	r2, [sp, #96]	@ 0x60
    9df8:	ebfffffe 	bl	0 <__aeabi_uidiv>
    9dfc:	e59d2008 	ldr	r2, [sp, #8]
    9e00:	e5941010 	ldr	r1, [r4, #16]
    9e04:	e2423038 	sub	r3, r2, #56	@ 0x38
    9e08:	e58d3074 	str	r3, [sp, #116]	@ 0x74
    9e0c:	e7810003 	str	r0, [r1, r3]
    9e10:	e30018fc 	movw	r1, #2300	@ 0x8fc
    9e14:	e0961001 	adds	r1, r6, r1
    9e18:	e5943030 	ldr	r3, [r4, #48]	@ 0x30
    9e1c:	e2a7c000 	adc	ip, r7, #0
    9e20:	e594e034 	ldr	lr, [r4, #52]	@ 0x34
    9e24:	e1530001 	cmp	r3, r1
    9e28:	e0dec00c 	sbcs	ip, lr, ip
    9e2c:	3afffefd 	bcc	9a28 <w2c_0x24coremark0x2Ewasm_0x5Fstart+0x270>
    9e30:	e594c010 	ldr	ip, [r4, #16]
    9e34:	e2421e82 	sub	r1, r2, #2080	@ 0x820
    9e38:	e59d3040 	ldr	r3, [sp, #64]	@ 0x40
    9e3c:	e08cc002 	add	ip, ip, r2
    9e40:	e3530000 	cmp	r3, #0
    9e44:	e50c1048 	str	r1, [ip, #-72]	@ 0xffffffb8
    9e48:	e5942030 	ldr	r2, [r4, #48]	@ 0x30
    9e4c:	e58d2040 	str	r2, [sp, #64]	@ 0x40
    9e50:	e594c034 	ldr	ip, [r4, #52]	@ 0x34
    9e54:	e59d2060 	ldr	r2, [sp, #96]	@ 0x60
    9e58:	0a000172 	beq	a428 <w2c_0x24coremark0x2Ewasm_0x5Fstart+0xc70>
    9e5c:	e59de014 	ldr	lr, [sp, #20]
    9e60:	e59d6040 	ldr	r6, [sp, #64]	@ 0x40
    9e64:	e29e5c09 	adds	r5, lr, #2304	@ 0x900
    9e68:	e59de004 	ldr	lr, [sp, #4]
    9e6c:	e1a07005 	mov	r7, r5
    9e70:	e2aee000 	adc	lr, lr, #0
    9e74:	e1560005 	cmp	r6, r5
    9e78:	e0dcc00e 	sbcs	ip, ip, lr
    9e7c:	3afffee9 	bcc	9a28 <w2c_0x24coremark0x2Ewasm_0x5Fstart+0x270>
    9e80:	e594c010 	ldr	ip, [r4, #16]
    9e84:	e3520000 	cmp	r2, #0
    9e88:	e59d5008 	ldr	r5, [sp, #8]
    9e8c:	e08cc005 	add	ip, ip, r5
    9e90:	e50c1044 	str	r1, [ip, #-68]	@ 0xffffffbc
    9e94:	0a0000a9 	beq	a140 <w2c_0x24coremark0x2Ewasm_0x5Fstart+0x988>
    9e98:	e594c034 	ldr	ip, [r4, #52]	@ 0x34
    9e9c:	e5942030 	ldr	r2, [r4, #48]	@ 0x30
    9ea0:	e58d2040 	str	r2, [sp, #64]	@ 0x40
    9ea4:	e0802001 	add	r2, r0, r1
    9ea8:	e58d2060 	str	r2, [sp, #96]	@ 0x60
    9eac:	e59d6008 	ldr	r6, [sp, #8]
    9eb0:	e3a05000 	mov	r5, #0
    9eb4:	e59d8040 	ldr	r8, [sp, #64]	@ 0x40
    9eb8:	e2462040 	sub	r2, r6, #64	@ 0x40
    9ebc:	e2927004 	adds	r7, r2, #4
    9ec0:	e2a5e000 	adc	lr, r5, #0
    9ec4:	e1580007 	cmp	r8, r7
    9ec8:	e0dce00e 	sbcs	lr, ip, lr
    9ecc:	3afffed5 	bcc	9a28 <w2c_0x24coremark0x2Ewasm_0x5Fstart+0x270>
    9ed0:	e594e010 	ldr	lr, [r4, #16]
    9ed4:	e15b0005 	cmp	fp, r5
    9ed8:	e59dc060 	ldr	ip, [sp, #96]	@ 0x60
    9edc:	e78ec002 	str	ip, [lr, r2]
    9ee0:	0a0001e8 	beq	a688 <w2c_0x24coremark0x2Ewasm_0x5Fstart+0xed0>
    9ee4:	e246203c 	sub	r2, r6, #60	@ 0x3c
    9ee8:	e292e004 	adds	lr, r2, #4
    9eec:	e2a5c000 	adc	ip, r5, #0
    9ef0:	e5945030 	ldr	r5, [r4, #48]	@ 0x30
    9ef4:	e155000e 	cmp	r5, lr
    9ef8:	e594e034 	ldr	lr, [r4, #52]	@ 0x34
    9efc:	e0dee00c 	sbcs	lr, lr, ip
    9f00:	3afffec8 	bcc	9a28 <w2c_0x24coremark0x2Ewasm_0x5Fstart+0x270>
    9f04:	e3530000 	cmp	r3, #0
    9f08:	e0230093 	mla	r3, r3, r0, r0
    9f0c:	e0813003 	add	r3, r1, r3
    9f10:	e5941010 	ldr	r1, [r4, #16]
    9f14:	e7813002 	str	r3, [r1, r2]
    9f18:	1a0001dc 	bne	a690 <w2c_0x24coremark0x2Ewasm_0x5Fstart+0xed8>
    9f1c:	e594c034 	ldr	ip, [r4, #52]	@ 0x34
    9f20:	e5943030 	ldr	r3, [r4, #48]	@ 0x30
    9f24:	e58d3040 	str	r3, [sp, #64]	@ 0x40
    9f28:	e59d306c 	ldr	r3, [sp, #108]	@ 0x6c
    9f2c:	e1a0200c 	mov	r2, ip
    9f30:	e59de040 	ldr	lr, [sp, #64]	@ 0x40
    9f34:	e15e0003 	cmp	lr, r3
    9f38:	e59d3070 	ldr	r3, [sp, #112]	@ 0x70
    9f3c:	e0dc3003 	sbcs	r3, ip, r3
    9f40:	3afffeb8 	bcc	9a28 <w2c_0x24coremark0x2Ewasm_0x5Fstart+0x270>
    9f44:	e594c010 	ldr	ip, [r4, #16]
    9f48:	e59d3074 	ldr	r3, [sp, #116]	@ 0x74
    9f4c:	e79c1003 	ldr	r1, [ip, r3]
    9f50:	e59d3008 	ldr	r3, [sp, #8]
    9f54:	e2433040 	sub	r3, r3, #64	@ 0x40
    9f58:	e2930004 	adds	r0, r3, #4
    9f5c:	e1a05000 	mov	r5, r0
    9f60:	23a00001 	movcs	r0, #1
    9f64:	33a00000 	movcc	r0, #0
    9f68:	e15e0005 	cmp	lr, r5
    9f6c:	e0d20000 	sbcs	r0, r2, r0
    9f70:	3afffeac 	bcc	9a28 <w2c_0x24coremark0x2Ewasm_0x5Fstart+0x270>
    9f74:	e79c0003 	ldr	r0, [ip, r3]
    9f78:	e59d3038 	ldr	r3, [sp, #56]	@ 0x38
    9f7c:	e15e0003 	cmp	lr, r3
    9f80:	e59d303c 	ldr	r3, [sp, #60]	@ 0x3c
    9f84:	e0d23003 	sbcs	r3, r2, r3
    9f88:	3afffea6 	bcc	9a28 <w2c_0x24coremark0x2Ewasm_0x5Fstart+0x270>
    9f8c:	e59d3010 	ldr	r3, [sp, #16]
    9f90:	e19c50b3 	ldrh	r5, [ip, r3]
    9f94:	e15e000a 	cmp	lr, sl
    9f98:	e0d23009 	sbcs	r3, r2, r9
    9f9c:	3afffea1 	bcc	9a28 <w2c_0x24coremark0x2Ewasm_0x5Fstart+0x270>
    9fa0:	e59d300c 	ldr	r3, [sp, #12]
    9fa4:	e19c30f3 	ldrsh	r3, [ip, r3]
    9fa8:	e1a07003 	mov	r7, r3
    9fac:	e59fc744 	ldr	ip, [pc, #1860]	@ a6f8 <w2c_0x24coremark0x2Ewasm_0x5Fstart+0xf40>
    9fb0:	e59f3744 	ldr	r3, [pc, #1860]	@ a6fc <w2c_0x24coremark0x2Ewasm_0x5Fstart+0xf44>
    9fb4:	e59d6000 	ldr	r6, [sp]
    9fb8:	e79fc00c 	ldr	ip, [pc, ip]
    9fbc:	e79f3003 	ldr	r3, [pc, r3]
    9fc0:	e796c00c 	ldr	ip, [r6, ip]
    9fc4:	e28cc001 	add	ip, ip, #1
    9fc8:	e786c003 	str	ip, [r6, r3]
    9fcc:	e35c0f7d 	cmp	ip, #500	@ 0x1f4
    9fd0:	8a0006f6 	bhi	bbb0 <w2c_0x24coremark0x2Ewasm_0x5Fstart+0x23f8>
    9fd4:	e2400001 	sub	r0, r0, #1
    9fd8:	e3510000 	cmp	r1, #0
    9fdc:	e3c03003 	bic	r3, r0, #3
    9fe0:	13a00001 	movne	r0, #1
    9fe4:	e58d3040 	str	r3, [sp, #64]	@ 0x40
    9fe8:	e2833004 	add	r3, r3, #4
    9fec:	e58d3060 	str	r3, [sp, #96]	@ 0x60
    9ff0:	0a0004f4 	beq	b3c8 <w2c_0x24coremark0x2Ewasm_0x5Fstart+0x1c10>
    9ff4:	e0030090 	mul	r3, r0, r0
    9ff8:	e1a0c000 	mov	ip, r0
    9ffc:	e2800001 	add	r0, r0, #1
    a000:	e1510183 	cmp	r1, r3, lsl #3
    a004:	8afffffa 	bhi	9ff4 <w2c_0x24coremark0x2Ewasm_0x5Fstart+0x83c>
    a008:	e24cb001 	sub	fp, ip, #1
    a00c:	e59d3060 	ldr	r3, [sp, #96]	@ 0x60
    a010:	e35b0000 	cmp	fp, #0
    a014:	e0060b9b 	mul	r6, fp, fp
    a018:	e0833086 	add	r3, r3, r6, lsl #1
    a01c:	e58d3044 	str	r3, [sp, #68]	@ 0x44
    a020:	0a0004f0 	beq	b3e8 <w2c_0x24coremark0x2Ewasm_0x5Fstart+0x1c30>
    a024:	e1a0308b 	lsl	r3, fp, #1
    a028:	e58d3084 	str	r3, [sp, #132]	@ 0x84
    a02c:	e1873805 	orr	r3, r7, r5, lsl #16
    a030:	e59d1044 	ldr	r1, [sp, #68]	@ 0x44
    a034:	e3a00000 	mov	r0, #0
    a038:	e3530001 	cmp	r3, #1
    a03c:	e58da08c 	str	sl, [sp, #140]	@ 0x8c
    a040:	33a03001 	movcc	r3, #1
    a044:	e58d9090 	str	r9, [sp, #144]	@ 0x90
    a048:	e1a0c000 	mov	ip, r0
    a04c:	e1a0a001 	mov	sl, r1
    a050:	e3a09001 	mov	r9, #1
    a054:	e58d007c 	str	r0, [sp, #124]	@ 0x7c
    a058:	e58d6088 	str	r6, [sp, #136]	@ 0x88
    a05c:	e59d1040 	ldr	r1, [sp, #64]	@ 0x40
    a060:	e1a00089 	lsl	r0, r9, #1
    a064:	e3a06000 	mov	r6, #0
    a068:	e04a8000 	sub	r8, sl, r0
    a06c:	e2817004 	add	r7, r1, #4
    a070:	e58da080 	str	sl, [sp, #128]	@ 0x80
    a074:	e0477000 	sub	r7, r7, r0
    a078:	e0801008 	add	r1, r0, r8
    a07c:	e291a002 	adds	sl, r1, #2
    a080:	e2ac5000 	adc	r5, ip, #0
    a084:	e15e000a 	cmp	lr, sl
    a088:	e0d22005 	sbcs	r2, r2, r5
    a08c:	3afffe65 	bcc	9a28 <w2c_0x24coremark0x2Ewasm_0x5Fstart+0x270>
    a090:	e089e006 	add	lr, r9, r6
    a094:	e594a010 	ldr	sl, [r4, #16]
    a098:	e0802007 	add	r2, r0, r7
    a09c:	e0030e93 	mul	r3, r3, lr
    a0a0:	e2735000 	rsbs	r5, r3, #0
    a0a4:	e6ff3073 	uxth	r3, r3
    a0a8:	e6ff5075 	uxth	r5, r5
    a0ac:	52653000 	rsbpl	r3, r5, #0
    a0b0:	e2925002 	adds	r5, r2, #2
    a0b4:	e08ee003 	add	lr, lr, r3
    a0b8:	e18ae0b1 	strh	lr, [sl, r1]
    a0bc:	e2ac1000 	adc	r1, ip, #0
    a0c0:	e594a030 	ldr	sl, [r4, #48]	@ 0x30
    a0c4:	e594e034 	ldr	lr, [r4, #52]	@ 0x34
    a0c8:	e15a0005 	cmp	sl, r5
    a0cc:	e0de1001 	sbcs	r1, lr, r1
    a0d0:	3afffe54 	bcc	9a28 <w2c_0x24coremark0x2Ewasm_0x5Fstart+0x270>
    a0d4:	e594e010 	ldr	lr, [r4, #16]
    a0d8:	e0831000 	add	r1, r3, r0
    a0dc:	e6ef1071 	uxtb	r1, r1
    a0e0:	e18e10b2 	strh	r1, [lr, r2]
    a0e4:	e2862001 	add	r2, r6, #1
    a0e8:	e15b0002 	cmp	fp, r2
    a0ec:	0a0006b1 	beq	bbb8 <w2c_0x24coremark0x2Ewasm_0x5Fstart+0x2400>
    a0f0:	e1a06002 	mov	r6, r2
    a0f4:	e594e030 	ldr	lr, [r4, #48]	@ 0x30
    a0f8:	e5942034 	ldr	r2, [r4, #52]	@ 0x34
    a0fc:	e2800002 	add	r0, r0, #2
    a100:	eaffffdc 	b	a078 <w2c_0x24coremark0x2Ewasm_0x5Fstart+0x8c0>
    a104:	e1a02006 	mov	r2, r6
    a108:	e1a0100b 	mov	r1, fp
    a10c:	e1a00004 	mov	r0, r4
    a110:	ebffdb28 	bl	db8 <w2c_0x24coremark0x2Ewasm_memset.constprop.0.isra.0>
    a114:	e59f25e4 	ldr	r2, [pc, #1508]	@ a700 <w2c_0x24coremark0x2Ewasm_0x5Fstart+0xf48>
    a118:	e59d3000 	ldr	r3, [sp]
    a11c:	e79f2002 	ldr	r2, [pc, r2]
    a120:	e7931002 	ldr	r1, [r3, r2]
    a124:	eafffe52 	b	9a74 <w2c_0x24coremark0x2Ewasm_0x5Fstart+0x2bc>
    a128:	e5942010 	ldr	r2, [r4, #16]
    a12c:	e59d000c 	ldr	r0, [sp, #12]
    a130:	e18210b0 	strh	r1, [r2, r0]
    a134:	e5941030 	ldr	r1, [r4, #48]	@ 0x30
    a138:	e5942034 	ldr	r2, [r4, #52]	@ 0x34
    a13c:	eaffff06 	b	9d5c <w2c_0x24coremark0x2Ewasm_0x5Fstart+0x5a4>
    a140:	e35b0000 	cmp	fp, #0
    a144:	0a00000b 	beq	a178 <w2c_0x24coremark0x2Ewasm_0x5Fstart+0x9c0>
    a148:	e59d3008 	ldr	r3, [sp, #8]
    a14c:	e5945030 	ldr	r5, [r4, #48]	@ 0x30
    a150:	e243303c 	sub	r3, r3, #60	@ 0x3c
    a154:	e293c004 	adds	ip, r3, #4
    a158:	e2a22000 	adc	r2, r2, #0
    a15c:	e155000c 	cmp	r5, ip
    a160:	e594c034 	ldr	ip, [r4, #52]	@ 0x34
    a164:	e0dcc002 	sbcs	ip, ip, r2
    a168:	3afffe2e 	bcc	9a28 <w2c_0x24coremark0x2Ewasm_0x5Fstart+0x270>
    a16c:	e5942010 	ldr	r2, [r4, #16]
    a170:	e0801001 	add	r1, r0, r1
    a174:	e7821003 	str	r1, [r2, r3]
    a178:	e5942030 	ldr	r2, [r4, #48]	@ 0x30
    a17c:	e5941034 	ldr	r1, [r4, #52]	@ 0x34
    a180:	e1520007 	cmp	r2, r7
    a184:	e0d1e00e 	sbcs	lr, r1, lr
    a188:	3afffe26 	bcc	9a28 <w2c_0x24coremark0x2Ewasm_0x5Fstart+0x270>
    a18c:	e5945010 	ldr	r5, [r4, #16]
    a190:	e59d3008 	ldr	r3, [sp, #8]
    a194:	e0853003 	add	r3, r5, r3
    a198:	e513e044 	ldr	lr, [r3, #-68]	@ 0xffffffbc
    a19c:	e59f3560 	ldr	r3, [pc, #1376]	@ a704 <w2c_0x24coremark0x2Ewasm_0x5Fstart+0xf4c>
    a1a0:	e59fc560 	ldr	ip, [pc, #1376]	@ a708 <w2c_0x24coremark0x2Ewasm_0x5Fstart+0xf50>
    a1a4:	e59d6000 	ldr	r6, [sp]
    a1a8:	e79f3003 	ldr	r3, [pc, r3]
    a1ac:	e79fc00c 	ldr	ip, [pc, ip]
    a1b0:	e7963003 	ldr	r3, [r6, r3]
    a1b4:	e2833001 	add	r3, r3, #1
    a1b8:	e786300c 	str	r3, [r6, ip]
    a1bc:	e3530f7d 	cmp	r3, #500	@ 0x1f4
    a1c0:	8a00067a 	bhi	bbb0 <w2c_0x24coremark0x2Ewasm_0x5Fstart+0x23f8>
    a1c4:	e29e7004 	adds	r7, lr, #4
    a1c8:	e3a03000 	mov	r3, #0
    a1cc:	e2a38000 	adc	r8, r3, #0
    a1d0:	e1520007 	cmp	r2, r7
    a1d4:	e0d11008 	sbcs	r1, r1, r8
    a1d8:	e58d7040 	str	r7, [sp, #64]	@ 0x40
    a1dc:	e58d8060 	str	r8, [sp, #96]	@ 0x60
    a1e0:	3afffe10 	bcc	9a28 <w2c_0x24coremark0x2Ewasm_0x5Fstart+0x270>
    a1e4:	e785300e 	str	r3, [r5, lr]
    a1e8:	e29ec008 	adds	ip, lr, #8
    a1ec:	e2a31000 	adc	r1, r3, #0
    a1f0:	e5942030 	ldr	r2, [r4, #48]	@ 0x30
    a1f4:	e152000c 	cmp	r2, ip
    a1f8:	e5942034 	ldr	r2, [r4, #52]	@ 0x34
    a1fc:	e0d22001 	sbcs	r2, r2, r1
    a200:	3afffe08 	bcc	9a28 <w2c_0x24coremark0x2Ewasm_0x5Fstart+0x270>
    a204:	e30c2ccd 	movw	r2, #52429	@ 0xcccd
    a208:	e34c2ccc 	movt	r2, #52428	@ 0xcccc
    a20c:	e0820092 	umull	r0, r2, r2, r0
    a210:	e1a02222 	lsr	r2, r2, #4
    a214:	e242b002 	sub	fp, r2, #2
    a218:	e5942010 	ldr	r2, [r4, #16]
    a21c:	e58db080 	str	fp, [sp, #128]	@ 0x80
    a220:	e082200e 	add	r2, r2, lr
    a224:	e08e618b 	add	r6, lr, fp, lsl #3
    a228:	e5826004 	str	r6, [r2, #4]
    a22c:	e2962004 	adds	r2, r6, #4
    a230:	e2a30000 	adc	r0, r3, #0
    a234:	e5941030 	ldr	r1, [r4, #48]	@ 0x30
    a238:	e1510002 	cmp	r1, r2
    a23c:	e5941034 	ldr	r1, [r4, #52]	@ 0x34
    a240:	e0d11000 	sbcs	r1, r1, r0
    a244:	3afffdf7 	bcc	9a28 <w2c_0x24coremark0x2Ewasm_0x5Fstart+0x270>
    a248:	e5941010 	ldr	r1, [r4, #16]
    a24c:	e3080080 	movw	r0, #32896	@ 0x8080
    a250:	e7810006 	str	r0, [r1, r6]
    a254:	e5941030 	ldr	r1, [r4, #48]	@ 0x30
    a258:	e1510007 	cmp	r1, r7
    a25c:	e5941034 	ldr	r1, [r4, #52]	@ 0x34
    a260:	e0d11008 	sbcs	r1, r1, r8
    a264:	3afffdef 	bcc	9a28 <w2c_0x24coremark0x2Ewasm_0x5Fstart+0x270>
    a268:	e5941010 	ldr	r1, [r4, #16]
    a26c:	e29e000c 	adds	r0, lr, #12
    a270:	e1a0800c 	mov	r8, ip
    a274:	e781c00e 	str	ip, [r1, lr]
    a278:	e2a3c000 	adc	ip, r3, #0
    a27c:	e5941030 	ldr	r1, [r4, #48]	@ 0x30
    a280:	e1510000 	cmp	r1, r0
    a284:	e5941034 	ldr	r1, [r4, #52]	@ 0x34
    a288:	e0d1100c 	sbcs	r1, r1, ip
    a28c:	3afffde5 	bcc	9a28 <w2c_0x24coremark0x2Ewasm_0x5Fstart+0x270>
    a290:	e5941010 	ldr	r1, [r4, #16]
    a294:	e7813008 	str	r3, [r1, r8]
    a298:	e2961008 	adds	r1, r6, #8
    a29c:	e2a3c000 	adc	ip, r3, #0
    a2a0:	e5945030 	ldr	r5, [r4, #48]	@ 0x30
    a2a4:	e1550001 	cmp	r5, r1
    a2a8:	e5945034 	ldr	r5, [r4, #52]	@ 0x34
    a2ac:	e0d5c00c 	sbcs	ip, r5, ip
    a2b0:	3afffddc 	bcc	9a28 <w2c_0x24coremark0x2Ewasm_0x5Fstart+0x270>
    a2b4:	e5945010 	ldr	r5, [r4, #16]
    a2b8:	e3e0c102 	mvn	ip, #-2147483648	@ 0x80000000
    a2bc:	e2900004 	adds	r0, r0, #4
    a2c0:	e785c002 	str	ip, [r5, r2]
    a2c4:	e2a3c000 	adc	ip, r3, #0
    a2c8:	e5945030 	ldr	r5, [r4, #48]	@ 0x30
    a2cc:	e1550000 	cmp	r5, r0
    a2d0:	e5940034 	ldr	r0, [r4, #52]	@ 0x34
    a2d4:	e0d0000c 	sbcs	r0, r0, ip
    a2d8:	3afffdd2 	bcc	9a28 <w2c_0x24coremark0x2Ewasm_0x5Fstart+0x270>
    a2dc:	e1dd04f4 	ldrsh	r0, [sp, #68]	@ 0x44
    a2e0:	e1a07003 	mov	r7, r3
    a2e4:	e58d007c 	str	r0, [sp, #124]	@ 0x7c
    a2e8:	e5940010 	ldr	r0, [r4, #16]
    a2ec:	e58da084 	str	sl, [sp, #132]	@ 0x84
    a2f0:	e080000e 	add	r0, r0, lr
    a2f4:	e58de044 	str	lr, [sp, #68]	@ 0x44
    a2f8:	e58d9088 	str	r9, [sp, #136]	@ 0x88
    a2fc:	e580200c 	str	r2, [r0, #12]
    a300:	e1a0000b 	mov	r0, fp
    a304:	e28e2010 	add	r2, lr, #16
    a308:	e086b10b 	add	fp, r6, fp, lsl #2
    a30c:	e1a0a000 	mov	sl, r0
    a310:	ea000036 	b	a3f0 <w2c_0x24coremark0x2Ewasm_0x5Fstart+0xc38>
    a314:	e2925008 	adds	r5, r2, #8
    a318:	e5945010 	ldr	r5, [r4, #16]
    a31c:	e7858002 	str	r8, [r5, r2]
    a320:	e2a78000 	adc	r8, r7, #0
    a324:	e5945030 	ldr	r5, [r4, #48]	@ 0x30
    a328:	e1550000 	cmp	r5, r0
    a32c:	e5945034 	ldr	r5, [r4, #52]	@ 0x34
    a330:	e0d55008 	sbcs	r5, r5, r8
    a334:	3afffdbb 	bcc	9a28 <w2c_0x24coremark0x2Ewasm_0x5Fstart+0x270>
    a338:	e2915004 	adds	r5, r1, #4
    a33c:	e5945010 	ldr	r5, [r4, #16]
    a340:	e2a78000 	adc	r8, r7, #0
    a344:	e0855002 	add	r5, r5, r2
    a348:	e5851004 	str	r1, [r5, #4]
    a34c:	e5945030 	ldr	r5, [r4, #48]	@ 0x30
    a350:	e155000c 	cmp	r5, ip
    a354:	e5945034 	ldr	r5, [r4, #52]	@ 0x34
    a358:	e0d55008 	sbcs	r5, r5, r8
    a35c:	3afffdb1 	bcc	9a28 <w2c_0x24coremark0x2Ewasm_0x5Fstart+0x270>
    a360:	e5945010 	ldr	r5, [r4, #16]
    a364:	e3e0e902 	mvn	lr, #32768	@ 0x8000
    a368:	e2918002 	adds	r8, r1, #2
    a36c:	e0855001 	add	r5, r5, r1
    a370:	e1c5e0b2 	strh	lr, [r5, #2]
    a374:	e2a75000 	adc	r5, r7, #0
    a378:	e5949030 	ldr	r9, [r4, #48]	@ 0x30
    a37c:	e1590008 	cmp	r9, r8
    a380:	e5948034 	ldr	r8, [r4, #52]	@ 0x34
    a384:	e0d88005 	sbcs	r8, r8, r5
    a388:	3afffda6 	bcc	9a28 <w2c_0x24coremark0x2Ewasm_0x5Fstart+0x270>
    a38c:	e59de07c 	ldr	lr, [sp, #124]	@ 0x7c
    a390:	e2035007 	and	r5, r3, #7
    a394:	e5949010 	ldr	r9, [r4, #16]
    a398:	e02e8003 	eor	r8, lr, r3
    a39c:	e59de040 	ldr	lr, [sp, #64]	@ 0x40
    a3a0:	e1a08188 	lsl	r8, r8, #3
    a3a4:	e2088078 	and	r8, r8, #120	@ 0x78
    a3a8:	e1855008 	orr	r5, r5, r8
    a3ac:	e0855405 	add	r5, r5, r5, lsl #8
    a3b0:	e18950b1 	strh	r5, [r9, r1]
    a3b4:	e5941030 	ldr	r1, [r4, #48]	@ 0x30
    a3b8:	e151000e 	cmp	r1, lr
    a3bc:	e5941034 	ldr	r1, [r4, #52]	@ 0x34
    a3c0:	e59de060 	ldr	lr, [sp, #96]	@ 0x60
    a3c4:	e0d1100e 	sbcs	r1, r1, lr
    a3c8:	3afffd96 	bcc	9a28 <w2c_0x24coremark0x2Ewasm_0x5Fstart+0x270>
    a3cc:	e59de044 	ldr	lr, [sp, #68]	@ 0x44
    a3d0:	e1a0100c 	mov	r1, ip
    a3d4:	e594c010 	ldr	ip, [r4, #16]
    a3d8:	e1a08002 	mov	r8, r2
    a3dc:	e78c200e 	str	r2, [ip, lr]
    a3e0:	e1a02000 	mov	r2, r0
    a3e4:	e2833001 	add	r3, r3, #1
    a3e8:	e15a0003 	cmp	sl, r3
    a3ec:	0a0003b4 	beq	b2c4 <w2c_0x24coremark0x2Ewasm_0x5Fstart+0x1b0c>
    a3f0:	e2820008 	add	r0, r2, #8
    a3f4:	e1560000 	cmp	r6, r0
    a3f8:	9afffff9 	bls	a3e4 <w2c_0x24coremark0x2Ewasm_0x5Fstart+0xc2c>
    a3fc:	e281c004 	add	ip, r1, #4
    a400:	e15b000c 	cmp	fp, ip
    a404:	9afffff6 	bls	a3e4 <w2c_0x24coremark0x2Ewasm_0x5Fstart+0xc2c>
    a408:	e594e030 	ldr	lr, [r4, #48]	@ 0x30
    a40c:	e2929004 	adds	r9, r2, #4
    a410:	e2a75000 	adc	r5, r7, #0
    a414:	e15e0009 	cmp	lr, r9
    a418:	e594e034 	ldr	lr, [r4, #52]	@ 0x34
    a41c:	e0de5005 	sbcs	r5, lr, r5
    a420:	2affffbb 	bcs	a314 <w2c_0x24coremark0x2Ewasm_0x5Fstart+0xb5c>
    a424:	eafffd7f 	b	9a28 <w2c_0x24coremark0x2Ewasm_0x5Fstart+0x270>
    a428:	e3520000 	cmp	r2, #0
    a42c:	158d1060 	strne	r1, [sp, #96]	@ 0x60
    a430:	1afffe9d 	bne	9eac <w2c_0x24coremark0x2Ewasm_0x5Fstart+0x6f4>
    a434:	e35b0000 	cmp	fp, #0
    a438:	0a0000d1 	beq	a784 <w2c_0x24coremark0x2Ewasm_0x5Fstart+0xfcc>
    a43c:	e59d3008 	ldr	r3, [sp, #8]
    a440:	e59de040 	ldr	lr, [sp, #64]	@ 0x40
    a444:	e243303c 	sub	r3, r3, #60	@ 0x3c
    a448:	e2930004 	adds	r0, r3, #4
    a44c:	e2a22000 	adc	r2, r2, #0
    a450:	e15e0000 	cmp	lr, r0
    a454:	e0dc2002 	sbcs	r2, ip, r2
    a458:	3afffd72 	bcc	9a28 <w2c_0x24coremark0x2Ewasm_0x5Fstart+0x270>
    a45c:	e5942010 	ldr	r2, [r4, #16]
    a460:	e7821003 	str	r1, [r2, r3]
    a464:	e594c034 	ldr	ip, [r4, #52]	@ 0x34
    a468:	e5943030 	ldr	r3, [r4, #48]	@ 0x30
    a46c:	e58d3040 	str	r3, [sp, #64]	@ 0x40
    a470:	e59d306c 	ldr	r3, [sp, #108]	@ 0x6c
    a474:	e59d7040 	ldr	r7, [sp, #64]	@ 0x40
    a478:	e1570003 	cmp	r7, r3
    a47c:	e59d3070 	ldr	r3, [sp, #112]	@ 0x70
    a480:	e0dc3003 	sbcs	r3, ip, r3
    a484:	3afffd67 	bcc	9a28 <w2c_0x24coremark0x2Ewasm_0x5Fstart+0x270>
    a488:	e5940010 	ldr	r0, [r4, #16]
    a48c:	e59d3074 	ldr	r3, [sp, #116]	@ 0x74
    a490:	e790e003 	ldr	lr, [r0, r3]
    a494:	e157000a 	cmp	r7, sl
    a498:	e0dc3009 	sbcs	r3, ip, r9
    a49c:	3afffd61 	bcc	9a28 <w2c_0x24coremark0x2Ewasm_0x5Fstart+0x270>
    a4a0:	e59d300c 	ldr	r3, [sp, #12]
    a4a4:	e19060f3 	ldrsh	r6, [r0, r3]
    a4a8:	e59d3008 	ldr	r3, [sp, #8]
    a4ac:	e3a01000 	mov	r1, #0
    a4b0:	e243303c 	sub	r3, r3, #60	@ 0x3c
    a4b4:	e2935004 	adds	r5, r3, #4
    a4b8:	e2a12000 	adc	r2, r1, #0
    a4bc:	e1570005 	cmp	r7, r5
    a4c0:	e0dc2002 	sbcs	r2, ip, r2
    a4c4:	3afffd57 	bcc	9a28 <w2c_0x24coremark0x2Ewasm_0x5Fstart+0x270>
    a4c8:	e7903003 	ldr	r3, [r0, r3]
    a4cc:	e58d3060 	str	r3, [sp, #96]	@ 0x60
    a4d0:	e59f3234 	ldr	r3, [pc, #564]	@ a70c <w2c_0x24coremark0x2Ewasm_0x5Fstart+0xf54>
    a4d4:	e59f2234 	ldr	r2, [pc, #564]	@ a710 <w2c_0x24coremark0x2Ewasm_0x5Fstart+0xf58>
    a4d8:	e59d0000 	ldr	r0, [sp]
    a4dc:	e79f3003 	ldr	r3, [pc, r3]
    a4e0:	e79f2002 	ldr	r2, [pc, r2]
    a4e4:	e7903003 	ldr	r3, [r0, r3]
    a4e8:	e2833001 	add	r3, r3, #1
    a4ec:	e7803002 	str	r3, [r0, r2]
    a4f0:	e3530f7d 	cmp	r3, #500	@ 0x1f4
    a4f4:	8a0005ad 	bhi	bbb0 <w2c_0x24coremark0x2Ewasm_0x5Fstart+0x23f8>
    a4f8:	e24e3001 	sub	r3, lr, #1
    a4fc:	e58d307c 	str	r3, [sp, #124]	@ 0x7c
    a500:	e3530001 	cmp	r3, #1
    a504:	9a00008f 	bls	a748 <w2c_0x24coremark0x2Ewasm_0x5Fstart+0xf90>
    a508:	e58d6040 	str	r6, [sp, #64]	@ 0x40
    a50c:	e1a0300a 	mov	r3, sl
    a510:	e58d1044 	str	r1, [sp, #68]	@ 0x44
    a514:	e1a0600e 	mov	r6, lr
    a518:	e1a0b009 	mov	fp, r9
    a51c:	e1a01007 	mov	r1, r7
    a520:	e59d2040 	ldr	r2, [sp, #64]	@ 0x40
    a524:	e2822001 	add	r2, r2, #1
    a528:	e58d2040 	str	r2, [sp, #64]	@ 0x40
    a52c:	e1a00102 	lsl	r0, r2, #2
    a530:	e200001c 	and	r0, r0, #28
    a534:	e2802e93 	add	r2, r0, #2352	@ 0x930
    a538:	e2822004 	add	r2, r2, #4
    a53c:	e1510002 	cmp	r1, r2
    a540:	e2dc2000 	sbcs	r2, ip, #0
    a544:	3afffd37 	bcc	9a28 <w2c_0x24coremark0x2Ewasm_0x5Fstart+0x270>
    a548:	e5945010 	ldr	r5, [r4, #16]
    a54c:	e0857000 	add	r7, r5, r0
    a550:	e597e930 	ldr	lr, [r7, #2352]	@ 0x930
    a554:	e59d2040 	ldr	r2, [sp, #64]	@ 0x40
    a558:	e1a020a2 	lsr	r2, r2, #1
    a55c:	e202200c 	and	r2, r2, #12
    a560:	e082200e 	add	r2, r2, lr
    a564:	e2928004 	adds	r8, r2, #4
    a568:	23a0e001 	movcs	lr, #1
    a56c:	33a0e000 	movcc	lr, #0
    a570:	e1510008 	cmp	r1, r8
    a574:	e0dce00e 	sbcs	lr, ip, lr
    a578:	3afffd2a 	bcc	9a28 <w2c_0x24coremark0x2Ewasm_0x5Fstart+0x270>
    a57c:	e7952002 	ldr	r2, [r5, r2]
    a580:	e2800e95 	add	r0, r0, #2384	@ 0x950
    a584:	e2800004 	add	r0, r0, #4
    a588:	e1510000 	cmp	r1, r0
    a58c:	e2dc0000 	sbcs	r0, ip, #0
    a590:	3afffd24 	bcc	9a28 <w2c_0x24coremark0x2Ewasm_0x5Fstart+0x270>
    a594:	e5970950 	ldr	r0, [r7, #2384]	@ 0x950
    a598:	e59d7044 	ldr	r7, [sp, #68]	@ 0x44
    a59c:	e280e001 	add	lr, r0, #1
    a5a0:	e08ee007 	add	lr, lr, r7
    a5a4:	e59d707c 	ldr	r7, [sp, #124]	@ 0x7c
    a5a8:	e157000e 	cmp	r7, lr
    a5ac:	9a00005b 	bls	a720 <w2c_0x24coremark0x2Ewasm_0x5Fstart+0xf68>
    a5b0:	e3500000 	cmp	r0, #0
    a5b4:	0a0006cd 	beq	c0f0 <w2c_0x24coremark0x2Ewasm_0x5Fstart+0x2938>
    a5b8:	e59de044 	ldr	lr, [sp, #68]	@ 0x44
    a5bc:	e3500003 	cmp	r0, #3
    a5c0:	e59d5060 	ldr	r5, [sp, #96]	@ 0x60
    a5c4:	91a0a000 	movls	sl, r0
    a5c8:	e08e9005 	add	r9, lr, r5
    a5cc:	91a08009 	movls	r8, r9
    a5d0:	8a000448 	bhi	b6f8 <w2c_0x24coremark0x2Ewasm_0x5Fstart+0x1f40>
    a5d4:	e08aa002 	add	sl, sl, r2
    a5d8:	e0488002 	sub	r8, r8, r2
    a5dc:	e3a07000 	mov	r7, #0
    a5e0:	e58d9080 	str	r9, [sp, #128]	@ 0x80
    a5e4:	e58d6084 	str	r6, [sp, #132]	@ 0x84
    a5e8:	e58d0088 	str	r0, [sp, #136]	@ 0x88
    a5ec:	e292e001 	adds	lr, r2, #1
    a5f0:	e2a70000 	adc	r0, r7, #0
    a5f4:	e151000e 	cmp	r1, lr
    a5f8:	e0dc0000 	sbcs	r0, ip, r0
    a5fc:	3afffd09 	bcc	9a28 <w2c_0x24coremark0x2Ewasm_0x5Fstart+0x270>
    a600:	e5945010 	ldr	r5, [r4, #16]
    a604:	e0880002 	add	r0, r8, r2
    a608:	e7d52002 	ldrb	r2, [r5, r2]
    a60c:	e2909001 	adds	r9, r0, #1
    a610:	e2a76000 	adc	r6, r7, #0
    a614:	e1510009 	cmp	r1, r9
    a618:	e0dcc006 	sbcs	ip, ip, r6
    a61c:	3afffd01 	bcc	9a28 <w2c_0x24coremark0x2Ewasm_0x5Fstart+0x270>
    a620:	e7c52000 	strb	r2, [r5, r0]
    a624:	e15e000a 	cmp	lr, sl
    a628:	e1a0200e 	mov	r2, lr
    a62c:	e5941030 	ldr	r1, [r4, #48]	@ 0x30
    a630:	e594c034 	ldr	ip, [r4, #52]	@ 0x34
    a634:	1affffec 	bne	a5ec <w2c_0x24coremark0x2Ewasm_0x5Fstart+0xe34>
    a638:	e59d9080 	ldr	r9, [sp, #128]	@ 0x80
    a63c:	e59d6084 	ldr	r6, [sp, #132]	@ 0x84
    a640:	e59d0088 	ldr	r0, [sp, #136]	@ 0x88
    a644:	e0892000 	add	r2, r9, r0
    a648:	e2925001 	adds	r5, r2, #1
    a64c:	23a0e001 	movcs	lr, #1
    a650:	33a0e000 	movcc	lr, #0
    a654:	e1510005 	cmp	r1, r5
    a658:	e0dce00e 	sbcs	lr, ip, lr
    a65c:	3afffcf1 	bcc	9a28 <w2c_0x24coremark0x2Ewasm_0x5Fstart+0x270>
    a660:	e59d1044 	ldr	r1, [sp, #68]	@ 0x44
    a664:	e0810000 	add	r0, r1, r0
    a668:	e2801001 	add	r1, r0, #1
    a66c:	e58d1044 	str	r1, [sp, #68]	@ 0x44
    a670:	e5941010 	ldr	r1, [r4, #16]
    a674:	e3a0002c 	mov	r0, #44	@ 0x2c
    a678:	e7c10002 	strb	r0, [r1, r2]
    a67c:	e5941030 	ldr	r1, [r4, #48]	@ 0x30
    a680:	e594c034 	ldr	ip, [r4, #52]	@ 0x34
    a684:	eaffffa5 	b	a520 <w2c_0x24coremark0x2Ewasm_0x5Fstart+0xd68>
    a688:	e3530000 	cmp	r3, #0
    a68c:	0afffe22 	beq	9f1c <w2c_0x24coremark0x2Ewasm_0x5Fstart+0x764>
    a690:	e59d3014 	ldr	r3, [sp, #20]
    a694:	e2933c09 	adds	r3, r3, #2304	@ 0x900
    a698:	e1a07003 	mov	r7, r3
    a69c:	e59d3004 	ldr	r3, [sp, #4]
    a6a0:	e2a3e000 	adc	lr, r3, #0
    a6a4:	eafffeb3 	b	a178 <w2c_0x24coremark0x2Ewasm_0x5Fstart+0x9c0>
    a6a8:	00000ed0 	.word	0x00000ed0
    a6ac:	00000ed0 	.word	0x00000ed0
    a6b0:	00000e6c 	.word	0x00000e6c
    a6b4:	00000e6c 	.word	0x00000e6c
    a6b8:	00000e40 	.word	0x00000e40
    a6bc:	00000e0c 	.word	0x00000e0c
    a6c0:	00000e00 	.word	0x00000e00
    a6c4:	00000da8 	.word	0x00000da8
    a6c8:	00000d88 	.word	0x00000d88
    a6cc:	00000d2c 	.word	0x00000d2c
    a6d0:	00000d2c 	.word	0x00000d2c
    a6d4:	00000c60 	.word	0x00000c60
    a6d8:	00000c50 	.word	0x00000c50
    a6dc:	00000c28 	.word	0x00000c28
    a6e0:	00000c1c 	.word	0x00000c1c
    a6e4:	00000bec 	.word	0x00000bec
    a6e8:	00000ba8 	.word	0x00000ba8
    a6ec:	00000ba8 	.word	0x00000ba8
    a6f0:	00000b54 	.word	0x00000b54
    a6f4:	00000b48 	.word	0x00000b48
    a6f8:	00000738 	.word	0x00000738
    a6fc:	00000738 	.word	0x00000738
    a700:	000005dc 	.word	0x000005dc
    a704:	00000554 	.word	0x00000554
    a708:	00000554 	.word	0x00000554
    a70c:	00000228 	.word	0x00000228
    a710:	00000228 	.word	0x00000228
    a714:	ffffffa0 	.word	0xffffffa0
    a718:	ffffff94 	.word	0xffffff94
    a71c:	fffffefc 	.word	0xfffffefc
    a720:	e1a0a003 	mov	sl, r3
    a724:	e59d3044 	ldr	r3, [sp, #68]	@ 0x44
    a728:	e1a0900b 	mov	r9, fp
    a72c:	e58d1040 	str	r1, [sp, #64]	@ 0x40
    a730:	e1530006 	cmp	r3, r6
    a734:	2a00000a 	bcs	a764 <w2c_0x24coremark0x2Ewasm_0x5Fstart+0xfac>
    a738:	e59d2060 	ldr	r2, [sp, #96]	@ 0x60
    a73c:	e046e003 	sub	lr, r6, r3
    a740:	e0822003 	add	r2, r2, r3
    a744:	e58d2060 	str	r2, [sp, #96]	@ 0x60
    a748:	e59d1060 	ldr	r1, [sp, #96]	@ 0x60
    a74c:	e1a0200e 	mov	r2, lr
    a750:	e1a00004 	mov	r0, r4
    a754:	ebffd997 	bl	db8 <w2c_0x24coremark0x2Ewasm_memset.constprop.0.isra.0>
    a758:	e594c034 	ldr	ip, [r4, #52]	@ 0x34
    a75c:	e5943030 	ldr	r3, [r4, #48]	@ 0x30
    a760:	e58d3040 	str	r3, [sp, #64]	@ 0x40
    a764:	e51f3058 	ldr	r3, [pc, #-88]	@ a714 <w2c_0x24coremark0x2Ewasm_0x5Fstart+0xf5c>
    a768:	e59d1000 	ldr	r1, [sp]
    a76c:	e79f3003 	ldr	r3, [pc, r3]
    a770:	e7912003 	ldr	r2, [r1, r3]
    a774:	e51f3064 	ldr	r3, [pc, #-100]	@ a718 <w2c_0x24coremark0x2Ewasm_0x5Fstart+0xf60>
    a778:	e2422001 	sub	r2, r2, #1
    a77c:	e79f3003 	ldr	r3, [pc, r3]
    a780:	e7812003 	str	r2, [r1, r3]
    a784:	e59d3040 	ldr	r3, [sp, #64]	@ 0x40
    a788:	e59d6048 	ldr	r6, [sp, #72]	@ 0x48
    a78c:	e59d704c 	ldr	r7, [sp, #76]	@ 0x4c
    a790:	e1530006 	cmp	r3, r6
    a794:	e0dc3007 	sbcs	r3, ip, r7
    a798:	3afffca2 	bcc	9a28 <w2c_0x24coremark0x2Ewasm_0x5Fstart+0x270>
    a79c:	e5943010 	ldr	r3, [r4, #16]
    a7a0:	e59d5050 	ldr	r5, [sp, #80]	@ 0x50
    a7a4:	e7931005 	ldr	r1, [r3, r5]
    a7a8:	e3510000 	cmp	r1, #0
    a7ac:	1a000046 	bne	a8cc <w2c_0x24coremark0x2Ewasm_0x5Fstart+0x1114>
    a7b0:	e59d800c 	ldr	r8, [sp, #12]
    a7b4:	e3a02001 	mov	r2, #1
    a7b8:	e59db000 	ldr	fp, [sp]
    a7bc:	e7832005 	str	r2, [r3, r5]
    a7c0:	e58d1040 	str	r1, [sp, #64]	@ 0x40
    a7c4:	e5943030 	ldr	r3, [r4, #48]	@ 0x30
    a7c8:	e1530006 	cmp	r3, r6
    a7cc:	e5943034 	ldr	r3, [r4, #52]	@ 0x34
    a7d0:	e0d33007 	sbcs	r3, r3, r7
    a7d4:	3afffc93 	bcc	9a28 <w2c_0x24coremark0x2Ewasm_0x5Fstart+0x270>
    a7d8:	e5941010 	ldr	r1, [r4, #16]
    a7dc:	e7913005 	ldr	r3, [r1, r5]
    a7e0:	e3a0200a 	mov	r2, #10
    a7e4:	e1a00004 	mov	r0, r4
    a7e8:	e0030392 	mul	r3, r2, r3
    a7ec:	e7813005 	str	r3, [r1, r5]
    a7f0:	ebffd726 	bl	490 <w2c_0x24coremark0x2Ewasm_start_time>
    a7f4:	e1a01008 	mov	r1, r8
    a7f8:	e1a00004 	mov	r0, r4
    a7fc:	ebfffb5e 	bl	957c <w2c_0x24coremark0x2Ewasm_iterate.isra.0>
    a800:	e1a00004 	mov	r0, r4
    a804:	ebffd74c 	bl	53c <w2c_0x24coremark0x2Ewasm_stop_time>
    a808:	e1a00004 	mov	r0, r4
    a80c:	ebffd6d5 	bl	368 <w2c_0x24coremark0x2Ewasm_get_time>
    a810:	e51f30fc 	ldr	r3, [pc, #-252]	@ a71c <w2c_0x24coremark0x2Ewasm_0x5Fstart+0xf64>
    a814:	ee070a90 	vmov	s15, r0
    a818:	e79f3003 	ldr	r3, [pc, r3]
    a81c:	e79b3003 	ldr	r3, [fp, r3]
    a820:	e2833001 	add	r3, r3, #1
    a824:	e3530f7d 	cmp	r3, #500	@ 0x1f4
    a828:	8a0004dc 	bhi	bba0 <w2c_0x24coremark0x2Ewasm_0x5Fstart+0x23e8>
    a82c:	eef80b67 	vcvt.f64.u32	d16, s15
    a830:	eddf1bfc 	vldr	d17, [pc, #1008]	@ ac28 <w2c_0x24coremark0x2Ewasm_0x5Fstart+0x1470>
    a834:	ee807ba1 	vdiv.f64	d7, d16, d17
    a838:	eef70b00 	vmov.f64	d16, #112	@ 0x3f800000  1.0
    a83c:	eeb47be0 	vcmpe.f64	d7, d16
    a840:	eef1fa10 	vmrs	APSR_nzcv, fpscr
    a844:	4affffde 	bmi	a7c4 <w2c_0x24coremark0x2Ewasm_0x5Fstart+0x100c>
    a848:	eddf0bf8 	vldr	d16, [pc, #992]	@ ac30 <w2c_0x24coremark0x2Ewasm_0x5Fstart+0x1478>
    a84c:	e59d2048 	ldr	r2, [sp, #72]	@ 0x48
    a850:	e59d1040 	ldr	r1, [sp, #64]	@ 0x40
    a854:	eeb47be0 	vcmpe.f64	d7, d16
    a858:	eef1fa10 	vmrs	APSR_nzcv, fpscr
    a85c:	eeb57bc0 	vcmpe.f64	d7, #0.0
    a860:	43a03001 	movmi	r3, #1
    a864:	53a03000 	movpl	r3, #0
    a868:	eef1fa10 	vmrs	APSR_nzcv, fpscr
    a86c:	b3a03000 	movlt	r3, #0
    a870:	a2033001 	andge	r3, r3, #1
    a874:	e3530000 	cmp	r3, #0
    a878:	e5943030 	ldr	r3, [r4, #48]	@ 0x30
    a87c:	1efc7bc7 	vcvtne.u32.f64	s15, d7
    a880:	1e171a90 	vmovne	r1, s15
    a884:	e1530002 	cmp	r3, r2
    a888:	e5943034 	ldr	r3, [r4, #52]	@ 0x34
    a88c:	e59d204c 	ldr	r2, [sp, #76]	@ 0x4c
    a890:	e0d33002 	sbcs	r3, r3, r2
    a894:	3afffc63 	bcc	9a28 <w2c_0x24coremark0x2Ewasm_0x5Fstart+0x270>
    a898:	e5942010 	ldr	r2, [r4, #16]
    a89c:	e59d5050 	ldr	r5, [sp, #80]	@ 0x50
    a8a0:	e58d2044 	str	r2, [sp, #68]	@ 0x44
    a8a4:	e7923005 	ldr	r3, [r2, r5]
    a8a8:	e3510001 	cmp	r1, #1
    a8ac:	e3a0000a 	mov	r0, #10
    a8b0:	33a01001 	movcc	r1, #1
    a8b4:	e58d3040 	str	r3, [sp, #64]	@ 0x40
    a8b8:	ebfffffe 	bl	0 <__aeabi_uidiv>
    a8bc:	e59d3040 	ldr	r3, [sp, #64]	@ 0x40
    a8c0:	e59d2044 	ldr	r2, [sp, #68]	@ 0x44
    a8c4:	e0233390 	mla	r3, r0, r3, r3
    a8c8:	e7823005 	str	r3, [r2, r5]
    a8cc:	e1a00004 	mov	r0, r4
    a8d0:	ebffd6ee 	bl	490 <w2c_0x24coremark0x2Ewasm_start_time>
    a8d4:	e59d500c 	ldr	r5, [sp, #12]
    a8d8:	e1a00004 	mov	r0, r4
    a8dc:	e1a01005 	mov	r1, r5
    a8e0:	ebfffb25 	bl	957c <w2c_0x24coremark0x2Ewasm_iterate.isra.0>
    a8e4:	e1a00004 	mov	r0, r4
    a8e8:	ebffd713 	bl	53c <w2c_0x24coremark0x2Ewasm_stop_time>
    a8ec:	e1a00004 	mov	r0, r4
    a8f0:	ebffd69c 	bl	368 <w2c_0x24coremark0x2Ewasm_get_time>
    a8f4:	e5947030 	ldr	r7, [r4, #48]	@ 0x30
    a8f8:	e5946034 	ldr	r6, [r4, #52]	@ 0x34
    a8fc:	e157000a 	cmp	r7, sl
    a900:	e1a08007 	mov	r8, r7
    a904:	e0d63009 	sbcs	r3, r6, r9
    a908:	e58d0040 	str	r0, [sp, #64]	@ 0x40
    a90c:	3afffc45 	bcc	9a28 <w2c_0x24coremark0x2Ewasm_0x5Fstart+0x270>
    a910:	e594a010 	ldr	sl, [r4, #16]
    a914:	e19a30f5 	ldrsh	r3, [sl, r5]
    a918:	e59f2318 	ldr	r2, [pc, #792]	@ ac38 <w2c_0x24coremark0x2Ewasm_0x5Fstart+0x1480>
    a91c:	e59f1318 	ldr	r1, [pc, #792]	@ ac3c <w2c_0x24coremark0x2Ewasm_0x5Fstart+0x1484>
    a920:	e59d5000 	ldr	r5, [sp]
    a924:	e79f2002 	ldr	r2, [pc, r2]
    a928:	e79f1001 	ldr	r1, [pc, r1]
    a92c:	e7952002 	ldr	r2, [r5, r2]
    a930:	e2822001 	add	r2, r2, #1
    a934:	e7852001 	str	r2, [r5, r1]
    a938:	e3520f7d 	cmp	r2, #500	@ 0x1f4
    a93c:	8a00049b 	bhi	bbb0 <w2c_0x24coremark0x2Ewasm_0x5Fstart+0x23f8>
    a940:	e6ff0073 	uxth	r0, r3
    a944:	e3a01000 	mov	r1, #0
    a948:	ebffd5e4 	bl	e0 <w2c_0x24coremark0x2Ewasm_crcu16.isra.0>
    a94c:	e59d3038 	ldr	r3, [sp, #56]	@ 0x38
    a950:	e1a01000 	mov	r1, r0
    a954:	e1570003 	cmp	r7, r3
    a958:	e59d303c 	ldr	r3, [sp, #60]	@ 0x3c
    a95c:	e0d63003 	sbcs	r3, r6, r3
    a960:	e59f32d8 	ldr	r3, [pc, #728]	@ ac40 <w2c_0x24coremark0x2Ewasm_0x5Fstart+0x1488>
    a964:	e79f3003 	ldr	r3, [pc, r3]
    a968:	e7950003 	ldr	r0, [r5, r3]
    a96c:	e59f32d0 	ldr	r3, [pc, #720]	@ ac44 <w2c_0x24coremark0x2Ewasm_0x5Fstart+0x148c>
    a970:	e2402001 	sub	r2, r0, #1
    a974:	e79f3003 	ldr	r3, [pc, r3]
    a978:	e7852003 	str	r2, [r5, r3]
    a97c:	3afffc29 	bcc	9a28 <w2c_0x24coremark0x2Ewasm_0x5Fstart+0x270>
    a980:	e59d3010 	ldr	r3, [sp, #16]
    a984:	e19a30f3 	ldrsh	r3, [sl, r3]
    a988:	e59f22b8 	ldr	r2, [pc, #696]	@ ac48 <w2c_0x24coremark0x2Ewasm_0x5Fstart+0x1490>
    a98c:	e3500f7d 	cmp	r0, #500	@ 0x1f4
    a990:	e79f2002 	ldr	r2, [pc, r2]
    a994:	e7850002 	str	r0, [r5, r2]
    a998:	8a000484 	bhi	bbb0 <w2c_0x24coremark0x2Ewasm_0x5Fstart+0x23f8>
    a99c:	e6ff0073 	uxth	r0, r3
    a9a0:	ebffd5ce 	bl	e0 <w2c_0x24coremark0x2Ewasm_crcu16.isra.0>
    a9a4:	e59d3018 	ldr	r3, [sp, #24]
    a9a8:	e1570003 	cmp	r7, r3
    a9ac:	e59d3020 	ldr	r3, [sp, #32]
    a9b0:	e0d63003 	sbcs	r3, r6, r3
    a9b4:	e59f3290 	ldr	r3, [pc, #656]	@ ac4c <w2c_0x24coremark0x2Ewasm_0x5Fstart+0x1494>
    a9b8:	e79f3003 	ldr	r3, [pc, r3]
    a9bc:	e7951003 	ldr	r1, [r5, r3]
    a9c0:	e59f3288 	ldr	r3, [pc, #648]	@ ac50 <w2c_0x24coremark0x2Ewasm_0x5Fstart+0x1498>
    a9c4:	e2412001 	sub	r2, r1, #1
    a9c8:	e79f3003 	ldr	r3, [pc, r3]
    a9cc:	e7852003 	str	r2, [r5, r3]
    a9d0:	3afffc14 	bcc	9a28 <w2c_0x24coremark0x2Ewasm_0x5Fstart+0x270>
    a9d4:	e59d3024 	ldr	r3, [sp, #36]	@ 0x24
    a9d8:	e19a30f3 	ldrsh	r3, [sl, r3]
    a9dc:	e59f2270 	ldr	r2, [pc, #624]	@ ac54 <w2c_0x24coremark0x2Ewasm_0x5Fstart+0x149c>
    a9e0:	e3510f7d 	cmp	r1, #500	@ 0x1f4
    a9e4:	e79f2002 	ldr	r2, [pc, r2]
    a9e8:	e7851002 	str	r1, [r5, r2]
    a9ec:	8a00046f 	bhi	bbb0 <w2c_0x24coremark0x2Ewasm_0x5Fstart+0x23f8>
    a9f0:	e1a01000 	mov	r1, r0
    a9f4:	e6ff0073 	uxth	r0, r3
    a9f8:	ebffd5b8 	bl	e0 <w2c_0x24coremark0x2Ewasm_crcu16.isra.0>
    a9fc:	e59f3254 	ldr	r3, [pc, #596]	@ ac58 <w2c_0x24coremark0x2Ewasm_0x5Fstart+0x14a0>
    aa00:	e1a01000 	mov	r1, r0
    aa04:	e59f0250 	ldr	r0, [pc, #592]	@ ac5c <w2c_0x24coremark0x2Ewasm_0x5Fstart+0x14a4>
    aa08:	e59d2014 	ldr	r2, [sp, #20]
    aa0c:	e79f3003 	ldr	r3, [pc, r3]
    aa10:	e79f0000 	ldr	r0, [pc, r0]
    aa14:	e795c003 	ldr	ip, [r5, r3]
    aa18:	e300390a 	movw	r3, #2314	@ 0x90a
    aa1c:	e0922003 	adds	r2, r2, r3
    aa20:	e24c3001 	sub	r3, ip, #1
    aa24:	e7853000 	str	r3, [r5, r0]
    aa28:	e59d3004 	ldr	r3, [sp, #4]
    aa2c:	e2a33000 	adc	r3, r3, #0
    aa30:	e1570002 	cmp	r7, r2
    aa34:	e0d63003 	sbcs	r3, r6, r3
    aa38:	3afffbfa 	bcc	9a28 <w2c_0x24coremark0x2Ewasm_0x5Fstart+0x270>
    aa3c:	e59d3074 	ldr	r3, [sp, #116]	@ 0x74
    aa40:	e19a30f3 	ldrsh	r3, [sl, r3]
    aa44:	e59f2214 	ldr	r2, [pc, #532]	@ ac60 <w2c_0x24coremark0x2Ewasm_0x5Fstart+0x14a8>
    aa48:	e35c0f7d 	cmp	ip, #500	@ 0x1f4
    aa4c:	e1a07005 	mov	r7, r5
    aa50:	e79f2002 	ldr	r2, [pc, r2]
    aa54:	e785c002 	str	ip, [r5, r2]
    aa58:	8a000454 	bhi	bbb0 <w2c_0x24coremark0x2Ewasm_0x5Fstart+0x23f8>
    aa5c:	e6ff0073 	uxth	r0, r3
    aa60:	ebffd59e 	bl	e0 <w2c_0x24coremark0x2Ewasm_crcu16.isra.0>
    aa64:	e59f31f8 	ldr	r3, [pc, #504]	@ ac64 <w2c_0x24coremark0x2Ewasm_0x5Fstart+0x14ac>
    aa68:	e3072b04 	movw	r2, #31492	@ 0x7b04
    aa6c:	e1a05000 	mov	r5, r0
    aa70:	e1500002 	cmp	r0, r2
    aa74:	e79f3003 	ldr	r3, [pc, r3]
    aa78:	e7973003 	ldr	r3, [r7, r3]
    aa7c:	e2432001 	sub	r2, r3, #1
    aa80:	8a00045c 	bhi	bbf8 <w2c_0x24coremark0x2Ewasm_0x5Fstart+0x2440>
    aa84:	e30118f2 	movw	r1, #6386	@ 0x18f2
    aa88:	e1500001 	cmp	r0, r1
    aa8c:	0a000377 	beq	b870 <w2c_0x24coremark0x2Ewasm_0x5Fstart+0x20b8>
    aa90:	e3041eaf 	movw	r1, #20143	@ 0x4eaf
    aa94:	e1500001 	cmp	r0, r1
    aa98:	e3a01000 	mov	r1, #0
    aa9c:	e58d1010 	str	r1, [sp, #16]
    aaa0:	03a01002 	moveq	r1, #2
    aaa4:	0a000374 	beq	b87c <w2c_0x24coremark0x2Ewasm_0x5Fstart+0x20c4>
    aaa8:	e30f1fff 	movw	r1, #65535	@ 0xffff
    aaac:	e58d100c 	str	r1, [sp, #12]
    aab0:	e3530f7d 	cmp	r3, #500	@ 0x1f4
    aab4:	8a000580 	bhi	c0bc <w2c_0x24coremark0x2Ewasm_0x5Fstart+0x2904>
    aab8:	e59f31a8 	ldr	r3, [pc, #424]	@ ac68 <w2c_0x24coremark0x2Ewasm_0x5Fstart+0x14b0>
    aabc:	e59d6000 	ldr	r6, [sp]
    aac0:	e594c030 	ldr	ip, [r4, #48]	@ 0x30
    aac4:	e5940034 	ldr	r0, [r4, #52]	@ 0x34
    aac8:	e79f3003 	ldr	r3, [pc, r3]
    aacc:	e7862003 	str	r2, [r6, r3]
    aad0:	e59d306c 	ldr	r3, [sp, #108]	@ 0x6c
    aad4:	e15c0003 	cmp	ip, r3
    aad8:	e59d3070 	ldr	r3, [sp, #112]	@ 0x70
    aadc:	e0d03003 	sbcs	r3, r0, r3
    aae0:	3afffbd0 	bcc	9a28 <w2c_0x24coremark0x2Ewasm_0x5Fstart+0x270>
    aae4:	e5943010 	ldr	r3, [r4, #16]
    aae8:	e59d2074 	ldr	r2, [sp, #116]	@ 0x74
    aaec:	e7932002 	ldr	r2, [r3, r2]
    aaf0:	e59d1014 	ldr	r1, [sp, #20]
    aaf4:	e291e0e4 	adds	lr, r1, #228	@ 0xe4
    aaf8:	e59d1004 	ldr	r1, [sp, #4]
    aafc:	e2a11000 	adc	r1, r1, #0
    ab00:	e15c000e 	cmp	ip, lr
    ab04:	e0d01001 	sbcs	r1, r0, r1
    ab08:	3afffbc6 	bcc	9a28 <w2c_0x24coremark0x2Ewasm_0x5Fstart+0x270>
    ab0c:	e59d1008 	ldr	r1, [sp, #8]
    ab10:	e0833001 	add	r3, r3, r1
    ab14:	e5032860 	str	r2, [r3, #-2144]	@ 0xfffff7a0
    ab18:	e59f314c 	ldr	r3, [pc, #332]	@ ac6c <w2c_0x24coremark0x2Ewasm_0x5Fstart+0x14b4>
    ab1c:	e79f3003 	ldr	r3, [pc, r3]
    ab20:	e7963003 	ldr	r3, [r6, r3]
    ab24:	e2833001 	add	r3, r3, #1
    ab28:	e3530f7d 	cmp	r3, #500	@ 0x1f4
    ab2c:	859f213c 	ldrhi	r2, [pc, #316]	@ ac70 <w2c_0x24coremark0x2Ewasm_0x5Fstart+0x14b8>
    ab30:	879f2002 	ldrhi	r2, [pc, r2]
    ab34:	87863002 	strhi	r3, [r6, r2]
    ab38:	8a00041c 	bhi	bbb0 <w2c_0x24coremark0x2Ewasm_0x5Fstart+0x23f8>
    ab3c:	e59d3014 	ldr	r3, [sp, #20]
    ab40:	e5940030 	ldr	r0, [r4, #48]	@ 0x30
    ab44:	e29310d4 	adds	r1, r3, #212	@ 0xd4
    ab48:	e59d3004 	ldr	r3, [sp, #4]
    ab4c:	e5942034 	ldr	r2, [r4, #52]	@ 0x34
    ab50:	e2a33000 	adc	r3, r3, #0
    ab54:	e1500001 	cmp	r0, r1
    ab58:	e0d23003 	sbcs	r3, r2, r3
    ab5c:	3afffbb1 	bcc	9a28 <w2c_0x24coremark0x2Ewasm_0x5Fstart+0x270>
    ab60:	e5943010 	ldr	r3, [r4, #16]
    ab64:	e59d2008 	ldr	r2, [sp, #8]
    ab68:	e0833002 	add	r3, r3, r2
    ab6c:	e59d2040 	ldr	r2, [sp, #64]	@ 0x40
    ab70:	e5032870 	str	r2, [r3, #-2160]	@ 0xfffff790
    ab74:	e59f30f8 	ldr	r3, [pc, #248]	@ ac74 <w2c_0x24coremark0x2Ewasm_0x5Fstart+0x14bc>
    ab78:	e59d2000 	ldr	r2, [sp]
    ab7c:	e79f3003 	ldr	r3, [pc, r3]
    ab80:	e7923003 	ldr	r3, [r2, r3]
    ab84:	e2833001 	add	r3, r3, #1
    ab88:	e3530f7d 	cmp	r3, #500	@ 0x1f4
    ab8c:	8a000545 	bhi	c0a8 <w2c_0x24coremark0x2Ewasm_0x5Fstart+0x28f0>
    ab90:	e59dc014 	ldr	ip, [sp, #20]
    ab94:	e5940030 	ldr	r0, [r4, #48]	@ 0x30
    ab98:	e59d6004 	ldr	r6, [sp, #4]
    ab9c:	e29c10c8 	adds	r1, ip, #200	@ 0xc8
    aba0:	e5942034 	ldr	r2, [r4, #52]	@ 0x34
    aba4:	e2a63000 	adc	r3, r6, #0
    aba8:	e1500001 	cmp	r0, r1
    abac:	e0d23003 	sbcs	r3, r2, r3
    abb0:	3afffb9c 	bcc	9a28 <w2c_0x24coremark0x2Ewasm_0x5Fstart+0x270>
    abb4:	eddd7a10 	vldr	s15, [sp, #64]	@ 0x40
    abb8:	eddf1b1a 	vldr	d17, [pc, #104]	@ ac28 <w2c_0x24coremark0x2Ewasm_0x5Fstart+0x1470>
    abbc:	e5943010 	ldr	r3, [r4, #16]
    abc0:	eef80b67 	vcvt.f64.u32	d16, s15
    abc4:	e59d7008 	ldr	r7, [sp, #8]
    abc8:	e0833007 	add	r3, r3, r7
    abcc:	ee807ba1 	vdiv.f64	d7, d16, d17
    abd0:	eeb57bc0 	vcmpe.f64	d7, #0.0
    abd4:	ee172a10 	vmov	r2, s14
    abd8:	eef1fa10 	vmrs	APSR_nzcv, fpscr
    abdc:	e5032880 	str	r2, [r3, #-2176]	@ 0xfffff780
    abe0:	ee172a90 	vmov	r2, s15
    abe4:	e503287c 	str	r2, [r3, #-2172]	@ 0xfffff784
    abe8:	da000041 	ble	acf4 <w2c_0x24coremark0x2Ewasm_0x5Fstart+0x153c>
    abec:	e59d3048 	ldr	r3, [sp, #72]	@ 0x48
    abf0:	e5941030 	ldr	r1, [r4, #48]	@ 0x30
    abf4:	e5942034 	ldr	r2, [r4, #52]	@ 0x34
    abf8:	e1510003 	cmp	r1, r3
    abfc:	e59d304c 	ldr	r3, [sp, #76]	@ 0x4c
    ac00:	e0d23003 	sbcs	r3, r2, r3
    ac04:	3afffb87 	bcc	9a28 <w2c_0x24coremark0x2Ewasm_0x5Fstart+0x270>
    ac08:	e5943010 	ldr	r3, [r4, #16]
    ac0c:	e59d0050 	ldr	r0, [sp, #80]	@ 0x50
    ac10:	e793e000 	ldr	lr, [r3, r0]
    ac14:	e3510e99 	cmp	r1, #2448	@ 0x990
    ac18:	e2d20000 	sbcs	r0, r2, #0
    ac1c:	3afffb81 	bcc	9a28 <w2c_0x24coremark0x2Ewasm_0x5Fstart+0x270>
    ac20:	ea000025 	b	acbc <w2c_0x24coremark0x2Ewasm_0x5Fstart+0x1504>
    ac24:	e320f000 	nop	{0}
    ac28:	00000000 	.word	0x00000000
    ac2c:	408f4000 	.word	0x408f4000
    ac30:	00000000 	.word	0x00000000
    ac34:	41f00000 	.word	0x41f00000
    ac38:	0000030c 	.word	0x0000030c
    ac3c:	0000030c 	.word	0x0000030c
    ac40:	000002d4 	.word	0x000002d4
    ac44:	000002c8 	.word	0x000002c8
    ac48:	000002b0 	.word	0x000002b0
    ac4c:	0000028c 	.word	0x0000028c
    ac50:	00000280 	.word	0x00000280
    ac54:	00000268 	.word	0x00000268
    ac58:	00000244 	.word	0x00000244
    ac5c:	00000244 	.word	0x00000244
    ac60:	00000208 	.word	0x00000208
    ac64:	000001e8 	.word	0x000001e8
    ac68:	00000198 	.word	0x00000198
    ac6c:	00000148 	.word	0x00000148
    ac70:	00000138 	.word	0x00000138
    ac74:	000000f0 	.word	0x000000f0
    ac78:	fffffef8 	.word	0xfffffef8
    ac7c:	fffffea8 	.word	0xfffffea8
    ac80:	fffffe58 	.word	0xfffffe58
    ac84:	fffffe08 	.word	0xfffffe08
    ac88:	fffffdbc 	.word	0xfffffdbc
    ac8c:	fffffce0 	.word	0xfffffce0
    ac90:	fffffbf4 	.word	0xfffffbf4
    ac94:	fffffb0c 	.word	0xfffffb0c
    ac98:	fffffa3c 	.word	0xfffffa3c
    ac9c:	fffff9ec 	.word	0xfffff9ec
    aca0:	fffff7e4 	.word	0xfffff7e4
    aca4:	fffff7d8 	.word	0xfffff7d8
    aca8:	fffff408 	.word	0xfffff408
    acac:	fffff2ac 	.word	0xfffff2ac
    acb0:	fffff1a4 	.word	0xfffff1a4
    acb4:	fffff11c 	.word	0xfffff11c
    acb8:	fffff108 	.word	0xfffff108
    acbc:	e593a98c 	ldr	sl, [r3, #2444]	@ 0x98c
    acc0:	e29cc0b8 	adds	ip, ip, #184	@ 0xb8
    acc4:	e2a60000 	adc	r0, r6, #0
    acc8:	e151000c 	cmp	r1, ip
    accc:	e0d20000 	sbcs	r0, r2, r0
    acd0:	3afffb54 	bcc	9a28 <w2c_0x24coremark0x2Ewasm_0x5Fstart+0x270>
    acd4:	e00a0a9e 	mul	sl, lr, sl
    acd8:	e0833007 	add	r3, r3, r7
    acdc:	ee06aa90 	vmov	s13, sl
    ace0:	eef80b66 	vcvt.f64.u32	d16, s13
    ace4:	eec00b87 	vdiv.f64	d16, d16, d7
    ace8:	ec510b30 	vmov	r0, r1, d16
    acec:	e5030890 	str	r0, [r3, #-2192]	@ 0xfffff770
    acf0:	e503188c 	str	r1, [r3, #-2188]	@ 0xfffff774
    acf4:	eef20b04 	vmov.f64	d16, #36	@ 0x41200000  10.0
    acf8:	e5941030 	ldr	r1, [r4, #48]	@ 0x30
    acfc:	e5942034 	ldr	r2, [r4, #52]	@ 0x34
    ad00:	eeb47be0 	vcmpe.f64	d7, d16
    ad04:	eef1fa10 	vmrs	APSR_nzcv, fpscr
    ad08:	459d300c 	ldrmi	r3, [sp, #12]
    ad0c:	42833001 	addmi	r3, r3, #1
    ad10:	458d300c 	strmi	r3, [sp, #12]
    ad14:	e59d3048 	ldr	r3, [sp, #72]	@ 0x48
    ad18:	e1510003 	cmp	r1, r3
    ad1c:	e59d304c 	ldr	r3, [sp, #76]	@ 0x4c
    ad20:	e0d23003 	sbcs	r3, r2, r3
    ad24:	3afffb3f 	bcc	9a28 <w2c_0x24coremark0x2Ewasm_0x5Fstart+0x270>
    ad28:	e5943010 	ldr	r3, [r4, #16]
    ad2c:	e59d0050 	ldr	r0, [sp, #80]	@ 0x50
    ad30:	e793e000 	ldr	lr, [r3, r0]
    ad34:	e3510e99 	cmp	r1, #2448	@ 0x990
    ad38:	e2d20000 	sbcs	r0, r2, #0
    ad3c:	3afffb39 	bcc	9a28 <w2c_0x24coremark0x2Ewasm_0x5Fstart+0x270>
    ad40:	e593a98c 	ldr	sl, [r3, #2444]	@ 0x98c
    ad44:	e59d0014 	ldr	r0, [sp, #20]
    ad48:	e290c0a4 	adds	ip, r0, #164	@ 0xa4
    ad4c:	e59d0004 	ldr	r0, [sp, #4]
    ad50:	e2a00000 	adc	r0, r0, #0
    ad54:	e151000c 	cmp	r1, ip
    ad58:	e0d20000 	sbcs	r0, r2, r0
    ad5c:	3afffb31 	bcc	9a28 <w2c_0x24coremark0x2Ewasm_0x5Fstart+0x270>
    ad60:	e59d1008 	ldr	r1, [sp, #8]
    ad64:	e0020a9e 	mul	r2, lr, sl
    ad68:	e0833001 	add	r3, r3, r1
    ad6c:	e50328a0 	str	r2, [r3, #-2208]	@ 0xfffff760
    ad70:	e51f3100 	ldr	r3, [pc, #-256]	@ ac78 <w2c_0x24coremark0x2Ewasm_0x5Fstart+0x14c0>
    ad74:	e59d2000 	ldr	r2, [sp]
    ad78:	e79f3003 	ldr	r3, [pc, r3]
    ad7c:	e7923003 	ldr	r3, [r2, r3]
    ad80:	e2833001 	add	r3, r3, #1
    ad84:	e3530f7d 	cmp	r3, #500	@ 0x1f4
    ad88:	8a0004f6 	bhi	c168 <w2c_0x24coremark0x2Ewasm_0x5Fstart+0x29b0>
    ad8c:	e59d3014 	ldr	r3, [sp, #20]
    ad90:	e5940030 	ldr	r0, [r4, #48]	@ 0x30
    ad94:	e2931094 	adds	r1, r3, #148	@ 0x94
    ad98:	e59d3004 	ldr	r3, [sp, #4]
    ad9c:	e5942034 	ldr	r2, [r4, #52]	@ 0x34
    ada0:	e2a33000 	adc	r3, r3, #0
    ada4:	e1500001 	cmp	r0, r1
    ada8:	e0d23003 	sbcs	r3, r2, r3
    adac:	3afffb1d 	bcc	9a28 <w2c_0x24coremark0x2Ewasm_0x5Fstart+0x270>
    adb0:	e5942010 	ldr	r2, [r4, #16]
    adb4:	e30014ab 	movw	r1, #1195	@ 0x4ab
    adb8:	e59d3008 	ldr	r3, [sp, #8]
    adbc:	e0822003 	add	r2, r2, r3
    adc0:	e51f314c 	ldr	r3, [pc, #-332]	@ ac7c <w2c_0x24coremark0x2Ewasm_0x5Fstart+0x14c4>
    adc4:	e50218b0 	str	r1, [r2, #-2224]	@ 0xfffff750
    adc8:	e59d2000 	ldr	r2, [sp]
    adcc:	e79f3003 	ldr	r3, [pc, r3]
    add0:	e7923003 	ldr	r3, [r2, r3]
    add4:	e2833001 	add	r3, r3, #1
    add8:	e3530f7d 	cmp	r3, #500	@ 0x1f4
    addc:	8a0004dc 	bhi	c154 <w2c_0x24coremark0x2Ewasm_0x5Fstart+0x299c>
    ade0:	e59d3014 	ldr	r3, [sp, #20]
    ade4:	e5940030 	ldr	r0, [r4, #48]	@ 0x30
    ade8:	e2931084 	adds	r1, r3, #132	@ 0x84
    adec:	e59d3004 	ldr	r3, [sp, #4]
    adf0:	e5942034 	ldr	r2, [r4, #52]	@ 0x34
    adf4:	e2a33000 	adc	r3, r3, #0
    adf8:	e1500001 	cmp	r0, r1
    adfc:	e0d23003 	sbcs	r3, r2, r3
    ae00:	3afffb08 	bcc	9a28 <w2c_0x24coremark0x2Ewasm_0x5Fstart+0x270>
    ae04:	e5942010 	ldr	r2, [r4, #16]
    ae08:	e3001432 	movw	r1, #1074	@ 0x432
    ae0c:	e59d3008 	ldr	r3, [sp, #8]
    ae10:	e0822003 	add	r2, r2, r3
    ae14:	e51f319c 	ldr	r3, [pc, #-412]	@ ac80 <w2c_0x24coremark0x2Ewasm_0x5Fstart+0x14c8>
    ae18:	e50218c0 	str	r1, [r2, #-2240]	@ 0xfffff740
    ae1c:	e59d2000 	ldr	r2, [sp]
    ae20:	e79f3003 	ldr	r3, [pc, r3]
    ae24:	e7923003 	ldr	r3, [r2, r3]
    ae28:	e2833001 	add	r3, r3, #1
    ae2c:	e3530f7d 	cmp	r3, #500	@ 0x1f4
    ae30:	8a0004c2 	bhi	c140 <w2c_0x24coremark0x2Ewasm_0x5Fstart+0x2988>
    ae34:	e59d3014 	ldr	r3, [sp, #20]
    ae38:	e5940030 	ldr	r0, [r4, #48]	@ 0x30
    ae3c:	e2931074 	adds	r1, r3, #116	@ 0x74
    ae40:	e59d3004 	ldr	r3, [sp, #4]
    ae44:	e5942034 	ldr	r2, [r4, #52]	@ 0x34
    ae48:	e2a33000 	adc	r3, r3, #0
    ae4c:	e1500001 	cmp	r0, r1
    ae50:	e0d23003 	sbcs	r3, r2, r3
    ae54:	3afffaf3 	bcc	9a28 <w2c_0x24coremark0x2Ewasm_0x5Fstart+0x270>
    ae58:	e5942010 	ldr	r2, [r4, #16]
    ae5c:	e3a01d11 	mov	r1, #1088	@ 0x440
    ae60:	e59d3008 	ldr	r3, [sp, #8]
    ae64:	e0822003 	add	r2, r2, r3
    ae68:	e51f31ec 	ldr	r3, [pc, #-492]	@ ac84 <w2c_0x24coremark0x2Ewasm_0x5Fstart+0x14cc>
    ae6c:	e50218d0 	str	r1, [r2, #-2256]	@ 0xfffff730
    ae70:	e59d2000 	ldr	r2, [sp]
    ae74:	e79f3003 	ldr	r3, [pc, r3]
    ae78:	e7923003 	ldr	r3, [r2, r3]
    ae7c:	e2833001 	add	r3, r3, #1
    ae80:	e3530f7d 	cmp	r3, #500	@ 0x1f4
    ae84:	8a0004a8 	bhi	c12c <w2c_0x24coremark0x2Ewasm_0x5Fstart+0x2974>
    ae88:	e59d3014 	ldr	r3, [sp, #20]
    ae8c:	e5940030 	ldr	r0, [r4, #48]	@ 0x30
    ae90:	e2931064 	adds	r1, r3, #100	@ 0x64
    ae94:	e59d3004 	ldr	r3, [sp, #4]
    ae98:	e5942034 	ldr	r2, [r4, #52]	@ 0x34
    ae9c:	e2a33000 	adc	r3, r3, #0
    aea0:	e1500001 	cmp	r0, r1
    aea4:	e0d23003 	sbcs	r3, r2, r3
    aea8:	3afffade 	bcc	9a28 <w2c_0x24coremark0x2Ewasm_0x5Fstart+0x270>
    aeac:	e5943010 	ldr	r3, [r4, #16]
    aeb0:	e59d2008 	ldr	r2, [sp, #8]
    aeb4:	e0833002 	add	r3, r3, r2
    aeb8:	e59d2000 	ldr	r2, [sp]
    aebc:	e50358e0 	str	r5, [r3, #-2272]	@ 0xfffff720
    aec0:	e51f3240 	ldr	r3, [pc, #-576]	@ ac88 <w2c_0x24coremark0x2Ewasm_0x5Fstart+0x14d0>
    aec4:	e79f3003 	ldr	r3, [pc, r3]
    aec8:	e7923003 	ldr	r3, [r2, r3]
    aecc:	e2833001 	add	r3, r3, #1
    aed0:	e3530f7d 	cmp	r3, #500	@ 0x1f4
    aed4:	8a00048f 	bhi	c118 <w2c_0x24coremark0x2Ewasm_0x5Fstart+0x2960>
    aed8:	e5947030 	ldr	r7, [r4, #48]	@ 0x30
    aedc:	e594c034 	ldr	ip, [r4, #52]	@ 0x34
    aee0:	e3570e99 	cmp	r7, #2448	@ 0x990
    aee4:	e58d7040 	str	r7, [sp, #64]	@ 0x40
    aee8:	e2dc3000 	sbcs	r3, ip, #0
    aeec:	3afffacd 	bcc	9a28 <w2c_0x24coremark0x2Ewasm_0x5Fstart+0x270>
    aef0:	e5940010 	ldr	r0, [r4, #16]
    aef4:	e590a98c 	ldr	sl, [r0, #2444]	@ 0x98c
    aef8:	e59d3054 	ldr	r3, [sp, #84]	@ 0x54
    aefc:	e1570003 	cmp	r7, r3
    af00:	e59d3058 	ldr	r3, [sp, #88]	@ 0x58
    af04:	e0dc3003 	sbcs	r3, ip, r3
    af08:	3afffac6 	bcc	9a28 <w2c_0x24coremark0x2Ewasm_0x5Fstart+0x270>
    af0c:	e59d305c 	ldr	r3, [sp, #92]	@ 0x5c
    af10:	e7903003 	ldr	r3, [r0, r3]
    af14:	e1e02003 	mvn	r2, r3
    af18:	e2121001 	ands	r1, r2, #1
    af1c:	1a000038 	bne	b004 <w2c_0x24coremark0x2Ewasm_0x5Fstart+0x184c>
    af20:	e35a0000 	cmp	sl, #0
    af24:	0a0003c9 	beq	be50 <w2c_0x24coremark0x2Ewasm_0x5Fstart+0x2698>
    af28:	e59d6008 	ldr	r6, [sp, #8]
    af2c:	e1a0e001 	mov	lr, r1
    af30:	e59d2014 	ldr	r2, [sp, #20]
    af34:	e1a03007 	mov	r3, r7
    af38:	e59d5004 	ldr	r5, [sp, #4]
    af3c:	e2928054 	adds	r8, r2, #84	@ 0x54
    af40:	e2a57000 	adc	r7, r5, #0
    af44:	e1530008 	cmp	r3, r8
    af48:	e0dcc007 	sbcs	ip, ip, r7
    af4c:	3afffab5 	bcc	9a28 <w2c_0x24coremark0x2Ewasm_0x5Fstart+0x270>
    af50:	e0800006 	add	r0, r0, r6
    af54:	e300392c 	movw	r3, #2348	@ 0x92c
    af58:	e50018f0 	str	r1, [r0, #-2288]	@ 0xfffff710
    af5c:	e0921003 	adds	r1, r2, r3
    af60:	e2a53000 	adc	r3, r5, #0
    af64:	e594c030 	ldr	ip, [r4, #48]	@ 0x30
    af68:	e15c0001 	cmp	ip, r1
    af6c:	e5941034 	ldr	r1, [r4, #52]	@ 0x34
    af70:	e0d13003 	sbcs	r3, r1, r3
    af74:	3afffaab 	bcc	9a28 <w2c_0x24coremark0x2Ewasm_0x5Fstart+0x270>
    af78:	e5943010 	ldr	r3, [r4, #16]
    af7c:	e0833006 	add	r3, r3, r6
    af80:	e15301b6 	ldrh	r0, [r3, #-22]	@ 0xffffffea
    af84:	e2928058 	adds	r8, r2, #88	@ 0x58
    af88:	e2a57000 	adc	r7, r5, #0
    af8c:	e15c0008 	cmp	ip, r8
    af90:	e0d11007 	sbcs	r1, r1, r7
    af94:	3afffaa3 	bcc	9a28 <w2c_0x24coremark0x2Ewasm_0x5Fstart+0x270>
    af98:	e50308ec 	str	r0, [r3, #-2284]	@ 0xfffff714
    af9c:	e51f3318 	ldr	r3, [pc, #-792]	@ ac8c <w2c_0x24coremark0x2Ewasm_0x5Fstart+0x14d4>
    afa0:	e59d1000 	ldr	r1, [sp]
    afa4:	e79f3003 	ldr	r3, [pc, r3]
    afa8:	e7913003 	ldr	r3, [r1, r3]
    afac:	e2833001 	add	r3, r3, #1
    afb0:	e3530f7d 	cmp	r3, #500	@ 0x1f4
    afb4:	8a00040a 	bhi	bfe4 <w2c_0x24coremark0x2Ewasm_0x5Fstart+0x282c>
    afb8:	e5943030 	ldr	r3, [r4, #48]	@ 0x30
    afbc:	e594c034 	ldr	ip, [r4, #52]	@ 0x34
    afc0:	e3530e99 	cmp	r3, #2448	@ 0x990
    afc4:	e2dc1000 	sbcs	r1, ip, #0
    afc8:	3afffa96 	bcc	9a28 <w2c_0x24coremark0x2Ewasm_0x5Fstart+0x270>
    afcc:	e5940010 	ldr	r0, [r4, #16]
    afd0:	e590a98c 	ldr	sl, [r0, #2444]	@ 0x98c
    afd4:	e28ee001 	add	lr, lr, #1
    afd8:	e6ff107e 	uxth	r1, lr
    afdc:	e151000a 	cmp	r1, sl
    afe0:	3affffd5 	bcc	af3c <w2c_0x24coremark0x2Ewasm_0x5Fstart+0x1784>
    afe4:	e59d2054 	ldr	r2, [sp, #84]	@ 0x54
    afe8:	e58d3040 	str	r3, [sp, #64]	@ 0x40
    afec:	e1530002 	cmp	r3, r2
    aff0:	e59d3058 	ldr	r3, [sp, #88]	@ 0x58
    aff4:	e0dc3003 	sbcs	r3, ip, r3
    aff8:	3afffa8a 	bcc	9a28 <w2c_0x24coremark0x2Ewasm_0x5Fstart+0x270>
    affc:	e59d305c 	ldr	r3, [sp, #92]	@ 0x5c
    b000:	e7903003 	ldr	r3, [r0, r3]
    b004:	e3130002 	tst	r3, #2
    b008:	0a000037 	beq	b0ec <w2c_0x24coremark0x2Ewasm_0x5Fstart+0x1934>
    b00c:	e35a0000 	cmp	sl, #0
    b010:	0a000390 	beq	be58 <w2c_0x24coremark0x2Ewasm_0x5Fstart+0x26a0>
    b014:	e3a0e000 	mov	lr, #0
    b018:	e59d5008 	ldr	r5, [sp, #8]
    b01c:	e59d2014 	ldr	r2, [sp, #20]
    b020:	e1a0300e 	mov	r3, lr
    b024:	e59d1004 	ldr	r1, [sp, #4]
    b028:	e59d6040 	ldr	r6, [sp, #64]	@ 0x40
    b02c:	e2928044 	adds	r8, r2, #68	@ 0x44
    b030:	e2a17000 	adc	r7, r1, #0
    b034:	e1560008 	cmp	r6, r8
    b038:	e0dcc007 	sbcs	ip, ip, r7
    b03c:	3afffa79 	bcc	9a28 <w2c_0x24coremark0x2Ewasm_0x5Fstart+0x270>
    b040:	e0800005 	add	r0, r0, r5
    b044:	e5003900 	str	r3, [r0, #-2304]	@ 0xfffff700
    b048:	e300392e 	movw	r3, #2350	@ 0x92e
    b04c:	e0920003 	adds	r0, r2, r3
    b050:	e5946030 	ldr	r6, [r4, #48]	@ 0x30
    b054:	e2a13000 	adc	r3, r1, #0
    b058:	e1560000 	cmp	r6, r0
    b05c:	e5940034 	ldr	r0, [r4, #52]	@ 0x34
    b060:	e0d03003 	sbcs	r3, r0, r3
    b064:	3afffa6f 	bcc	9a28 <w2c_0x24coremark0x2Ewasm_0x5Fstart+0x270>
    b068:	e5943010 	ldr	r3, [r4, #16]
    b06c:	e0833005 	add	r3, r3, r5
    b070:	e153c1b4 	ldrh	ip, [r3, #-20]	@ 0xffffffec
    b074:	e2928048 	adds	r8, r2, #72	@ 0x48
    b078:	e2a17000 	adc	r7, r1, #0
    b07c:	e1560008 	cmp	r6, r8
    b080:	e0d00007 	sbcs	r0, r0, r7
    b084:	3afffa67 	bcc	9a28 <w2c_0x24coremark0x2Ewasm_0x5Fstart+0x270>
    b088:	e503c8fc 	str	ip, [r3, #-2300]	@ 0xfffff704
    b08c:	e51f3404 	ldr	r3, [pc, #-1028]	@ ac90 <w2c_0x24coremark0x2Ewasm_0x5Fstart+0x14d8>
    b090:	e59d0000 	ldr	r0, [sp]
    b094:	e79f3003 	ldr	r3, [pc, r3]
    b098:	e7903003 	ldr	r3, [r0, r3]
    b09c:	e2833001 	add	r3, r3, #1
    b0a0:	e3530f7d 	cmp	r3, #500	@ 0x1f4
    b0a4:	8a00040d 	bhi	c0e0 <w2c_0x24coremark0x2Ewasm_0x5Fstart+0x2928>
    b0a8:	e5946030 	ldr	r6, [r4, #48]	@ 0x30
    b0ac:	e594c034 	ldr	ip, [r4, #52]	@ 0x34
    b0b0:	e3560e99 	cmp	r6, #2448	@ 0x990
    b0b4:	e2dc3000 	sbcs	r3, ip, #0
    b0b8:	3afffa5a 	bcc	9a28 <w2c_0x24coremark0x2Ewasm_0x5Fstart+0x270>
    b0bc:	e5940010 	ldr	r0, [r4, #16]
    b0c0:	e590a98c 	ldr	sl, [r0, #2444]	@ 0x98c
    b0c4:	e28ee001 	add	lr, lr, #1
    b0c8:	e6ff307e 	uxth	r3, lr
    b0cc:	e153000a 	cmp	r3, sl
    b0d0:	3affffd5 	bcc	b02c <w2c_0x24coremark0x2Ewasm_0x5Fstart+0x1874>
    b0d4:	e1cd24d8 	ldrd	r2, [sp, #72]	@ 0x48
    b0d8:	e2840010 	add	r0, r4, #16
    b0dc:	ed8d7b06 	vstr	d7, [sp, #24]
    b0e0:	ebffd3c6 	bl	0 <i32_load_default32>
    b0e4:	ed9d7b06 	vldr	d7, [sp, #24]
    b0e8:	e1a03000 	mov	r3, r0
    b0ec:	e3130004 	tst	r3, #4
    b0f0:	0a000032 	beq	b1c0 <w2c_0x24coremark0x2Ewasm_0x5Fstart+0x1a08>
    b0f4:	e35a0000 	cmp	sl, #0
    b0f8:	0a000356 	beq	be58 <w2c_0x24coremark0x2Ewasm_0x5Fstart+0x26a0>
    b0fc:	e3a0e000 	mov	lr, #0
    b100:	e5941030 	ldr	r1, [r4, #48]	@ 0x30
    b104:	e594c034 	ldr	ip, [r4, #52]	@ 0x34
    b108:	e1a0300e 	mov	r3, lr
    b10c:	e59d5008 	ldr	r5, [sp, #8]
    b110:	e59d2014 	ldr	r2, [sp, #20]
    b114:	e59d0004 	ldr	r0, [sp, #4]
    b118:	e2927034 	adds	r7, r2, #52	@ 0x34
    b11c:	e2a06000 	adc	r6, r0, #0
    b120:	e1510007 	cmp	r1, r7
    b124:	e0dcc006 	sbcs	ip, ip, r6
    b128:	3afffa3e 	bcc	9a28 <w2c_0x24coremark0x2Ewasm_0x5Fstart+0x270>
    b12c:	e5941010 	ldr	r1, [r4, #16]
    b130:	e0811005 	add	r1, r1, r5
    b134:	e5013910 	str	r3, [r1, #-2320]	@ 0xfffff6f0
    b138:	e2921e93 	adds	r1, r2, #2352	@ 0x930
    b13c:	e2a03000 	adc	r3, r0, #0
    b140:	e5946030 	ldr	r6, [r4, #48]	@ 0x30
    b144:	e1560001 	cmp	r6, r1
    b148:	e5941034 	ldr	r1, [r4, #52]	@ 0x34
    b14c:	e0d13003 	sbcs	r3, r1, r3
    b150:	3afffa34 	bcc	9a28 <w2c_0x24coremark0x2Ewasm_0x5Fstart+0x270>
    b154:	e5943010 	ldr	r3, [r4, #16]
    b158:	e0833005 	add	r3, r3, r5
    b15c:	e153c1b2 	ldrh	ip, [r3, #-18]	@ 0xffffffee
    b160:	e2928038 	adds	r8, r2, #56	@ 0x38
    b164:	e2a07000 	adc	r7, r0, #0
    b168:	e1560008 	cmp	r6, r8
    b16c:	e0d11007 	sbcs	r1, r1, r7
    b170:	3afffa2c 	bcc	9a28 <w2c_0x24coremark0x2Ewasm_0x5Fstart+0x270>
    b174:	e503c90c 	str	ip, [r3, #-2316]	@ 0xfffff6f4
    b178:	e51f34ec 	ldr	r3, [pc, #-1260]	@ ac94 <w2c_0x24coremark0x2Ewasm_0x5Fstart+0x14dc>
    b17c:	e59d1000 	ldr	r1, [sp]
    b180:	e79f3003 	ldr	r3, [pc, r3]
    b184:	e7913003 	ldr	r3, [r1, r3]
    b188:	e2833001 	add	r3, r3, #1
    b18c:	e3530f7d 	cmp	r3, #500	@ 0x1f4
    b190:	8a0003ce 	bhi	c0d0 <w2c_0x24coremark0x2Ewasm_0x5Fstart+0x2918>
    b194:	e5941030 	ldr	r1, [r4, #48]	@ 0x30
    b198:	e594c034 	ldr	ip, [r4, #52]	@ 0x34
    b19c:	e3510e99 	cmp	r1, #2448	@ 0x990
    b1a0:	e2dc3000 	sbcs	r3, ip, #0
    b1a4:	3afffa1f 	bcc	9a28 <w2c_0x24coremark0x2Ewasm_0x5Fstart+0x270>
    b1a8:	e5943010 	ldr	r3, [r4, #16]
    b1ac:	e593a98c 	ldr	sl, [r3, #2444]	@ 0x98c
    b1b0:	e28ee001 	add	lr, lr, #1
    b1b4:	e6ff307e 	uxth	r3, lr
    b1b8:	e153000a 	cmp	r3, sl
    b1bc:	3affffd5 	bcc	b118 <w2c_0x24coremark0x2Ewasm_0x5Fstart+0x1960>
    b1c0:	e35a0000 	cmp	sl, #0
    b1c4:	0a000323 	beq	be58 <w2c_0x24coremark0x2Ewasm_0x5Fstart+0x26a0>
    b1c8:	e5943030 	ldr	r3, [r4, #48]	@ 0x30
    b1cc:	e3a0a000 	mov	sl, #0
    b1d0:	e594c034 	ldr	ip, [r4, #52]	@ 0x34
    b1d4:	e300592a 	movw	r5, #2346	@ 0x92a
    b1d8:	e59d0008 	ldr	r0, [sp, #8]
    b1dc:	e59d2014 	ldr	r2, [sp, #20]
    b1e0:	e59d1004 	ldr	r1, [sp, #4]
    b1e4:	e2926024 	adds	r6, r2, #36	@ 0x24
    b1e8:	23a0e001 	movcs	lr, #1
    b1ec:	33a0e000 	movcc	lr, #0
    b1f0:	e1530006 	cmp	r3, r6
    b1f4:	e0dcc00e 	sbcs	ip, ip, lr
    b1f8:	3afffa0a 	bcc	9a28 <w2c_0x24coremark0x2Ewasm_0x5Fstart+0x270>
    b1fc:	e5943010 	ldr	r3, [r4, #16]
    b200:	e3a06000 	mov	r6, #0
    b204:	e0833000 	add	r3, r3, r0
    b208:	e5031920 	str	r1, [r3, #-2336]	@ 0xfffff6e0
    b20c:	e0921005 	adds	r1, r2, r5
    b210:	e2a63000 	adc	r3, r6, #0
    b214:	e594e030 	ldr	lr, [r4, #48]	@ 0x30
    b218:	e15e0001 	cmp	lr, r1
    b21c:	e5941034 	ldr	r1, [r4, #52]	@ 0x34
    b220:	e0d13003 	sbcs	r3, r1, r3
    b224:	3afff9ff 	bcc	9a28 <w2c_0x24coremark0x2Ewasm_0x5Fstart+0x270>
    b228:	e5943010 	ldr	r3, [r4, #16]
    b22c:	e0833000 	add	r3, r3, r0
    b230:	e153c1b8 	ldrh	ip, [r3, #-24]	@ 0xffffffe8
    b234:	e2927028 	adds	r7, r2, #40	@ 0x28
    b238:	e2a66000 	adc	r6, r6, #0
    b23c:	e15e0007 	cmp	lr, r7
    b240:	e0d11006 	sbcs	r1, r1, r6
    b244:	3afff9f7 	bcc	9a28 <w2c_0x24coremark0x2Ewasm_0x5Fstart+0x270>
    b248:	e503c91c 	str	ip, [r3, #-2332]	@ 0xfffff6e4
    b24c:	e51f35bc 	ldr	r3, [pc, #-1468]	@ ac98 <w2c_0x24coremark0x2Ewasm_0x5Fstart+0x14e0>
    b250:	e59d1000 	ldr	r1, [sp]
    b254:	e79f3003 	ldr	r3, [pc, r3]
    b258:	e7913003 	ldr	r3, [r1, r3]
    b25c:	e2833001 	add	r3, r3, #1
    b260:	e3530f7d 	cmp	r3, #500	@ 0x1f4
    b264:	8a000439 	bhi	c350 <w2c_0x24coremark0x2Ewasm_0x5Fstart+0x2b98>
    b268:	e5943030 	ldr	r3, [r4, #48]	@ 0x30
    b26c:	e594c034 	ldr	ip, [r4, #52]	@ 0x34
    b270:	e3530e99 	cmp	r3, #2448	@ 0x990
    b274:	e2dc1000 	sbcs	r1, ip, #0
    b278:	3afff9ea 	bcc	9a28 <w2c_0x24coremark0x2Ewasm_0x5Fstart+0x270>
    b27c:	e5941010 	ldr	r1, [r4, #16]
    b280:	e591e98c 	ldr	lr, [r1, #2444]	@ 0x98c
    b284:	e28aa001 	add	sl, sl, #1
    b288:	e6ff107a 	uxth	r1, sl
    b28c:	e151000e 	cmp	r1, lr
    b290:	3affffd3 	bcc	b1e4 <w2c_0x24coremark0x2Ewasm_0x5Fstart+0x1a2c>
    b294:	e58d3040 	str	r3, [sp, #64]	@ 0x40
    b298:	e1dd30bc 	ldrh	r3, [sp, #12]
    b29c:	e59d2000 	ldr	r2, [sp]
    b2a0:	e3530000 	cmp	r3, #0
    b2a4:	e51f3610 	ldr	r3, [pc, #-1552]	@ ac9c <w2c_0x24coremark0x2Ewasm_0x5Fstart+0x14e4>
    b2a8:	e79f3003 	ldr	r3, [pc, r3]
    b2ac:	e7923003 	ldr	r3, [r2, r3]
    b2b0:	e2833001 	add	r3, r3, #1
    b2b4:	0a0002ef 	beq	be78 <w2c_0x24coremark0x2Ewasm_0x5Fstart+0x26c0>
    b2b8:	ea0002f6 	b	be98 <w2c_0x24coremark0x2Ewasm_0x5Fstart+0x26e0>
    b2bc:	e3a00003 	mov	r0, #3
    b2c0:	ebfffffe 	bl	0 <wasm_rt_trap>
    b2c4:	e5941030 	ldr	r1, [r4, #48]	@ 0x30
    b2c8:	e2982004 	adds	r2, r8, #4
    b2cc:	e594c034 	ldr	ip, [r4, #52]	@ 0x34
    b2d0:	e3a07000 	mov	r7, #0
    b2d4:	e2a73000 	adc	r3, r7, #0
    b2d8:	e1510002 	cmp	r1, r2
    b2dc:	e59de044 	ldr	lr, [sp, #68]	@ 0x44
    b2e0:	e1a05008 	mov	r5, r8
    b2e4:	e59da084 	ldr	sl, [sp, #132]	@ 0x84
    b2e8:	e0dc3003 	sbcs	r3, ip, r3
    b2ec:	e59d9088 	ldr	r9, [sp, #136]	@ 0x88
    b2f0:	e58d1040 	str	r1, [sp, #64]	@ 0x40
    b2f4:	3afff9cb 	bcc	9a28 <w2c_0x24coremark0x2Ewasm_0x5Fstart+0x270>
    b2f8:	e5940010 	ldr	r0, [r4, #16]
    b2fc:	e7908008 	ldr	r8, [r0, r8]
    b300:	e1580007 	cmp	r8, r7
    b304:	0a000080 	beq	b50c <w2c_0x24coremark0x2Ewasm_0x5Fstart+0x1d54>
    b308:	e59d2080 	ldr	r2, [sp, #128]	@ 0x80
    b30c:	e30c3ccd 	movw	r3, #52429	@ 0xcccd
    b310:	e34c3ccc 	movt	r3, #52428	@ 0xcccc
    b314:	e58de044 	str	lr, [sp, #68]	@ 0x44
    b318:	e59d6040 	ldr	r6, [sp, #64]	@ 0x40
    b31c:	e3a01001 	mov	r1, #1
    b320:	e59de07c 	ldr	lr, [sp, #124]	@ 0x7c
    b324:	e0832293 	umull	r2, r3, r3, r2
    b328:	e58d9060 	str	r9, [sp, #96]	@ 0x60
    b32c:	e1a02123 	lsr	r2, r3, #2
    b330:	e1a03005 	mov	r3, r5
    b334:	e1a09002 	mov	r9, r2
    b338:	e1a02001 	mov	r2, r1
    b33c:	e2811001 	add	r1, r1, #1
    b340:	e02eb002 	eor	fp, lr, r2
    b344:	e1590002 	cmp	r9, r2
    b348:	e1a05401 	lsl	r5, r1, #8
    b34c:	e7edb05b 	ubfx	fp, fp, #0, #14
    b350:	e2055c07 	and	r5, r5, #1792	@ 0x700
    b354:	918b2005 	orrls	r2, fp, r5
    b358:	e293b008 	adds	fp, r3, #8
    b35c:	e2a75000 	adc	r5, r7, #0
    b360:	e156000b 	cmp	r6, fp
    b364:	e0dc5005 	sbcs	r5, ip, r5
    b368:	3afff9ae 	bcc	9a28 <w2c_0x24coremark0x2Ewasm_0x5Fstart+0x270>
    b36c:	e0803003 	add	r3, r0, r3
    b370:	e5933004 	ldr	r3, [r3, #4]
    b374:	e293b004 	adds	fp, r3, #4
    b378:	e2a75000 	adc	r5, r7, #0
    b37c:	e156000b 	cmp	r6, fp
    b380:	e0dc5005 	sbcs	r5, ip, r5
    b384:	3afff9a7 	bcc	9a28 <w2c_0x24coremark0x2Ewasm_0x5Fstart+0x270>
    b388:	e0803003 	add	r3, r0, r3
    b38c:	e1c320b2 	strh	r2, [r3, #2]
    b390:	e2982004 	adds	r2, r8, #4
    b394:	e2a73000 	adc	r3, r7, #0
    b398:	e5946030 	ldr	r6, [r4, #48]	@ 0x30
    b39c:	e594c034 	ldr	ip, [r4, #52]	@ 0x34
    b3a0:	e1560002 	cmp	r6, r2
    b3a4:	e0dc3003 	sbcs	r3, ip, r3
    b3a8:	3afff99e 	bcc	9a28 <w2c_0x24coremark0x2Ewasm_0x5Fstart+0x270>
    b3ac:	e5940010 	ldr	r0, [r4, #16]
    b3b0:	e7902008 	ldr	r2, [r0, r8]
    b3b4:	e1a03008 	mov	r3, r8
    b3b8:	e3520000 	cmp	r2, #0
    b3bc:	0a00004f 	beq	b500 <w2c_0x24coremark0x2Ewasm_0x5Fstart+0x1d48>
    b3c0:	e1a08002 	mov	r8, r2
    b3c4:	eaffffdb 	b	b338 <w2c_0x24coremark0x2Ewasm_0x5Fstart+0x1b80>
    b3c8:	e59d3040 	ldr	r3, [sp, #64]	@ 0x40
    b3cc:	e3a06001 	mov	r6, #1
    b3d0:	e3e0b000 	mvn	fp, #0
    b3d4:	e2833006 	add	r3, r3, #6
    b3d8:	e58d3044 	str	r3, [sp, #68]	@ 0x44
    b3dc:	e3e03001 	mvn	r3, #1
    b3e0:	e58d3084 	str	r3, [sp, #132]	@ 0x84
    b3e4:	eafffb10 	b	a02c <w2c_0x24coremark0x2Ewasm_0x5Fstart+0x874>
    b3e8:	e1a0600b 	mov	r6, fp
    b3ec:	e59d5008 	ldr	r5, [sp, #8]
    b3f0:	e3a00000 	mov	r0, #0
    b3f4:	e2453028 	sub	r3, r5, #40	@ 0x28
    b3f8:	e293c00c 	adds	ip, r3, #12
    b3fc:	e2a01000 	adc	r1, r0, #0
    b400:	e15e000c 	cmp	lr, ip
    b404:	e0d21001 	sbcs	r1, r2, r1
    b408:	3afff986 	bcc	9a28 <w2c_0x24coremark0x2Ewasm_0x5Fstart+0x270>
    b40c:	e5942010 	ldr	r2, [r4, #16]
    b410:	e1a0e005 	mov	lr, r5
    b414:	e2931008 	adds	r1, r3, #8
    b418:	e0822005 	add	r2, r2, r5
    b41c:	e59d5044 	ldr	r5, [sp, #68]	@ 0x44
    b420:	e5025020 	str	r5, [r2, #-32]	@ 0xffffffe0
    b424:	e2a02000 	adc	r2, r0, #0
    b428:	e594c030 	ldr	ip, [r4, #48]	@ 0x30
    b42c:	e15c0001 	cmp	ip, r1
    b430:	e5941034 	ldr	r1, [r4, #52]	@ 0x34
    b434:	e0d11002 	sbcs	r1, r1, r2
    b438:	3afff97a 	bcc	9a28 <w2c_0x24coremark0x2Ewasm_0x5Fstart+0x270>
    b43c:	e5942010 	ldr	r2, [r4, #16]
    b440:	e59d1060 	ldr	r1, [sp, #96]	@ 0x60
    b444:	e082200e 	add	r2, r2, lr
    b448:	e5021024 	str	r1, [r2, #-36]	@ 0xffffffdc
    b44c:	e2931004 	adds	r1, r3, #4
    b450:	e2a02000 	adc	r2, r0, #0
    b454:	e594c030 	ldr	ip, [r4, #48]	@ 0x30
    b458:	e15c0001 	cmp	ip, r1
    b45c:	e5941034 	ldr	r1, [r4, #52]	@ 0x34
    b460:	e0d11002 	sbcs	r1, r1, r2
    b464:	3afff96f 	bcc	9a28 <w2c_0x24coremark0x2Ewasm_0x5Fstart+0x270>
    b468:	e5942010 	ldr	r2, [r4, #16]
    b46c:	e782b003 	str	fp, [r2, r3]
    b470:	e2933010 	adds	r3, r3, #16
    b474:	e2a02000 	adc	r2, r0, #0
    b478:	e5941030 	ldr	r1, [r4, #48]	@ 0x30
    b47c:	e1510003 	cmp	r1, r3
    b480:	e5943034 	ldr	r3, [r4, #52]	@ 0x34
    b484:	e0d33002 	sbcs	r3, r3, r2
    b488:	3afff966 	bcc	9a28 <w2c_0x24coremark0x2Ewasm_0x5Fstart+0x270>
    b48c:	e5942010 	ldr	r2, [r4, #16]
    b490:	e2453001 	sub	r3, r5, #1
    b494:	e0833086 	add	r3, r3, r6, lsl #1
    b498:	e59d1000 	ldr	r1, [sp]
    b49c:	e082200e 	add	r2, r2, lr
    b4a0:	e3c33003 	bic	r3, r3, #3
    b4a4:	e2833004 	add	r3, r3, #4
    b4a8:	e502301c 	str	r3, [r2, #-28]	@ 0xffffffe4
    b4ac:	e51f3814 	ldr	r3, [pc, #-2068]	@ aca0 <w2c_0x24coremark0x2Ewasm_0x5Fstart+0x14e8>
    b4b0:	e594c034 	ldr	ip, [r4, #52]	@ 0x34
    b4b4:	e79f3003 	ldr	r3, [pc, r3]
    b4b8:	e7912003 	ldr	r2, [r1, r3]
    b4bc:	e51f3820 	ldr	r3, [pc, #-2080]	@ aca4 <w2c_0x24coremark0x2Ewasm_0x5Fstart+0x14ec>
    b4c0:	e2422001 	sub	r2, r2, #1
    b4c4:	e79f3003 	ldr	r3, [pc, r3]
    b4c8:	e7812003 	str	r2, [r1, r3]
    b4cc:	e5943030 	ldr	r3, [r4, #48]	@ 0x30
    b4d0:	e59d2054 	ldr	r2, [sp, #84]	@ 0x54
    b4d4:	e58d3040 	str	r3, [sp, #64]	@ 0x40
    b4d8:	e1530002 	cmp	r3, r2
    b4dc:	e59d3058 	ldr	r3, [sp, #88]	@ 0x58
    b4e0:	e0dc3003 	sbcs	r3, ip, r3
    b4e4:	3afff94f 	bcc	9a28 <w2c_0x24coremark0x2Ewasm_0x5Fstart+0x270>
    b4e8:	e5943010 	ldr	r3, [r4, #16]
    b4ec:	e59d205c 	ldr	r2, [sp, #92]	@ 0x5c
    b4f0:	e7933002 	ldr	r3, [r3, r2]
    b4f4:	e3130004 	tst	r3, #4
    b4f8:	1afffbdc 	bne	a470 <w2c_0x24coremark0x2Ewasm_0x5Fstart+0xcb8>
    b4fc:	eafffca0 	b	a784 <w2c_0x24coremark0x2Ewasm_0x5Fstart+0xfcc>
    b500:	e59de044 	ldr	lr, [sp, #68]	@ 0x44
    b504:	e59d9060 	ldr	r9, [sp, #96]	@ 0x60
    b508:	e58d6040 	str	r6, [sp, #64]	@ 0x40
    b50c:	e58da080 	str	sl, [sp, #128]	@ 0x80
    b510:	e3a00001 	mov	r0, #1
    b514:	e59da040 	ldr	sl, [sp, #64]	@ 0x40
    b518:	e1a0b00e 	mov	fp, lr
    b51c:	e1a05000 	mov	r5, r0
    b520:	e3a06000 	mov	r6, #0
    b524:	e58d907c 	str	r9, [sp, #124]	@ 0x7c
    b528:	e58d6040 	str	r6, [sp, #64]	@ 0x40
    b52c:	e58d6044 	str	r6, [sp, #68]	@ 0x44
    b530:	e3550000 	cmp	r5, #0
    b534:	d1a0300b 	movle	r3, fp
    b538:	d3a02000 	movle	r2, #0
    b53c:	ca0001ba 	bgt	bc2c <w2c_0x24coremark0x2Ewasm_0x5Fstart+0x2474>
    b540:	e1a09005 	mov	r9, r5
    b544:	e58d5060 	str	r5, [sp, #96]	@ 0x60
    b548:	e3520000 	cmp	r2, #0
    b54c:	ca000058 	bgt	b6b4 <w2c_0x24coremark0x2Ewasm_0x5Fstart+0x1efc>
    b550:	e3590000 	cmp	r9, #0
    b554:	da000283 	ble	bf68 <w2c_0x24coremark0x2Ewasm_0x5Fstart+0x27b0>
    b558:	e3530000 	cmp	r3, #0
    b55c:	0a00026e 	beq	bf1c <w2c_0x24coremark0x2Ewasm_0x5Fstart+0x2764>
    b560:	e3520000 	cmp	r2, #0
    b564:	0a0001c1 	beq	bc70 <w2c_0x24coremark0x2Ewasm_0x5Fstart+0x24b8>
    b568:	e29be008 	adds	lr, fp, #8
    b56c:	e3a00000 	mov	r0, #0
    b570:	e2a01000 	adc	r1, r0, #0
    b574:	e15a000e 	cmp	sl, lr
    b578:	e0dc1001 	sbcs	r1, ip, r1
    b57c:	3afff929 	bcc	9a28 <w2c_0x24coremark0x2Ewasm_0x5Fstart+0x270>
    b580:	e594e010 	ldr	lr, [r4, #16]
    b584:	e08e100b 	add	r1, lr, fp
    b588:	e5911004 	ldr	r1, [r1, #4]
    b58c:	e2917002 	adds	r7, r1, #2
    b590:	e2a05000 	adc	r5, r0, #0
    b594:	e15a0007 	cmp	sl, r7
    b598:	e0dc5005 	sbcs	r5, ip, r5
    b59c:	3afff921 	bcc	9a28 <w2c_0x24coremark0x2Ewasm_0x5Fstart+0x270>
    b5a0:	e08e5001 	add	r5, lr, r1
    b5a4:	e5d55001 	ldrb	r5, [r5, #1]
    b5a8:	e2918001 	adds	r8, r1, #1
    b5ac:	e2a07000 	adc	r7, r0, #0
    b5b0:	e15a0008 	cmp	sl, r8
    b5b4:	e0dc7007 	sbcs	r7, ip, r7
    b5b8:	3afff91a 	bcc	9a28 <w2c_0x24coremark0x2Ewasm_0x5Fstart+0x270>
    b5bc:	e7ce5001 	strb	r5, [lr, r1]
    b5c0:	e293c008 	adds	ip, r3, #8
    b5c4:	e2a0e000 	adc	lr, r0, #0
    b5c8:	e5945030 	ldr	r5, [r4, #48]	@ 0x30
    b5cc:	e155000c 	cmp	r5, ip
    b5d0:	e594c034 	ldr	ip, [r4, #52]	@ 0x34
    b5d4:	e0dce00e 	sbcs	lr, ip, lr
    b5d8:	3afff912 	bcc	9a28 <w2c_0x24coremark0x2Ewasm_0x5Fstart+0x270>
    b5dc:	e5947010 	ldr	r7, [r4, #16]
    b5e0:	e087e003 	add	lr, r7, r3
    b5e4:	e59ee004 	ldr	lr, [lr, #4]
    b5e8:	e29ea002 	adds	sl, lr, #2
    b5ec:	e2a08000 	adc	r8, r0, #0
    b5f0:	e155000a 	cmp	r5, sl
    b5f4:	e0dc8008 	sbcs	r8, ip, r8
    b5f8:	3afff90a 	bcc	9a28 <w2c_0x24coremark0x2Ewasm_0x5Fstart+0x270>
    b5fc:	e087800e 	add	r8, r7, lr
    b600:	e5d88001 	ldrb	r8, [r8, #1]
    b604:	e58d8084 	str	r8, [sp, #132]	@ 0x84
    b608:	e29e8001 	adds	r8, lr, #1
    b60c:	e2a0a000 	adc	sl, r0, #0
    b610:	e1550008 	cmp	r5, r8
    b614:	e0dc800a 	sbcs	r8, ip, sl
    b618:	3afff902 	bcc	9a28 <w2c_0x24coremark0x2Ewasm_0x5Fstart+0x270>
    b61c:	e59dc084 	ldr	ip, [sp, #132]	@ 0x84
    b620:	e7c7c00e 	strb	ip, [r7, lr]
    b624:	e291c004 	adds	ip, r1, #4
    b628:	e2a05000 	adc	r5, r0, #0
    b62c:	e594a030 	ldr	sl, [r4, #48]	@ 0x30
    b630:	e15a000c 	cmp	sl, ip
    b634:	e594c034 	ldr	ip, [r4, #52]	@ 0x34
    b638:	e0dc5005 	sbcs	r5, ip, r5
    b63c:	3afff8f9 	bcc	9a28 <w2c_0x24coremark0x2Ewasm_0x5Fstart+0x270>
    b640:	e5945010 	ldr	r5, [r4, #16]
    b644:	e0851001 	add	r1, r5, r1
    b648:	e1d110f2 	ldrsh	r1, [r1, #2]
    b64c:	e29e8004 	adds	r8, lr, #4
    b650:	e2a07000 	adc	r7, r0, #0
    b654:	e15a0008 	cmp	sl, r8
    b658:	e0dc7007 	sbcs	r7, ip, r7
    b65c:	3afff8f1 	bcc	9a28 <w2c_0x24coremark0x2Ewasm_0x5Fstart+0x270>
    b660:	e085e00e 	add	lr, r5, lr
    b664:	e1dee0f2 	ldrsh	lr, [lr, #2]
    b668:	e15e0001 	cmp	lr, r1
    b66c:	ba0001de 	blt	bdec <w2c_0x24coremark0x2Ewasm_0x5Fstart+0x2634>
    b670:	e29b0004 	adds	r0, fp, #4
    b674:	23a01001 	movcs	r1, #1
    b678:	33a01000 	movcc	r1, #0
    b67c:	e15a0000 	cmp	sl, r0
    b680:	e0dc1001 	sbcs	r1, ip, r1
    b684:	3afff8e7 	bcc	9a28 <w2c_0x24coremark0x2Ewasm_0x5Fstart+0x270>
    b688:	e5945010 	ldr	r5, [r4, #16]
    b68c:	e2422001 	sub	r2, r2, #1
    b690:	e795000b 	ldr	r0, [r5, fp]
    b694:	e1a0100b 	mov	r1, fp
    b698:	e1a0b000 	mov	fp, r0
    b69c:	e3560000 	cmp	r6, #0
    b6a0:	1a000009 	bne	b6cc <w2c_0x24coremark0x2Ewasm_0x5Fstart+0x1f14>
    b6a4:	e1a06001 	mov	r6, r1
    b6a8:	e3520000 	cmp	r2, #0
    b6ac:	e58d1040 	str	r1, [sp, #64]	@ 0x40
    b6b0:	daffffa6 	ble	b550 <w2c_0x24coremark0x2Ewasm_0x5Fstart+0x1d98>
    b6b4:	e3530000 	cmp	r3, #0
    b6b8:	13590000 	cmpne	r9, #0
    b6bc:	0affffeb 	beq	b670 <w2c_0x24coremark0x2Ewasm_0x5Fstart+0x1eb8>
    b6c0:	eaffffa8 	b	b568 <w2c_0x24coremark0x2Ewasm_0x5Fstart+0x1db0>
    b6c4:	e1a01003 	mov	r1, r3
    b6c8:	e1a03000 	mov	r3, r0
    b6cc:	e296e004 	adds	lr, r6, #4
    b6d0:	23a00001 	movcs	r0, #1
    b6d4:	33a00000 	movcc	r0, #0
    b6d8:	e15a000e 	cmp	sl, lr
    b6dc:	e0dc0000 	sbcs	r0, ip, r0
    b6e0:	3afff8d0 	bcc	9a28 <w2c_0x24coremark0x2Ewasm_0x5Fstart+0x270>
    b6e4:	e7851006 	str	r1, [r5, r6]
    b6e8:	e1a06001 	mov	r6, r1
    b6ec:	e594a030 	ldr	sl, [r4, #48]	@ 0x30
    b6f0:	e594c034 	ldr	ip, [r4, #52]	@ 0x34
    b6f4:	eaffff93 	b	b548 <w2c_0x24coremark0x2Ewasm_0x5Fstart+0x1d90>
    b6f8:	e3c05003 	bic	r5, r0, #3
    b6fc:	e2898003 	add	r8, r9, #3
    b700:	e58d5084 	str	r5, [sp, #132]	@ 0x84
    b704:	e2825003 	add	r5, r2, #3
    b708:	e3a0e000 	mov	lr, #0
    b70c:	e58d2088 	str	r2, [sp, #136]	@ 0x88
    b710:	e58de080 	str	lr, [sp, #128]	@ 0x80
    b714:	e58d908c 	str	r9, [sp, #140]	@ 0x8c
    b718:	e58d6090 	str	r6, [sp, #144]	@ 0x90
    b71c:	e58d0094 	str	r0, [sp, #148]	@ 0x94
    b720:	e2452003 	sub	r2, r5, #3
    b724:	e2920001 	adds	r0, r2, #1
    b728:	e2ae6000 	adc	r6, lr, #0
    b72c:	e1510000 	cmp	r1, r0
    b730:	e0dc6006 	sbcs	r6, ip, r6
    b734:	3afff8bb 	bcc	9a28 <w2c_0x24coremark0x2Ewasm_0x5Fstart+0x270>
    b738:	e5947010 	ldr	r7, [r4, #16]
    b73c:	e2486003 	sub	r6, r8, #3
    b740:	e7d79002 	ldrb	r9, [r7, r2]
    b744:	e2962001 	adds	r2, r6, #1
    b748:	e2aea000 	adc	sl, lr, #0
    b74c:	e1510002 	cmp	r1, r2
    b750:	e0dcc00a 	sbcs	ip, ip, sl
    b754:	3afff8b3 	bcc	9a28 <w2c_0x24coremark0x2Ewasm_0x5Fstart+0x270>
    b758:	e7c79006 	strb	r9, [r7, r6]
    b75c:	e2900001 	adds	r0, r0, #1
    b760:	e2ae1000 	adc	r1, lr, #0
    b764:	e594c030 	ldr	ip, [r4, #48]	@ 0x30
    b768:	e15c0000 	cmp	ip, r0
    b76c:	e5940034 	ldr	r0, [r4, #52]	@ 0x34
    b770:	e0d01001 	sbcs	r1, r0, r1
    b774:	3afff8ab 	bcc	9a28 <w2c_0x24coremark0x2Ewasm_0x5Fstart+0x270>
    b778:	e5941010 	ldr	r1, [r4, #16]
    b77c:	e0816005 	add	r6, r1, r5
    b780:	e5566002 	ldrb	r6, [r6, #-2]
    b784:	e2922001 	adds	r2, r2, #1
    b788:	e2ae7000 	adc	r7, lr, #0
    b78c:	e15c0002 	cmp	ip, r2
    b790:	e0d07007 	sbcs	r7, r0, r7
    b794:	3afff8a3 	bcc	9a28 <w2c_0x24coremark0x2Ewasm_0x5Fstart+0x270>
    b798:	e0811008 	add	r1, r1, r8
    b79c:	e2452001 	sub	r2, r5, #1
    b7a0:	e2920001 	adds	r0, r2, #1
    b7a4:	e5416002 	strb	r6, [r1, #-2]
    b7a8:	e2ae1000 	adc	r1, lr, #0
    b7ac:	e5947030 	ldr	r7, [r4, #48]	@ 0x30
    b7b0:	e5946034 	ldr	r6, [r4, #52]	@ 0x34
    b7b4:	e1570000 	cmp	r7, r0
    b7b8:	e0d61001 	sbcs	r1, r6, r1
    b7bc:	3afff899 	bcc	9a28 <w2c_0x24coremark0x2Ewasm_0x5Fstart+0x270>
    b7c0:	e5941010 	ldr	r1, [r4, #16]
    b7c4:	e7d10002 	ldrb	r0, [r1, r2]
    b7c8:	e2482001 	sub	r2, r8, #1
    b7cc:	e2929001 	adds	r9, r2, #1
    b7d0:	e2aec000 	adc	ip, lr, #0
    b7d4:	e1570009 	cmp	r7, r9
    b7d8:	e0d6c00c 	sbcs	ip, r6, ip
    b7dc:	3afff891 	bcc	9a28 <w2c_0x24coremark0x2Ewasm_0x5Fstart+0x270>
    b7e0:	e7c10002 	strb	r0, [r1, r2]
    b7e4:	e2952001 	adds	r2, r5, #1
    b7e8:	e2ae0000 	adc	r0, lr, #0
    b7ec:	e5941030 	ldr	r1, [r4, #48]	@ 0x30
    b7f0:	e1510002 	cmp	r1, r2
    b7f4:	e5942034 	ldr	r2, [r4, #52]	@ 0x34
    b7f8:	e0d20000 	sbcs	r0, r2, r0
    b7fc:	3afff889 	bcc	9a28 <w2c_0x24coremark0x2Ewasm_0x5Fstart+0x270>
    b800:	e5940010 	ldr	r0, [r4, #16]
    b804:	e7d0c005 	ldrb	ip, [r0, r5]
    b808:	e2987001 	adds	r7, r8, #1
    b80c:	e2ae6000 	adc	r6, lr, #0
    b810:	e1510007 	cmp	r1, r7
    b814:	e0d26006 	sbcs	r6, r2, r6
    b818:	3afff882 	bcc	9a28 <w2c_0x24coremark0x2Ewasm_0x5Fstart+0x270>
    b81c:	e59d2080 	ldr	r2, [sp, #128]	@ 0x80
    b820:	e2855004 	add	r5, r5, #4
    b824:	e7c0c008 	strb	ip, [r0, r8]
    b828:	e2888004 	add	r8, r8, #4
    b82c:	e59d1084 	ldr	r1, [sp, #132]	@ 0x84
    b830:	e2822004 	add	r2, r2, #4
    b834:	e594c034 	ldr	ip, [r4, #52]	@ 0x34
    b838:	e1510002 	cmp	r1, r2
    b83c:	e58d2080 	str	r2, [sp, #128]	@ 0x80
    b840:	e5941030 	ldr	r1, [r4, #48]	@ 0x30
    b844:	1affffb5 	bne	b720 <w2c_0x24coremark0x2Ewasm_0x5Fstart+0x1f68>
    b848:	e59d0094 	ldr	r0, [sp, #148]	@ 0x94
    b84c:	e59d2088 	ldr	r2, [sp, #136]	@ 0x88
    b850:	e59d908c 	ldr	r9, [sp, #140]	@ 0x8c
    b854:	e210a003 	ands	sl, r0, #3
    b858:	e59d6090 	ldr	r6, [sp, #144]	@ 0x90
    b85c:	0afffb78 	beq	a644 <w2c_0x24coremark0x2Ewasm_0x5Fstart+0xe8c>
    b860:	e59de080 	ldr	lr, [sp, #128]	@ 0x80
    b864:	e082200e 	add	r2, r2, lr
    b868:	e089800e 	add	r8, r9, lr
    b86c:	eafffb58 	b	a5d4 <w2c_0x24coremark0x2Ewasm_0x5Fstart+0xe1c>
    b870:	e3a01000 	mov	r1, #0
    b874:	e58d1010 	str	r1, [sp, #16]
    b878:	e3a01004 	mov	r1, #4
    b87c:	e3530f7d 	cmp	r3, #500	@ 0x1f4
    b880:	8a0000ca 	bhi	bbb0 <w2c_0x24coremark0x2Ewasm_0x5Fstart+0x23f8>
    b884:	e3580e99 	cmp	r8, #2448	@ 0x990
    b888:	e59dc000 	ldr	ip, [sp]
    b88c:	e2d63000 	sbcs	r3, r6, #0
    b890:	e51f3bf0 	ldr	r3, [pc, #-3056]	@ aca8 <w2c_0x24coremark0x2Ewasm_0x5Fstart+0x14f0>
    b894:	e1a00008 	mov	r0, r8
    b898:	e79f3003 	ldr	r3, [pc, r3]
    b89c:	e78c2003 	str	r2, [ip, r3]
    b8a0:	3afff860 	bcc	9a28 <w2c_0x24coremark0x2Ewasm_0x5Fstart+0x270>
    b8a4:	e59a398c 	ldr	r3, [sl, #2444]	@ 0x98c
    b8a8:	e58d300c 	str	r3, [sp, #12]
    b8ac:	e3530000 	cmp	r3, #0
    b8b0:	0afffc80 	beq	aab8 <w2c_0x24coremark0x2Ewasm_0x5Fstart+0x1300>
    b8b4:	e1a01081 	lsl	r1, r1, #1
    b8b8:	e3a03000 	mov	r3, #0
    b8bc:	e2812e8d 	add	r2, r1, #2256	@ 0x8d0
    b8c0:	e59d7008 	ldr	r7, [sp, #8]
    b8c4:	e282200c 	add	r2, r2, #12
    b8c8:	e58d2020 	str	r2, [sp, #32]
    b8cc:	e2812e8d 	add	r2, r1, #2256	@ 0x8d0
    b8d0:	e59d8078 	ldr	r8, [sp, #120]	@ 0x78
    b8d4:	e2822002 	add	r2, r2, #2
    b8d8:	e58d2024 	str	r2, [sp, #36]	@ 0x24
    b8dc:	e2812d23 	add	r2, r1, #2240	@ 0x8c0
    b8e0:	e59dc004 	ldr	ip, [sp, #4]
    b8e4:	e2822008 	add	r2, r2, #8
    b8e8:	e58d2038 	str	r2, [sp, #56]	@ 0x38
    b8ec:	e59d2014 	ldr	r2, [sp, #20]
    b8f0:	e58d503c 	str	r5, [sp, #60]	@ 0x3c
    b8f4:	e1a05003 	mov	r5, r3
    b8f8:	e58d300c 	str	r3, [sp, #12]
    b8fc:	e58d3018 	str	r3, [sp, #24]
    b900:	e59d3064 	ldr	r3, [sp, #100]	@ 0x64
    b904:	e1500003 	cmp	r0, r3
    b908:	e59d3068 	ldr	r3, [sp, #104]	@ 0x68
    b90c:	e0d61003 	sbcs	r1, r6, r3
    b910:	3afff844 	bcc	9a28 <w2c_0x24coremark0x2Ewasm_0x5Fstart+0x270>
    b914:	e5943010 	ldr	r3, [r4, #16]
    b918:	e3a01000 	mov	r1, #0
    b91c:	e18310b8 	strh	r1, [r3, r8]
    b920:	e59d3054 	ldr	r3, [sp, #84]	@ 0x54
    b924:	e5940030 	ldr	r0, [r4, #48]	@ 0x30
    b928:	e5941034 	ldr	r1, [r4, #52]	@ 0x34
    b92c:	e1500003 	cmp	r0, r3
    b930:	e59d3058 	ldr	r3, [sp, #88]	@ 0x58
    b934:	e0d13003 	sbcs	r3, r1, r3
    b938:	3afff83a 	bcc	9a28 <w2c_0x24coremark0x2Ewasm_0x5Fstart+0x270>
    b93c:	e594e010 	ldr	lr, [r4, #16]
    b940:	e59d305c 	ldr	r3, [sp, #92]	@ 0x5c
    b944:	e79e6003 	ldr	r6, [lr, r3]
    b948:	e2163001 	ands	r3, r6, #1
    b94c:	1a0000e3 	bne	bce0 <w2c_0x24coremark0x2Ewasm_0x5Fstart+0x2528>
    b950:	e3160002 	tst	r6, #2
    b954:	0a000041 	beq	ba60 <w2c_0x24coremark0x2Ewasm_0x5Fstart+0x22a8>
    b958:	e300992e 	movw	r9, #2350	@ 0x92e
    b95c:	e0929009 	adds	r9, r2, r9
    b960:	e2aca000 	adc	sl, ip, #0
    b964:	e1500009 	cmp	r0, r9
    b968:	e0d1a00a 	sbcs	sl, r1, sl
    b96c:	3afff82d 	bcc	9a28 <w2c_0x24coremark0x2Ewasm_0x5Fstart+0x270>
    b970:	e08eb007 	add	fp, lr, r7
    b974:	e15b91b4 	ldrh	r9, [fp, #-20]	@ 0xffffffec
    b978:	e59da024 	ldr	sl, [sp, #36]	@ 0x24
    b97c:	e19ea0ba 	ldrh	sl, [lr, sl]
    b980:	e15a0009 	cmp	sl, r9
    b984:	0a000035 	beq	ba60 <w2c_0x24coremark0x2Ewasm_0x5Fstart+0x22a8>
    b988:	e292ef43 	adds	lr, r2, #268	@ 0x10c
    b98c:	e2ac3000 	adc	r3, ip, #0
    b990:	e150000e 	cmp	r0, lr
    b994:	e0d13003 	sbcs	r3, r1, r3
    b998:	3afff822 	bcc	9a28 <w2c_0x24coremark0x2Ewasm_0x5Fstart+0x270>
    b99c:	e50ba838 	str	sl, [fp, #-2104]	@ 0xfffff7c8
    b9a0:	e2921f42 	adds	r1, r2, #264	@ 0x108
    b9a4:	e2ac3000 	adc	r3, ip, #0
    b9a8:	e5940030 	ldr	r0, [r4, #48]	@ 0x30
    b9ac:	e1500001 	cmp	r0, r1
    b9b0:	e5941034 	ldr	r1, [r4, #52]	@ 0x34
    b9b4:	e0d11003 	sbcs	r1, r1, r3
    b9b8:	3afff81a 	bcc	9a28 <w2c_0x24coremark0x2Ewasm_0x5Fstart+0x270>
    b9bc:	e5943010 	ldr	r3, [r4, #16]
    b9c0:	e2921f41 	adds	r1, r2, #260	@ 0x104
    b9c4:	e0833007 	add	r3, r3, r7
    b9c8:	e503983c 	str	r9, [r3, #-2108]	@ 0xfffff7c4
    b9cc:	e2ac3000 	adc	r3, ip, #0
    b9d0:	e5940030 	ldr	r0, [r4, #48]	@ 0x30
    b9d4:	e1500001 	cmp	r0, r1
    b9d8:	e5941034 	ldr	r1, [r4, #52]	@ 0x34
    b9dc:	e0d11003 	sbcs	r1, r1, r3
    b9e0:	3afff810 	bcc	9a28 <w2c_0x24coremark0x2Ewasm_0x5Fstart+0x270>
    b9e4:	e5943010 	ldr	r3, [r4, #16]
    b9e8:	e59d1000 	ldr	r1, [sp]
    b9ec:	e0833007 	add	r3, r3, r7
    b9f0:	e5035840 	str	r5, [r3, #-2112]	@ 0xfffff7c0
    b9f4:	e51f3d50 	ldr	r3, [pc, #-3408]	@ acac <w2c_0x24coremark0x2Ewasm_0x5Fstart+0x14f4>
    b9f8:	e79f3003 	ldr	r3, [pc, r3]
    b9fc:	e7913003 	ldr	r3, [r1, r3]
    ba00:	e2833001 	add	r3, r3, #1
    ba04:	e3530f7d 	cmp	r3, #500	@ 0x1f4
    ba08:	8a0001be 	bhi	c108 <w2c_0x24coremark0x2Ewasm_0x5Fstart+0x2950>
    ba0c:	e5943030 	ldr	r3, [r4, #48]	@ 0x30
    ba10:	e59d1064 	ldr	r1, [sp, #100]	@ 0x64
    ba14:	e1530001 	cmp	r3, r1
    ba18:	e5943034 	ldr	r3, [r4, #52]	@ 0x34
    ba1c:	e59d1068 	ldr	r1, [sp, #104]	@ 0x68
    ba20:	e0d33001 	sbcs	r3, r3, r1
    ba24:	3afff7ff 	bcc	9a28 <w2c_0x24coremark0x2Ewasm_0x5Fstart+0x270>
    ba28:	e5941010 	ldr	r1, [r4, #16]
    ba2c:	e19130b8 	ldrh	r3, [r1, r8]
    ba30:	e2833001 	add	r3, r3, #1
    ba34:	e18130b8 	strh	r3, [r1, r8]
    ba38:	e59d1054 	ldr	r1, [sp, #84]	@ 0x54
    ba3c:	e5940030 	ldr	r0, [r4, #48]	@ 0x30
    ba40:	e59de058 	ldr	lr, [sp, #88]	@ 0x58
    ba44:	e1500001 	cmp	r0, r1
    ba48:	e5941034 	ldr	r1, [r4, #52]	@ 0x34
    ba4c:	e0d1e00e 	sbcs	lr, r1, lr
    ba50:	3afff7f4 	bcc	9a28 <w2c_0x24coremark0x2Ewasm_0x5Fstart+0x270>
    ba54:	e594e010 	ldr	lr, [r4, #16]
    ba58:	e59d605c 	ldr	r6, [sp, #92]	@ 0x5c
    ba5c:	e79e6006 	ldr	r6, [lr, r6]
    ba60:	e3160004 	tst	r6, #4
    ba64:	0a000037 	beq	bb48 <w2c_0x24coremark0x2Ewasm_0x5Fstart+0x2390>
    ba68:	e2929e93 	adds	r9, r2, #2352	@ 0x930
    ba6c:	e2ac6000 	adc	r6, ip, #0
    ba70:	e1500009 	cmp	r0, r9
    ba74:	e0d16006 	sbcs	r6, r1, r6
    ba78:	3afff7ea 	bcc	9a28 <w2c_0x24coremark0x2Ewasm_0x5Fstart+0x270>
    ba7c:	e08e9007 	add	r9, lr, r7
    ba80:	e15961b2 	ldrh	r6, [r9, #-18]	@ 0xffffffee
    ba84:	e59da020 	ldr	sl, [sp, #32]
    ba88:	e19ee0ba 	ldrh	lr, [lr, sl]
    ba8c:	e15e0006 	cmp	lr, r6
    ba90:	0a00002c 	beq	bb48 <w2c_0x24coremark0x2Ewasm_0x5Fstart+0x2390>
    ba94:	e292a0fc 	adds	sl, r2, #252	@ 0xfc
    ba98:	e2ac3000 	adc	r3, ip, #0
    ba9c:	e150000a 	cmp	r0, sl
    baa0:	e0d13003 	sbcs	r3, r1, r3
    baa4:	3afff7df 	bcc	9a28 <w2c_0x24coremark0x2Ewasm_0x5Fstart+0x270>
    baa8:	e509e848 	str	lr, [r9, #-2120]	@ 0xfffff7b8
    baac:	e29210f8 	adds	r1, r2, #248	@ 0xf8
    bab0:	e2ac3000 	adc	r3, ip, #0
    bab4:	e5940030 	ldr	r0, [r4, #48]	@ 0x30
    bab8:	e1500001 	cmp	r0, r1
    babc:	e5941034 	ldr	r1, [r4, #52]	@ 0x34
    bac0:	e0d11003 	sbcs	r1, r1, r3
    bac4:	3afff7d7 	bcc	9a28 <w2c_0x24coremark0x2Ewasm_0x5Fstart+0x270>
    bac8:	e5943010 	ldr	r3, [r4, #16]
    bacc:	e29210f4 	adds	r1, r2, #244	@ 0xf4
    bad0:	e0833007 	add	r3, r3, r7
    bad4:	e503684c 	str	r6, [r3, #-2124]	@ 0xfffff7b4
    bad8:	e2ac3000 	adc	r3, ip, #0
    badc:	e5940030 	ldr	r0, [r4, #48]	@ 0x30
    bae0:	e1500001 	cmp	r0, r1
    bae4:	e5941034 	ldr	r1, [r4, #52]	@ 0x34
    bae8:	e0d11003 	sbcs	r1, r1, r3
    baec:	3afff7cd 	bcc	9a28 <w2c_0x24coremark0x2Ewasm_0x5Fstart+0x270>
    baf0:	e5943010 	ldr	r3, [r4, #16]
    baf4:	e59d1000 	ldr	r1, [sp]
    baf8:	e0833007 	add	r3, r3, r7
    bafc:	e5035850 	str	r5, [r3, #-2128]	@ 0xfffff7b0
    bb00:	e51f3e58 	ldr	r3, [pc, #-3672]	@ acb0 <w2c_0x24coremark0x2Ewasm_0x5Fstart+0x14f8>
    bb04:	e79f3003 	ldr	r3, [pc, r3]
    bb08:	e7913003 	ldr	r3, [r1, r3]
    bb0c:	e2833001 	add	r3, r3, #1
    bb10:	e3530f7d 	cmp	r3, #500	@ 0x1f4
    bb14:	8a00012a 	bhi	bfc4 <w2c_0x24coremark0x2Ewasm_0x5Fstart+0x280c>
    bb18:	e5943030 	ldr	r3, [r4, #48]	@ 0x30
    bb1c:	e59d1064 	ldr	r1, [sp, #100]	@ 0x64
    bb20:	e1530001 	cmp	r3, r1
    bb24:	e5943034 	ldr	r3, [r4, #52]	@ 0x34
    bb28:	e59d1068 	ldr	r1, [sp, #104]	@ 0x68
    bb2c:	e0d33001 	sbcs	r3, r3, r1
    bb30:	3afff7bc 	bcc	9a28 <w2c_0x24coremark0x2Ewasm_0x5Fstart+0x270>
    bb34:	e5941010 	ldr	r1, [r4, #16]
    bb38:	e19130b8 	ldrh	r3, [r1, r8]
    bb3c:	e2833001 	add	r3, r3, #1
    bb40:	e18130b8 	strh	r3, [r1, r8]
    bb44:	e1c403d0 	ldrd	r0, [r4, #48]	@ 0x30
    bb48:	e3500e99 	cmp	r0, #2448	@ 0x990
    bb4c:	e2d1e000 	sbcs	lr, r1, #0
    bb50:	e1a06001 	mov	r6, r1
    bb54:	3afff7b3 	bcc	9a28 <w2c_0x24coremark0x2Ewasm_0x5Fstart+0x270>
    bb58:	e59d100c 	ldr	r1, [sp, #12]
    bb5c:	e0813003 	add	r3, r1, r3
    bb60:	e58d300c 	str	r3, [sp, #12]
    bb64:	e5943010 	ldr	r3, [r4, #16]
    bb68:	e593398c 	ldr	r3, [r3, #2444]	@ 0x98c
    bb6c:	e59d1018 	ldr	r1, [sp, #24]
    bb70:	e2811001 	add	r1, r1, #1
    bb74:	e58d1018 	str	r1, [sp, #24]
    bb78:	e6ff5071 	uxth	r5, r1
    bb7c:	e1550003 	cmp	r5, r3
    bb80:	3affff5e 	bcc	b900 <w2c_0x24coremark0x2Ewasm_0x5Fstart+0x2148>
    bb84:	e51f3ed8 	ldr	r3, [pc, #-3800]	@ acb4 <w2c_0x24coremark0x2Ewasm_0x5Fstart+0x14fc>
    bb88:	e59d2000 	ldr	r2, [sp]
    bb8c:	e59d503c 	ldr	r5, [sp, #60]	@ 0x3c
    bb90:	e79f3003 	ldr	r3, [pc, r3]
    bb94:	e7922003 	ldr	r2, [r2, r3]
    bb98:	e2823001 	add	r3, r2, #1
    bb9c:	eafffbc3 	b	aab0 <w2c_0x24coremark0x2Ewasm_0x5Fstart+0x12f8>
    bba0:	e51f2ef0 	ldr	r2, [pc, #-3824]	@ acb8 <w2c_0x24coremark0x2Ewasm_0x5Fstart+0x1500>
    bba4:	e59d1000 	ldr	r1, [sp]
    bba8:	e79f2002 	ldr	r2, [pc, r2]
    bbac:	e7813002 	str	r3, [r1, r2]
    bbb0:	e3a0000a 	mov	r0, #10
    bbb4:	ebfffffe 	bl	0 <wasm_rt_trap>
    bbb8:	e59d207c 	ldr	r2, [sp, #124]	@ 0x7c
    bbbc:	e089900b 	add	r9, r9, fp
    bbc0:	e59d1040 	ldr	r1, [sp, #64]	@ 0x40
    bbc4:	e59da080 	ldr	sl, [sp, #128]	@ 0x80
    bbc8:	e1560002 	cmp	r6, r2
    bbcc:	e59d2084 	ldr	r2, [sp, #132]	@ 0x84
    bbd0:	e594e030 	ldr	lr, [r4, #48]	@ 0x30
    bbd4:	e0811002 	add	r1, r1, r2
    bbd8:	e08aa002 	add	sl, sl, r2
    bbdc:	e58d1040 	str	r1, [sp, #64]	@ 0x40
    bbe0:	e5942034 	ldr	r2, [r4, #52]	@ 0x34
    bbe4:	0a0000ec 	beq	bf9c <w2c_0x24coremark0x2Ewasm_0x5Fstart+0x27e4>
    bbe8:	e59d107c 	ldr	r1, [sp, #124]	@ 0x7c
    bbec:	e2811001 	add	r1, r1, #1
    bbf0:	e58d107c 	str	r1, [sp, #124]	@ 0x7c
    bbf4:	eafff918 	b	a05c <w2c_0x24coremark0x2Ewasm_0x5Fstart+0x8a4>
    bbf8:	e30e19f5 	movw	r1, #59893	@ 0xe9f5
    bbfc:	e1500001 	cmp	r0, r1
    bc00:	0a000088 	beq	be28 <w2c_0x24coremark0x2Ewasm_0x5Fstart+0x2670>
    bc04:	e3081a02 	movw	r1, #35330	@ 0x8a02
    bc08:	e1500001 	cmp	r0, r1
    bc0c:	0a000082 	beq	be1c <w2c_0x24coremark0x2Ewasm_0x5Fstart+0x2664>
    bc10:	e3071b05 	movw	r1, #31493	@ 0x7b05
    bc14:	e1500001 	cmp	r0, r1
    bc18:	e3a01000 	mov	r1, #0
    bc1c:	e58d1010 	str	r1, [sp, #16]
    bc20:	03a01001 	moveq	r1, #1
    bc24:	1afffb9f 	bne	aaa8 <w2c_0x24coremark0x2Ewasm_0x5Fstart+0x12f0>
    bc28:	eaffff13 	b	b87c <w2c_0x24coremark0x2Ewasm_0x5Fstart+0x20c4>
    bc2c:	e3a02000 	mov	r2, #0
    bc30:	e1a0300b 	mov	r3, fp
    bc34:	e1a08002 	mov	r8, r2
    bc38:	ea000006 	b	bc58 <w2c_0x24coremark0x2Ewasm_0x5Fstart+0x24a0>
    bc3c:	e5941010 	ldr	r1, [r4, #16]
    bc40:	e7913003 	ldr	r3, [r1, r3]
    bc44:	e2822001 	add	r2, r2, #1
    bc48:	e3530000 	cmp	r3, #0
    bc4c:	0afffe3b 	beq	b540 <w2c_0x24coremark0x2Ewasm_0x5Fstart+0x1d88>
    bc50:	e1550002 	cmp	r5, r2
    bc54:	0afffe39 	beq	b540 <w2c_0x24coremark0x2Ewasm_0x5Fstart+0x1d88>
    bc58:	e2930004 	adds	r0, r3, #4
    bc5c:	e2a81000 	adc	r1, r8, #0
    bc60:	e15a0000 	cmp	sl, r0
    bc64:	e0dc1001 	sbcs	r1, ip, r1
    bc68:	2afffff3 	bcs	bc3c <w2c_0x24coremark0x2Ewasm_0x5Fstart+0x2484>
    bc6c:	eafff76d 	b	9a28 <w2c_0x24coremark0x2Ewasm_0x5Fstart+0x270>
    bc70:	e1a01002 	mov	r1, r2
    bc74:	e293e004 	adds	lr, r3, #4
    bc78:	e2a10000 	adc	r0, r1, #0
    bc7c:	e15a000e 	cmp	sl, lr
    bc80:	e0dc0000 	sbcs	r0, ip, r0
    bc84:	3afff767 	bcc	9a28 <w2c_0x24coremark0x2Ewasm_0x5Fstart+0x270>
    bc88:	e5945010 	ldr	r5, [r4, #16]
    bc8c:	e2499001 	sub	r9, r9, #1
    bc90:	e7950003 	ldr	r0, [r5, r3]
    bc94:	e3560000 	cmp	r6, #0
    bc98:	1afffe89 	bne	b6c4 <w2c_0x24coremark0x2Ewasm_0x5Fstart+0x1f0c>
    bc9c:	e3590000 	cmp	r9, #0
    bca0:	0a0000fd 	beq	c09c <w2c_0x24coremark0x2Ewasm_0x5Fstart+0x28e4>
    bca4:	e3500000 	cmp	r0, #0
    bca8:	e1a06003 	mov	r6, r3
    bcac:	e58d3040 	str	r3, [sp, #64]	@ 0x40
    bcb0:	0a0000f4 	beq	c088 <w2c_0x24coremark0x2Ewasm_0x5Fstart+0x28d0>
    bcb4:	e1a03000 	mov	r3, r0
    bcb8:	eaffffed 	b	bc74 <w2c_0x24coremark0x2Ewasm_0x5Fstart+0x24bc>
    bcbc:	e1a01005 	mov	r1, r5
    bcc0:	e1a00004 	mov	r0, r4
    bcc4:	ebffd8d0 	bl	200c <w2c_0x24coremark0x2Ewasm_free>
    bcc8:	e1a0100b 	mov	r1, fp
    bccc:	e1a00004 	mov	r0, r4
    bcd0:	ebffd8cd 	bl	200c <w2c_0x24coremark0x2Ewasm_free>
    bcd4:	e3a01047 	mov	r1, #71	@ 0x47
    bcd8:	e1a00004 	mov	r0, r4
    bcdc:	ebffd0e1 	bl	68 <w2c_0x24coremark0x2Ewasm_0x5FExit>
    bce0:	e300392c 	movw	r3, #2348	@ 0x92c
    bce4:	e0923003 	adds	r3, r2, r3
    bce8:	e2ac9000 	adc	r9, ip, #0
    bcec:	e1500003 	cmp	r0, r3
    bcf0:	e0d19009 	sbcs	r9, r1, r9
    bcf4:	3afff74b 	bcc	9a28 <w2c_0x24coremark0x2Ewasm_0x5Fstart+0x270>
    bcf8:	e08ea007 	add	sl, lr, r7
    bcfc:	e15a31b6 	ldrh	r3, [sl, #-22]	@ 0xffffffea
    bd00:	e59d9038 	ldr	r9, [sp, #56]	@ 0x38
    bd04:	e19e90b9 	ldrh	r9, [lr, r9]
    bd08:	e1590003 	cmp	r9, r3
    bd0c:	0a0000a6 	beq	bfac <w2c_0x24coremark0x2Ewasm_0x5Fstart+0x27f4>
    bd10:	e2926f47 	adds	r6, r2, #284	@ 0x11c
    bd14:	e2ace000 	adc	lr, ip, #0
    bd18:	e1500006 	cmp	r0, r6
    bd1c:	e0d1e00e 	sbcs	lr, r1, lr
    bd20:	3afff740 	bcc	9a28 <w2c_0x24coremark0x2Ewasm_0x5Fstart+0x270>
    bd24:	e50a9828 	str	r9, [sl, #-2088]	@ 0xfffff7d8
    bd28:	e2920f46 	adds	r0, r2, #280	@ 0x118
    bd2c:	e2ac1000 	adc	r1, ip, #0
    bd30:	e594e030 	ldr	lr, [r4, #48]	@ 0x30
    bd34:	e15e0000 	cmp	lr, r0
    bd38:	e5940034 	ldr	r0, [r4, #52]	@ 0x34
    bd3c:	e0d00001 	sbcs	r0, r0, r1
    bd40:	3afff738 	bcc	9a28 <w2c_0x24coremark0x2Ewasm_0x5Fstart+0x270>
    bd44:	e5941010 	ldr	r1, [r4, #16]
    bd48:	e0811007 	add	r1, r1, r7
    bd4c:	e501382c 	str	r3, [r1, #-2092]	@ 0xfffff7d4
    bd50:	e2921f45 	adds	r1, r2, #276	@ 0x114
    bd54:	e2ac3000 	adc	r3, ip, #0
    bd58:	e5940030 	ldr	r0, [r4, #48]	@ 0x30
    bd5c:	e1500001 	cmp	r0, r1
    bd60:	e5941034 	ldr	r1, [r4, #52]	@ 0x34
    bd64:	e0d11003 	sbcs	r1, r1, r3
    bd68:	3afff72e 	bcc	9a28 <w2c_0x24coremark0x2Ewasm_0x5Fstart+0x270>
    bd6c:	e5943010 	ldr	r3, [r4, #16]
    bd70:	e59d1000 	ldr	r1, [sp]
    bd74:	e0833007 	add	r3, r3, r7
    bd78:	e5035830 	str	r5, [r3, #-2096]	@ 0xfffff7d0
    bd7c:	e59f35dc 	ldr	r3, [pc, #1500]	@ c360 <w2c_0x24coremark0x2Ewasm_0x5Fstart+0x2ba8>
    bd80:	e79f3003 	ldr	r3, [pc, r3]
    bd84:	e7913003 	ldr	r3, [r1, r3]
    bd88:	e2833001 	add	r3, r3, #1
    bd8c:	e3530f7d 	cmp	r3, #500	@ 0x1f4
    bd90:	8a000087 	bhi	bfb4 <w2c_0x24coremark0x2Ewasm_0x5Fstart+0x27fc>
    bd94:	e5943030 	ldr	r3, [r4, #48]	@ 0x30
    bd98:	e59d1064 	ldr	r1, [sp, #100]	@ 0x64
    bd9c:	e1530001 	cmp	r3, r1
    bda0:	e5943034 	ldr	r3, [r4, #52]	@ 0x34
    bda4:	e59d1068 	ldr	r1, [sp, #104]	@ 0x68
    bda8:	e0d33001 	sbcs	r3, r3, r1
    bdac:	3afff71d 	bcc	9a28 <w2c_0x24coremark0x2Ewasm_0x5Fstart+0x270>
    bdb0:	e5941010 	ldr	r1, [r4, #16]
    bdb4:	e19130b8 	ldrh	r3, [r1, r8]
    bdb8:	e2833001 	add	r3, r3, #1
    bdbc:	e18130b8 	strh	r3, [r1, r8]
    bdc0:	e59d1054 	ldr	r1, [sp, #84]	@ 0x54
    bdc4:	e5940030 	ldr	r0, [r4, #48]	@ 0x30
    bdc8:	e59de058 	ldr	lr, [sp, #88]	@ 0x58
    bdcc:	e1500001 	cmp	r0, r1
    bdd0:	e5941034 	ldr	r1, [r4, #52]	@ 0x34
    bdd4:	e0d1e00e 	sbcs	lr, r1, lr
    bdd8:	3afff712 	bcc	9a28 <w2c_0x24coremark0x2Ewasm_0x5Fstart+0x270>
    bddc:	e594e010 	ldr	lr, [r4, #16]
    bde0:	e59d605c 	ldr	r6, [sp, #92]	@ 0x5c
    bde4:	e79e6006 	ldr	r6, [lr, r6]
    bde8:	eafffed8 	b	b950 <w2c_0x24coremark0x2Ewasm_0x5Fstart+0x2198>
    bdec:	e2931004 	adds	r1, r3, #4
    bdf0:	e2a00000 	adc	r0, r0, #0
    bdf4:	e15a0001 	cmp	sl, r1
    bdf8:	e0dc0000 	sbcs	r0, ip, r0
    bdfc:	3afff709 	bcc	9a28 <w2c_0x24coremark0x2Ewasm_0x5Fstart+0x270>
    be00:	e7950003 	ldr	r0, [r5, r3]
    be04:	e2499001 	sub	r9, r9, #1
    be08:	e1a01003 	mov	r1, r3
    be0c:	e1a03000 	mov	r3, r0
    be10:	eafffe21 	b	b69c <w2c_0x24coremark0x2Ewasm_0x5Fstart+0x1ee4>
    be14:	e3a00005 	mov	r0, #5
    be18:	ebfffffe 	bl	0 <wasm_rt_trap>
    be1c:	e3a01000 	mov	r1, #0
    be20:	e58d1010 	str	r1, [sp, #16]
    be24:	eafffe94 	b	b87c <w2c_0x24coremark0x2Ewasm_0x5Fstart+0x20c4>
    be28:	e3a01001 	mov	r1, #1
    be2c:	e58d1010 	str	r1, [sp, #16]
    be30:	e3a01003 	mov	r1, #3
    be34:	eafffe90 	b	b87c <w2c_0x24coremark0x2Ewasm_0x5Fstart+0x20c4>
    be38:	e59f3524 	ldr	r3, [pc, #1316]	@ c364 <w2c_0x24coremark0x2Ewasm_0x5Fstart+0x2bac>
    be3c:	e2422001 	sub	r2, r2, #1
    be40:	e59d1000 	ldr	r1, [sp]
    be44:	e79f3003 	ldr	r3, [pc, r3]
    be48:	e7812003 	str	r2, [r1, r3]
    be4c:	eafff6d8 	b	99b4 <w2c_0x24coremark0x2Ewasm_0x5Fstart+0x1fc>
    be50:	e213a002 	ands	sl, r3, #2
    be54:	0afffca4 	beq	b0ec <w2c_0x24coremark0x2Ewasm_0x5Fstart+0x1934>
    be58:	e1dd30bc 	ldrh	r3, [sp, #12]
    be5c:	e59d2000 	ldr	r2, [sp]
    be60:	e3530000 	cmp	r3, #0
    be64:	e59f34fc 	ldr	r3, [pc, #1276]	@ c368 <w2c_0x24coremark0x2Ewasm_0x5Fstart+0x2bb0>
    be68:	e79f3003 	ldr	r3, [pc, r3]
    be6c:	e7923003 	ldr	r3, [r2, r3]
    be70:	e2833001 	add	r3, r3, #1
    be74:	1a00011c 	bne	c2ec <w2c_0x24coremark0x2Ewasm_0x5Fstart+0x2b34>
    be78:	e3530f7d 	cmp	r3, #500	@ 0x1f4
    be7c:	8a000115 	bhi	c2d8 <w2c_0x24coremark0x2Ewasm_0x5Fstart+0x2b20>
    be80:	e59d2010 	ldr	r2, [sp, #16]
    be84:	e3520001 	cmp	r2, #1
    be88:	0a0000bc 	beq	c180 <w2c_0x24coremark0x2Ewasm_0x5Fstart+0x29c8>
    be8c:	e594c034 	ldr	ip, [r4, #52]	@ 0x34
    be90:	e5942030 	ldr	r2, [r4, #48]	@ 0x30
    be94:	e58d2040 	str	r2, [sp, #64]	@ 0x40
    be98:	e59d2040 	ldr	r2, [sp, #64]	@ 0x40
    be9c:	e59d1030 	ldr	r1, [sp, #48]	@ 0x30
    bea0:	e1520001 	cmp	r2, r1
    bea4:	e59d2034 	ldr	r2, [sp, #52]	@ 0x34
    bea8:	e59d1000 	ldr	r1, [sp]
    beac:	e0dc2002 	sbcs	r2, ip, r2
    beb0:	e59f24b4 	ldr	r2, [pc, #1204]	@ c36c <w2c_0x24coremark0x2Ewasm_0x5Fstart+0x2bb4>
    beb4:	e79f2002 	ldr	r2, [pc, r2]
    beb8:	e7813002 	str	r3, [r1, r2]
    bebc:	3a0000ae 	bcc	c17c <w2c_0x24coremark0x2Ewasm_0x5Fstart+0x29c4>
    bec0:	e5942010 	ldr	r2, [r4, #16]
    bec4:	e3a01000 	mov	r1, #0
    bec8:	e59d002c 	ldr	r0, [sp, #44]	@ 0x2c
    becc:	e59f349c 	ldr	r3, [pc, #1180]	@ c370 <w2c_0x24coremark0x2Ewasm_0x5Fstart+0x2bb8>
    bed0:	e7c21000 	strb	r1, [r2, r0]
    bed4:	e59d2028 	ldr	r2, [sp, #40]	@ 0x28
    bed8:	e79f3003 	ldr	r3, [pc, r3]
    bedc:	e5842004 	str	r2, [r4, #4]
    bee0:	e59d2000 	ldr	r2, [sp]
    bee4:	e7923003 	ldr	r3, [r2, r3]
    bee8:	e2432002 	sub	r2, r3, #2
    beec:	e3520f7d 	cmp	r2, #500	@ 0x1f4
    bef0:	8a000111 	bhi	c33c <w2c_0x24coremark0x2Ewasm_0x5Fstart+0x2b84>
    bef4:	e30021f6 	movw	r2, #502	@ 0x1f6
    bef8:	e1530002 	cmp	r3, r2
    befc:	0a000108 	beq	c324 <w2c_0x24coremark0x2Ewasm_0x5Fstart+0x2b6c>
    bf00:	e59f246c 	ldr	r2, [pc, #1132]	@ c374 <w2c_0x24coremark0x2Ewasm_0x5Fstart+0x2bbc>
    bf04:	e2433004 	sub	r3, r3, #4
    bf08:	e59d1000 	ldr	r1, [sp]
    bf0c:	e79f2002 	ldr	r2, [pc, r2]
    bf10:	e7813002 	str	r3, [r1, r2]
    bf14:	e28dd09c 	add	sp, sp, #156	@ 0x9c
    bf18:	e8bd8ff0 	pop	{r4, r5, r6, r7, r8, r9, sl, fp, pc}
    bf1c:	e59d0060 	ldr	r0, [sp, #96]	@ 0x60
    bf20:	e1a03006 	mov	r3, r6
    bf24:	e59d7044 	ldr	r7, [sp, #68]	@ 0x44
    bf28:	e59d907c 	ldr	r9, [sp, #124]	@ 0x7c
    bf2c:	e59db040 	ldr	fp, [sp, #64]	@ 0x40
    bf30:	e2935004 	adds	r5, r3, #4
    bf34:	e3a01000 	mov	r1, #0
    bf38:	e2a1e000 	adc	lr, r1, #0
    bf3c:	e15a0005 	cmp	sl, r5
    bf40:	e0dce00e 	sbcs	lr, ip, lr
    bf44:	3afff6b7 	bcc	9a28 <w2c_0x24coremark0x2Ewasm_0x5Fstart+0x270>
    bf48:	e594c010 	ldr	ip, [r4, #16]
    bf4c:	e1570001 	cmp	r7, r1
    bf50:	e1a00080 	lsl	r0, r0, #1
    bf54:	e78c1003 	str	r1, [ip, r3]
    bf58:	0a000025 	beq	bff4 <w2c_0x24coremark0x2Ewasm_0x5Fstart+0x283c>
    bf5c:	e594a030 	ldr	sl, [r4, #48]	@ 0x30
    bf60:	e594c034 	ldr	ip, [r4, #52]	@ 0x34
    bf64:	eafffd6c 	b	b51c <w2c_0x24coremark0x2Ewasm_0x5Fstart+0x1d64>
    bf68:	e59d5060 	ldr	r5, [sp, #96]	@ 0x60
    bf6c:	e1a00003 	mov	r0, r3
    bf70:	e59db040 	ldr	fp, [sp, #64]	@ 0x40
    bf74:	e1a03006 	mov	r3, r6
    bf78:	e3500000 	cmp	r0, #0
    bf7c:	0a000014 	beq	bfd4 <w2c_0x24coremark0x2Ewasm_0x5Fstart+0x281c>
    bf80:	e59d2044 	ldr	r2, [sp, #68]	@ 0x44
    bf84:	e1a06003 	mov	r6, r3
    bf88:	e58db040 	str	fp, [sp, #64]	@ 0x40
    bf8c:	e1a0b000 	mov	fp, r0
    bf90:	e2822001 	add	r2, r2, #1
    bf94:	e58d2044 	str	r2, [sp, #68]	@ 0x44
    bf98:	eafffd64 	b	b530 <w2c_0x24coremark0x2Ewasm_0x5Fstart+0x1d78>
    bf9c:	e59d6088 	ldr	r6, [sp, #136]	@ 0x88
    bfa0:	e59da08c 	ldr	sl, [sp, #140]	@ 0x8c
    bfa4:	e59d9090 	ldr	r9, [sp, #144]	@ 0x90
    bfa8:	eafffd0f 	b	b3ec <w2c_0x24coremark0x2Ewasm_0x5Fstart+0x1c34>
    bfac:	e3a03000 	mov	r3, #0
    bfb0:	eafffe66 	b	b950 <w2c_0x24coremark0x2Ewasm_0x5Fstart+0x2198>
    bfb4:	e59f23bc 	ldr	r2, [pc, #956]	@ c378 <w2c_0x24coremark0x2Ewasm_0x5Fstart+0x2bc0>
    bfb8:	e79f2002 	ldr	r2, [pc, r2]
    bfbc:	e7813002 	str	r3, [r1, r2]
    bfc0:	eafffefa 	b	bbb0 <w2c_0x24coremark0x2Ewasm_0x5Fstart+0x23f8>
    bfc4:	e59f23b0 	ldr	r2, [pc, #944]	@ c37c <w2c_0x24coremark0x2Ewasm_0x5Fstart+0x2bc4>
    bfc8:	e79f2002 	ldr	r2, [pc, r2]
    bfcc:	e7813002 	str	r3, [r1, r2]
    bfd0:	eafffef6 	b	bbb0 <w2c_0x24coremark0x2Ewasm_0x5Fstart+0x23f8>
    bfd4:	e59d7044 	ldr	r7, [sp, #68]	@ 0x44
    bfd8:	e1a00005 	mov	r0, r5
    bfdc:	e59d907c 	ldr	r9, [sp, #124]	@ 0x7c
    bfe0:	eaffffd2 	b	bf30 <w2c_0x24coremark0x2Ewasm_0x5Fstart+0x2778>
    bfe4:	e59f2394 	ldr	r2, [pc, #916]	@ c380 <w2c_0x24coremark0x2Ewasm_0x5Fstart+0x2bc8>
    bfe8:	e79f2002 	ldr	r2, [pc, r2]
    bfec:	e7813002 	str	r3, [r1, r2]
    bff0:	eafffeee 	b	bbb0 <w2c_0x24coremark0x2Ewasm_0x5Fstart+0x23f8>
    bff4:	e59f3388 	ldr	r3, [pc, #904]	@ c384 <w2c_0x24coremark0x2Ewasm_0x5Fstart+0x2bcc>
    bff8:	e59d1000 	ldr	r1, [sp]
    bffc:	e59d0014 	ldr	r0, [sp, #20]
    c000:	e59da080 	ldr	sl, [sp, #128]	@ 0x80
    c004:	e79f3003 	ldr	r3, [pc, r3]
    c008:	e7912003 	ldr	r2, [r1, r3]
    c00c:	e59f3374 	ldr	r3, [pc, #884]	@ c388 <w2c_0x24coremark0x2Ewasm_0x5Fstart+0x2bd0>
    c010:	e2422001 	sub	r2, r2, #1
    c014:	e79f3003 	ldr	r3, [pc, r3]
    c018:	e7812003 	str	r2, [r1, r3]
    c01c:	e3003918 	movw	r3, #2328	@ 0x918
    c020:	e5941030 	ldr	r1, [r4, #48]	@ 0x30
    c024:	e0903003 	adds	r3, r0, r3
    c028:	e59d0004 	ldr	r0, [sp, #4]
    c02c:	e5942034 	ldr	r2, [r4, #52]	@ 0x34
    c030:	e2a00000 	adc	r0, r0, #0
    c034:	e1510003 	cmp	r1, r3
    c038:	e0d20000 	sbcs	r0, r2, r0
    c03c:	3afff679 	bcc	9a28 <w2c_0x24coremark0x2Ewasm_0x5Fstart+0x270>
    c040:	e5943010 	ldr	r3, [r4, #16]
    c044:	e59d2008 	ldr	r2, [sp, #8]
    c048:	e0833002 	add	r3, r3, r2
    c04c:	e59d2054 	ldr	r2, [sp, #84]	@ 0x54
    c050:	e503b02c 	str	fp, [r3, #-44]	@ 0xffffffd4
    c054:	e5943030 	ldr	r3, [r4, #48]	@ 0x30
    c058:	e594c034 	ldr	ip, [r4, #52]	@ 0x34
    c05c:	e1530002 	cmp	r3, r2
    c060:	e58d3040 	str	r3, [sp, #64]	@ 0x40
    c064:	e59d3058 	ldr	r3, [sp, #88]	@ 0x58
    c068:	e0dc3003 	sbcs	r3, ip, r3
    c06c:	3afff66d 	bcc	9a28 <w2c_0x24coremark0x2Ewasm_0x5Fstart+0x270>
    c070:	e5943010 	ldr	r3, [r4, #16]
    c074:	e59d205c 	ldr	r2, [sp, #92]	@ 0x5c
    c078:	e7933002 	ldr	r3, [r3, r2]
    c07c:	e3130002 	tst	r3, #2
    c080:	0afffd1b 	beq	b4f4 <w2c_0x24coremark0x2Ewasm_0x5Fstart+0x1d3c>
    c084:	eafff7a7 	b	9f28 <w2c_0x24coremark0x2Ewasm_0x5Fstart+0x770>
    c088:	e59d0060 	ldr	r0, [sp, #96]	@ 0x60
    c08c:	e1a0b003 	mov	fp, r3
    c090:	e59d7044 	ldr	r7, [sp, #68]	@ 0x44
    c094:	e59d907c 	ldr	r9, [sp, #124]	@ 0x7c
    c098:	eaffffa4 	b	bf30 <w2c_0x24coremark0x2Ewasm_0x5Fstart+0x2778>
    c09c:	e59d5060 	ldr	r5, [sp, #96]	@ 0x60
    c0a0:	e1a0b003 	mov	fp, r3
    c0a4:	eaffffb3 	b	bf78 <w2c_0x24coremark0x2Ewasm_0x5Fstart+0x27c0>
    c0a8:	e59f22dc 	ldr	r2, [pc, #732]	@ c38c <w2c_0x24coremark0x2Ewasm_0x5Fstart+0x2bd4>
    c0ac:	e59d1000 	ldr	r1, [sp]
    c0b0:	e79f2002 	ldr	r2, [pc, r2]
    c0b4:	e7813002 	str	r3, [r1, r2]
    c0b8:	eafffebc 	b	bbb0 <w2c_0x24coremark0x2Ewasm_0x5Fstart+0x23f8>
    c0bc:	e59f22cc 	ldr	r2, [pc, #716]	@ c390 <w2c_0x24coremark0x2Ewasm_0x5Fstart+0x2bd8>
    c0c0:	e59d1000 	ldr	r1, [sp]
    c0c4:	e79f2002 	ldr	r2, [pc, r2]
    c0c8:	e7813002 	str	r3, [r1, r2]
    c0cc:	eafffeb7 	b	bbb0 <w2c_0x24coremark0x2Ewasm_0x5Fstart+0x23f8>
    c0d0:	e59f22bc 	ldr	r2, [pc, #700]	@ c394 <w2c_0x24coremark0x2Ewasm_0x5Fstart+0x2bdc>
    c0d4:	e79f2002 	ldr	r2, [pc, r2]
    c0d8:	e7813002 	str	r3, [r1, r2]
    c0dc:	eafffeb3 	b	bbb0 <w2c_0x24coremark0x2Ewasm_0x5Fstart+0x23f8>
    c0e0:	e59f22b0 	ldr	r2, [pc, #688]	@ c398 <w2c_0x24coremark0x2Ewasm_0x5Fstart+0x2be0>
    c0e4:	e79f2002 	ldr	r2, [pc, r2]
    c0e8:	e7803002 	str	r3, [r0, r2]
    c0ec:	eafffeaf 	b	bbb0 <w2c_0x24coremark0x2Ewasm_0x5Fstart+0x23f8>
    c0f0:	e59d2040 	ldr	r2, [sp, #64]	@ 0x40
    c0f4:	e2822001 	add	r2, r2, #1
    c0f8:	e58d2040 	str	r2, [sp, #64]	@ 0x40
    c0fc:	e1a00102 	lsl	r0, r2, #2
    c100:	e200001c 	and	r0, r0, #28
    c104:	eafff910 	b	a54c <w2c_0x24coremark0x2Ewasm_0x5Fstart+0xd94>
    c108:	e59f228c 	ldr	r2, [pc, #652]	@ c39c <w2c_0x24coremark0x2Ewasm_0x5Fstart+0x2be4>
    c10c:	e79f2002 	ldr	r2, [pc, r2]
    c110:	e7813002 	str	r3, [r1, r2]
    c114:	eafffea5 	b	bbb0 <w2c_0x24coremark0x2Ewasm_0x5Fstart+0x23f8>
    c118:	e59f2280 	ldr	r2, [pc, #640]	@ c3a0 <w2c_0x24coremark0x2Ewasm_0x5Fstart+0x2be8>
    c11c:	e59d1000 	ldr	r1, [sp]
    c120:	e79f2002 	ldr	r2, [pc, r2]
    c124:	e7813002 	str	r3, [r1, r2]
    c128:	eafffea0 	b	bbb0 <w2c_0x24coremark0x2Ewasm_0x5Fstart+0x23f8>
    c12c:	e59f2270 	ldr	r2, [pc, #624]	@ c3a4 <w2c_0x24coremark0x2Ewasm_0x5Fstart+0x2bec>
    c130:	e59d1000 	ldr	r1, [sp]
    c134:	e79f2002 	ldr	r2, [pc, r2]
    c138:	e7813002 	str	r3, [r1, r2]
    c13c:	eafffe9b 	b	bbb0 <w2c_0x24coremark0x2Ewasm_0x5Fstart+0x23f8>
    c140:	e59f2260 	ldr	r2, [pc, #608]	@ c3a8 <w2c_0x24coremark0x2Ewasm_0x5Fstart+0x2bf0>
    c144:	e59d1000 	ldr	r1, [sp]
    c148:	e79f2002 	ldr	r2, [pc, r2]
    c14c:	e7813002 	str	r3, [r1, r2]
    c150:	eafffe96 	b	bbb0 <w2c_0x24coremark0x2Ewasm_0x5Fstart+0x23f8>
    c154:	e59f2250 	ldr	r2, [pc, #592]	@ c3ac <w2c_0x24coremark0x2Ewasm_0x5Fstart+0x2bf4>
    c158:	e59d1000 	ldr	r1, [sp]
    c15c:	e79f2002 	ldr	r2, [pc, r2]
    c160:	e7813002 	str	r3, [r1, r2]
    c164:	eafffe91 	b	bbb0 <w2c_0x24coremark0x2Ewasm_0x5Fstart+0x23f8>
    c168:	e59f2240 	ldr	r2, [pc, #576]	@ c3b0 <w2c_0x24coremark0x2Ewasm_0x5Fstart+0x2bf8>
    c16c:	e59d1000 	ldr	r1, [sp]
    c170:	e79f2002 	ldr	r2, [pc, r2]
    c174:	e7813002 	str	r3, [r1, r2]
    c178:	eafffe8c 	b	bbb0 <w2c_0x24coremark0x2Ewasm_0x5Fstart+0x23f8>
    c17c:	ebffcfd4 	bl	d4 <f64_store_default32.part.0>
    c180:	e5940030 	ldr	r0, [r4, #48]	@ 0x30
    c184:	e5941034 	ldr	r1, [r4, #52]	@ 0x34
    c188:	e3500e99 	cmp	r0, #2448	@ 0x990
    c18c:	e2d13000 	sbcs	r3, r1, #0
    c190:	3afff624 	bcc	9a28 <w2c_0x24coremark0x2Ewasm_0x5Fstart+0x270>
    c194:	e5942010 	ldr	r2, [r4, #16]
    c198:	e592698c 	ldr	r6, [r2, #2444]	@ 0x98c
    c19c:	e59d3048 	ldr	r3, [sp, #72]	@ 0x48
    c1a0:	e1500003 	cmp	r0, r3
    c1a4:	e59d304c 	ldr	r3, [sp, #76]	@ 0x4c
    c1a8:	e0d13003 	sbcs	r3, r1, r3
    c1ac:	3afff61d 	bcc	9a28 <w2c_0x24coremark0x2Ewasm_0x5Fstart+0x270>
    c1b0:	e59d3050 	ldr	r3, [sp, #80]	@ 0x50
    c1b4:	e7923003 	ldr	r3, [r2, r3]
    c1b8:	e59dc014 	ldr	ip, [sp, #20]
    c1bc:	e29ce020 	adds	lr, ip, #32
    c1c0:	23a0c001 	movcs	ip, #1
    c1c4:	33a0c000 	movcc	ip, #0
    c1c8:	e150000e 	cmp	r0, lr
    c1cc:	e0d1c00c 	sbcs	ip, r1, ip
    c1d0:	3a000052 	bcc	c320 <w2c_0x24coremark0x2Ewasm_0x5Fstart+0x2b68>
    c1d4:	e59dc008 	ldr	ip, [sp, #8]
    c1d8:	e3001432 	movw	r1, #1074	@ 0x432
    c1dc:	e59de014 	ldr	lr, [sp, #20]
    c1e0:	e3a05000 	mov	r5, #0
    c1e4:	e082200c 	add	r2, r2, ip
    c1e8:	e5021924 	str	r1, [r2, #-2340]	@ 0xfffff6dc
    c1ec:	e29e201c 	adds	r2, lr, #28
    c1f0:	e2a51000 	adc	r1, r5, #0
    c1f4:	e5940030 	ldr	r0, [r4, #48]	@ 0x30
    c1f8:	e1500002 	cmp	r0, r2
    c1fc:	e5942034 	ldr	r2, [r4, #52]	@ 0x34
    c200:	e0d22001 	sbcs	r2, r2, r1
    c204:	3a000045 	bcc	c320 <w2c_0x24coremark0x2Ewasm_0x5Fstart+0x2b68>
    c208:	e5942010 	ldr	r2, [r4, #16]
    c20c:	e30014ab 	movw	r1, #1195	@ 0x4ab
    c210:	e082200c 	add	r2, r2, ip
    c214:	e5021928 	str	r1, [r2, #-2344]	@ 0xfffff6d8
    c218:	e29e2018 	adds	r2, lr, #24
    c21c:	e2a51000 	adc	r1, r5, #0
    c220:	e5940030 	ldr	r0, [r4, #48]	@ 0x30
    c224:	e1500002 	cmp	r0, r2
    c228:	e5942034 	ldr	r2, [r4, #52]	@ 0x34
    c22c:	e0d22001 	sbcs	r2, r2, r1
    c230:	3a000039 	bcc	c31c <w2c_0x24coremark0x2Ewasm_0x5Fstart+0x2b64>
    c234:	e0030396 	mul	r3, r6, r3
    c238:	e59d2008 	ldr	r2, [sp, #8]
    c23c:	ee063a90 	vmov	s13, r3
    c240:	e5943010 	ldr	r3, [r4, #16]
    c244:	eef80b66 	vcvt.f64.u32	d16, s13
    c248:	e0833002 	add	r3, r3, r2
    c24c:	e59f2160 	ldr	r2, [pc, #352]	@ c3b4 <w2c_0x24coremark0x2Ewasm_0x5Fstart+0x2bfc>
    c250:	eec00b87 	vdiv.f64	d16, d16, d7
    c254:	ec510b30 	vmov	r0, r1, d16
    c258:	e5030930 	str	r0, [r3, #-2352]	@ 0xfffff6d0
    c25c:	e503192c 	str	r1, [r3, #-2348]	@ 0xfffff6d4
    c260:	e59d3000 	ldr	r3, [sp]
    c264:	e79f2002 	ldr	r2, [pc, r2]
    c268:	e7933002 	ldr	r3, [r3, r2]
    c26c:	e2833001 	add	r3, r3, #1
    c270:	e3530f7d 	cmp	r3, #500	@ 0x1f4
    c274:	8a000023 	bhi	c308 <w2c_0x24coremark0x2Ewasm_0x5Fstart+0x2b50>
    c278:	e59d0014 	ldr	r0, [sp, #20]
    c27c:	e5941030 	ldr	r1, [r4, #48]	@ 0x30
    c280:	e2903004 	adds	r3, r0, #4
    c284:	23a02001 	movcs	r2, #1
    c288:	33a02000 	movcc	r2, #0
    c28c:	e1510003 	cmp	r1, r3
    c290:	e5943034 	ldr	r3, [r4, #52]	@ 0x34
    c294:	e0d33002 	sbcs	r3, r3, r2
    c298:	3a000020 	bcc	c320 <w2c_0x24coremark0x2Ewasm_0x5Fstart+0x2b68>
    c29c:	e5942010 	ldr	r2, [r4, #16]
    c2a0:	e3a01d11 	mov	r1, #1088	@ 0x440
    c2a4:	e59f310c 	ldr	r3, [pc, #268]	@ c3b8 <w2c_0x24coremark0x2Ewasm_0x5Fstart+0x2c00>
    c2a8:	e7821000 	str	r1, [r2, r0]
    c2ac:	e59d2000 	ldr	r2, [sp]
    c2b0:	e79f3003 	ldr	r3, [pc, r3]
    c2b4:	e7923003 	ldr	r3, [r2, r3]
    c2b8:	e2833001 	add	r3, r3, #1
    c2bc:	e3530f7d 	cmp	r3, #500	@ 0x1f4
    c2c0:	9afffef1 	bls	be8c <w2c_0x24coremark0x2Ewasm_0x5Fstart+0x26d4>
    c2c4:	e59f20f0 	ldr	r2, [pc, #240]	@ c3bc <w2c_0x24coremark0x2Ewasm_0x5Fstart+0x2c04>
    c2c8:	e59d1000 	ldr	r1, [sp]
    c2cc:	e79f2002 	ldr	r2, [pc, r2]
    c2d0:	e7813002 	str	r3, [r1, r2]
    c2d4:	eafffe35 	b	bbb0 <w2c_0x24coremark0x2Ewasm_0x5Fstart+0x23f8>
    c2d8:	e59f20e0 	ldr	r2, [pc, #224]	@ c3c0 <w2c_0x24coremark0x2Ewasm_0x5Fstart+0x2c08>
    c2dc:	e59d1000 	ldr	r1, [sp]
    c2e0:	e79f2002 	ldr	r2, [pc, r2]
    c2e4:	e7813002 	str	r3, [r1, r2]
    c2e8:	eafffe30 	b	bbb0 <w2c_0x24coremark0x2Ewasm_0x5Fstart+0x23f8>
    c2ec:	e59f20d0 	ldr	r2, [pc, #208]	@ c3c4 <w2c_0x24coremark0x2Ewasm_0x5Fstart+0x2c0c>
    c2f0:	e3530f7d 	cmp	r3, #500	@ 0x1f4
    c2f4:	e59d1000 	ldr	r1, [sp]
    c2f8:	e79f2002 	ldr	r2, [pc, r2]
    c2fc:	e7813002 	str	r3, [r1, r2]
    c300:	9afffee1 	bls	be8c <w2c_0x24coremark0x2Ewasm_0x5Fstart+0x26d4>
    c304:	eafffe29 	b	bbb0 <w2c_0x24coremark0x2Ewasm_0x5Fstart+0x23f8>
    c308:	e59f20b8 	ldr	r2, [pc, #184]	@ c3c8 <w2c_0x24coremark0x2Ewasm_0x5Fstart+0x2c10>
    c30c:	e59d1000 	ldr	r1, [sp]
    c310:	e79f2002 	ldr	r2, [pc, r2]
    c314:	e7813002 	str	r3, [r1, r2]
    c318:	eafffe24 	b	bbb0 <w2c_0x24coremark0x2Ewasm_0x5Fstart+0x23f8>
    c31c:	ebffcf6c 	bl	d4 <f64_store_default32.part.0>
    c320:	ebffcf6b 	bl	d4 <f64_store_default32.part.0>
    c324:	e59f30a0 	ldr	r3, [pc, #160]	@ c3cc <w2c_0x24coremark0x2Ewasm_0x5Fstart+0x2c14>
    c328:	e30021f5 	movw	r2, #501	@ 0x1f5
    c32c:	e59d1000 	ldr	r1, [sp]
    c330:	e79f3003 	ldr	r3, [pc, r3]
    c334:	e7812003 	str	r2, [r1, r3]
    c338:	eafffe1c 	b	bbb0 <w2c_0x24coremark0x2Ewasm_0x5Fstart+0x23f8>
    c33c:	e59f308c 	ldr	r3, [pc, #140]	@ c3d0 <w2c_0x24coremark0x2Ewasm_0x5Fstart+0x2c18>
    c340:	e59d1000 	ldr	r1, [sp]
    c344:	e79f3003 	ldr	r3, [pc, r3]
    c348:	e7812003 	str	r2, [r1, r3]
    c34c:	eafffe17 	b	bbb0 <w2c_0x24coremark0x2Ewasm_0x5Fstart+0x23f8>
    c350:	e59f207c 	ldr	r2, [pc, #124]	@ c3d4 <w2c_0x24coremark0x2Ewasm_0x5Fstart+0x2c1c>
    c354:	e79f2002 	ldr	r2, [pc, r2]
    c358:	e7813002 	str	r3, [r1, r2]
    c35c:	eafffe13 	b	bbb0 <w2c_0x24coremark0x2Ewasm_0x5Fstart+0x23f8>
    c360:	000005d8 	.word	0x000005d8
    c364:	00000518 	.word	0x00000518
    c368:	000004f8 	.word	0x000004f8
    c36c:	000004b0 	.word	0x000004b0
    c370:	00000490 	.word	0x00000490
    c374:	00000460 	.word	0x00000460
    c378:	000003b8 	.word	0x000003b8
    c37c:	000003ac 	.word	0x000003ac
    c380:	00000390 	.word	0x00000390
    c384:	00000378 	.word	0x00000378
    c388:	0000036c 	.word	0x0000036c
    c38c:	000002d4 	.word	0x000002d4
    c390:	000002c4 	.word	0x000002c4
    c394:	000002b8 	.word	0x000002b8
    c398:	000002ac 	.word	0x000002ac
    c39c:	00000288 	.word	0x00000288
    c3a0:	00000278 	.word	0x00000278
    c3a4:	00000268 	.word	0x00000268
    c3a8:	00000258 	.word	0x00000258
    c3ac:	00000248 	.word	0x00000248
    c3b0:	00000238 	.word	0x00000238
    c3b4:	00000148 	.word	0x00000148
    c3b8:	00000100 	.word	0x00000100
    c3bc:	000000e8 	.word	0x000000e8
    c3c0:	000000d8 	.word	0x000000d8
    c3c4:	000000c4 	.word	0x000000c4
    c3c8:	000000b0 	.word	0x000000b0
    c3cc:	00000094 	.word	0x00000094
    c3d0:	00000084 	.word	0x00000084
    c3d4:	00000078 	.word	0x00000078

0000c3d8 <wasm2c_0x24coremark0x2Ewasm_instantiate>:
    c3d8:	e92d4030 	push	{r4, r5, lr}
    c3dc:	e1a04000 	mov	r4, r0
    c3e0:	e24dd01c 	sub	sp, sp, #28
    c3e4:	e58d1014 	str	r1, [sp, #20]
    c3e8:	ebfffffe 	bl	0 <wasm_rt_is_initialized>
    c3ec:	e59d1014 	ldr	r1, [sp, #20]
    c3f0:	e3500000 	cmp	r0, #0
    c3f4:	0a00002b 	beq	c4a8 <wasm2c_0x24coremark0x2Ewasm_instantiate+0xd0>
    c3f8:	e3a02001 	mov	r2, #1
    c3fc:	e3a05000 	mov	r5, #0
    c400:	e2840040 	add	r0, r4, #64	@ 0x40
    c404:	e5841000 	str	r1, [r4]
    c408:	e3a03eba 	mov	r3, #2976	@ 0xba0
    c40c:	e3403001 	movt	r3, #1
    c410:	e1a01002 	mov	r1, r2
    c414:	e9840028 	stmib	r4, {r3, r5}
    c418:	ebfffffe 	bl	0 <wasm_rt_allocate_funcref_table>
    c41c:	e3a01801 	mov	r1, #65536	@ 0x10000
    c420:	e3a02801 	mov	r2, #65536	@ 0x10000
    c424:	e3a03000 	mov	r3, #0
    c428:	e58d5008 	str	r5, [sp, #8]
    c42c:	e2840010 	add	r0, r4, #16
    c430:	e1cd20f0 	strd	r2, [sp]
    c434:	e3a02002 	mov	r2, #2
    c438:	e3a03000 	mov	r3, #0
    c43c:	e58d100c 	str	r1, [sp, #12]
    c440:	ebfffffe 	bl	0 <wasm_rt_allocate_memory>
    c444:	e3005984 	movw	r5, #2436	@ 0x984
    c448:	e1c423d0 	ldrd	r2, [r4, #48]	@ 0x30
    c44c:	e1520005 	cmp	r2, r5
    c450:	e2d33000 	sbcs	r3, r3, #0
    c454:	3a000011 	bcc	c4a0 <wasm2c_0x24coremark0x2Ewasm_instantiate+0xc8>
    c458:	e5940010 	ldr	r0, [r4, #16]
    c45c:	e3002584 	movw	r2, #1412	@ 0x584
    c460:	e59f1060 	ldr	r1, [pc, #96]	@ c4c8 <wasm2c_0x24coremark0x2Ewasm_instantiate+0xf0>
    c464:	e2800b01 	add	r0, r0, #1024	@ 0x400
    c468:	ebfffffe 	bl	0 <memcpy>
    c46c:	e1c423d0 	ldrd	r2, [r4, #48]	@ 0x30
    c470:	e3520e99 	cmp	r2, #2448	@ 0x990
    c474:	e2d33000 	sbcs	r3, r3, #0
    c478:	3a000008 	bcc	c4a0 <wasm2c_0x24coremark0x2Ewasm_instantiate+0xc8>
    c47c:	e594c010 	ldr	ip, [r4, #16]
    c480:	e59f3044 	ldr	r3, [pc, #68]	@ c4cc <wasm2c_0x24coremark0x2Ewasm_instantiate+0xf4>
    c484:	e08c5005 	add	r5, ip, r5
    c488:	e8b30007 	ldm	r3!, {r0, r1, r2}
    c48c:	e58c0984 	str	r0, [ip, #2436]	@ 0x984
    c490:	e5851004 	str	r1, [r5, #4]
    c494:	e5852008 	str	r2, [r5, #8]
    c498:	e28dd01c 	add	sp, sp, #28
    c49c:	e8bd8030 	pop	{r4, r5, pc}
    c4a0:	e3a00001 	mov	r0, #1
    c4a4:	ebfffffe 	bl	0 <wasm_rt_trap>
    c4a8:	e3003000 	movw	r3, #0
    c4ac:	e3403000 	movt	r3, #0
    c4b0:	e3001000 	movw	r1, #0
    c4b4:	e3401000 	movt	r1, #0
    c4b8:	e3000000 	movw	r0, #0
    c4bc:	e3400000 	movt	r0, #0
    c4c0:	e30023c9 	movw	r2, #969	@ 0x3c9
    c4c4:	ebfffffe 	bl	0 <__assert_fail>
    c4c8:	00000030 	.word	0x00000030
    c4cc:	000005b4 	.word	0x000005b4

0000c4d0 <wasm2c_0x24coremark0x2Ewasm_free>:
    c4d0:	e92d4010 	push	{r4, lr}
    c4d4:	e1a04000 	mov	r4, r0
    c4d8:	e2800040 	add	r0, r0, #64	@ 0x40
    c4dc:	ebfffffe 	bl	0 <wasm_rt_free_funcref_table>
    c4e0:	e2840010 	add	r0, r4, #16
    c4e4:	e8bd4010 	pop	{r4, lr}
    c4e8:	eafffffe 	b	0 <wasm_rt_free_memory>

0000c4ec <wasm2c_0x24coremark0x2Ewasm_get_func_type>:
    c4ec:	e92d000e 	push	{r1, r2, r3}
    c4f0:	e92d4010 	push	{r4, lr}
    c4f4:	e24dd00c 	sub	sp, sp, #12
    c4f8:	e59d2014 	ldr	r2, [sp, #20]
    c4fc:	e2421001 	sub	r1, r2, #1
    c500:	e16f1f11 	clz	r1, r1
    c504:	e1a012a1 	lsr	r1, r1, #5
    c508:	e3500002 	cmp	r0, #2
    c50c:	13a03000 	movne	r3, #0
    c510:	02013001 	andeq	r3, r1, #1
    c514:	e3530000 	cmp	r3, #0
    c518:	1a00006b 	bne	c6cc <wasm2c_0x24coremark0x2Ewasm_get_func_type+0x1e0>
    c51c:	e240e001 	sub	lr, r0, #1
    c520:	e16f3f12 	clz	r3, r2
    c524:	e16fef1e 	clz	lr, lr
    c528:	e1a032a3 	lsr	r3, r3, #5
    c52c:	e1a0e2ae 	lsr	lr, lr, #5
    c530:	e01ec003 	ands	ip, lr, r3
    c534:	1a00002c 	bne	c5ec <wasm2c_0x24coremark0x2Ewasm_get_func_type+0x100>
    c538:	e1902002 	orrs	r2, r0, r2
    c53c:	0a00007c 	beq	c734 <wasm2c_0x24coremark0x2Ewasm_get_func_type+0x248>
    c540:	e2402003 	sub	r2, r0, #3
    c544:	e16f2f12 	clz	r2, r2
    c548:	e1a022a2 	lsr	r2, r2, #5
    c54c:	e0114002 	ands	r4, r1, r2
    c550:	1a00003e 	bne	c650 <wasm2c_0x24coremark0x2Ewasm_get_func_type+0x164>
    c554:	e011c00e 	ands	ip, r1, lr
    c558:	0a000007 	beq	c57c <wasm2c_0x24coremark0x2Ewasm_get_func_type+0x90>
    c55c:	e59de018 	ldr	lr, [sp, #24]
    c560:	e35e0000 	cmp	lr, #0
    c564:	e28de018 	add	lr, sp, #24
    c568:	e58de004 	str	lr, [sp, #4]
    c56c:	1a000002 	bne	c57c <wasm2c_0x24coremark0x2Ewasm_get_func_type+0x90>
    c570:	e59de01c 	ldr	lr, [sp, #28]
    c574:	e35e0000 	cmp	lr, #0
    c578:	0a000080 	beq	c780 <wasm2c_0x24coremark0x2Ewasm_get_func_type+0x294>
    c57c:	e3500005 	cmp	r0, #5
    c580:	13a0e000 	movne	lr, #0
    c584:	0201e001 	andeq	lr, r1, #1
    c588:	e35e0000 	cmp	lr, #0
    c58c:	0a00007d 	beq	c788 <wasm2c_0x24coremark0x2Ewasm_get_func_type+0x29c>
    c590:	e59d2018 	ldr	r2, [sp, #24]
    c594:	e28d3018 	add	r3, sp, #24
    c598:	e58d3004 	str	r3, [sp, #4]
    c59c:	e3520000 	cmp	r2, #0
    c5a0:	1a000056 	bne	c700 <wasm2c_0x24coremark0x2Ewasm_get_func_type+0x214>
    c5a4:	e59d201c 	ldr	r2, [sp, #28]
    c5a8:	e3520000 	cmp	r2, #0
    c5ac:	1a000053 	bne	c700 <wasm2c_0x24coremark0x2Ewasm_get_func_type+0x214>
    c5b0:	e59d2020 	ldr	r2, [sp, #32]
    c5b4:	e3520000 	cmp	r2, #0
    c5b8:	1a000050 	bne	c700 <wasm2c_0x24coremark0x2Ewasm_get_func_type+0x214>
    c5bc:	e59d2024 	ldr	r2, [sp, #36]	@ 0x24
    c5c0:	e3520000 	cmp	r2, #0
    c5c4:	1a00004d 	bne	c700 <wasm2c_0x24coremark0x2Ewasm_get_func_type+0x214>
    c5c8:	e59d2028 	ldr	r2, [sp, #40]	@ 0x28
    c5cc:	e3520000 	cmp	r2, #0
    c5d0:	1a00004a 	bne	c700 <wasm2c_0x24coremark0x2Ewasm_get_func_type+0x214>
    c5d4:	e59d302c 	ldr	r3, [sp, #44]	@ 0x2c
    c5d8:	e3530000 	cmp	r3, #0
    c5dc:	1a000047 	bne	c700 <wasm2c_0x24coremark0x2Ewasm_get_func_type+0x214>
    c5e0:	e3000000 	movw	r0, #0
    c5e4:	e3400000 	movt	r0, #0
    c5e8:	ea000014 	b	c640 <wasm2c_0x24coremark0x2Ewasm_get_func_type+0x154>
    c5ec:	e59d3018 	ldr	r3, [sp, #24]
    c5f0:	e28d2018 	add	r2, sp, #24
    c5f4:	e58d2004 	str	r2, [sp, #4]
    c5f8:	e3530000 	cmp	r3, #0
    c5fc:	0a000054 	beq	c754 <wasm2c_0x24coremark0x2Ewasm_get_func_type+0x268>
    c600:	e1a0300c 	mov	r3, ip
    c604:	e3a0c000 	mov	ip, #0
    c608:	e1a0400c 	mov	r4, ip
    c60c:	e1140003 	tst	r4, r3
    c610:	1a00001f 	bne	c694 <wasm2c_0x24coremark0x2Ewasm_get_func_type+0x1a8>
    c614:	e3500000 	cmp	r0, #0
    c618:	13a01000 	movne	r1, #0
    c61c:	02011001 	andeq	r1, r1, #1
    c620:	e3510000 	cmp	r1, #0
    c624:	0a000035 	beq	c700 <wasm2c_0x24coremark0x2Ewasm_get_func_type+0x214>
    c628:	e59d3018 	ldr	r3, [sp, #24]
    c62c:	e28d2018 	add	r2, sp, #24
    c630:	e58d2004 	str	r2, [sp, #4]
    c634:	e3530000 	cmp	r3, #0
    c638:	0a00004b 	beq	c76c <wasm2c_0x24coremark0x2Ewasm_get_func_type+0x280>
    c63c:	e3a00000 	mov	r0, #0
    c640:	e28dd00c 	add	sp, sp, #12
    c644:	e8bd4010 	pop	{r4, lr}
    c648:	e28dd00c 	add	sp, sp, #12
    c64c:	e12fff1e 	bx	lr
    c650:	e59d2018 	ldr	r2, [sp, #24]
    c654:	e3520000 	cmp	r2, #0
    c658:	e28d2018 	add	r2, sp, #24
    c65c:	e58d2004 	str	r2, [sp, #4]
    c660:	1affffe9 	bne	c60c <wasm2c_0x24coremark0x2Ewasm_get_func_type+0x120>
    c664:	e59de01c 	ldr	lr, [sp, #28]
    c668:	e35e0000 	cmp	lr, #0
    c66c:	1affffe6 	bne	c60c <wasm2c_0x24coremark0x2Ewasm_get_func_type+0x120>
    c670:	e59de020 	ldr	lr, [sp, #32]
    c674:	e35e0000 	cmp	lr, #0
    c678:	1affffe3 	bne	c60c <wasm2c_0x24coremark0x2Ewasm_get_func_type+0x120>
    c67c:	e59d2024 	ldr	r2, [sp, #36]	@ 0x24
    c680:	e3520000 	cmp	r2, #0
    c684:	1affffe0 	bne	c60c <wasm2c_0x24coremark0x2Ewasm_get_func_type+0x120>
    c688:	e3000000 	movw	r0, #0
    c68c:	e3400000 	movt	r0, #0
    c690:	eaffffea 	b	c640 <wasm2c_0x24coremark0x2Ewasm_get_func_type+0x154>
    c694:	e59d2018 	ldr	r2, [sp, #24]
    c698:	e28d3018 	add	r3, sp, #24
    c69c:	e58d3004 	str	r3, [sp, #4]
    c6a0:	e3520000 	cmp	r2, #0
    c6a4:	1affffda 	bne	c614 <wasm2c_0x24coremark0x2Ewasm_get_func_type+0x128>
    c6a8:	e59d201c 	ldr	r2, [sp, #28]
    c6ac:	e3520000 	cmp	r2, #0
    c6b0:	1affffd7 	bne	c614 <wasm2c_0x24coremark0x2Ewasm_get_func_type+0x128>
    c6b4:	e59d3020 	ldr	r3, [sp, #32]
    c6b8:	e3530000 	cmp	r3, #0
    c6bc:	1affffd4 	bne	c614 <wasm2c_0x24coremark0x2Ewasm_get_func_type+0x128>
    c6c0:	e3000000 	movw	r0, #0
    c6c4:	e3400000 	movt	r0, #0
    c6c8:	eaffffdc 	b	c640 <wasm2c_0x24coremark0x2Ewasm_get_func_type+0x154>
    c6cc:	e59dc018 	ldr	ip, [sp, #24]
    c6d0:	e28d3018 	add	r3, sp, #24
    c6d4:	e58d3004 	str	r3, [sp, #4]
    c6d8:	e35c0000 	cmp	ip, #0
    c6dc:	1a000005 	bne	c6f8 <wasm2c_0x24coremark0x2Ewasm_get_func_type+0x20c>
    c6e0:	e59d201c 	ldr	r2, [sp, #28]
    c6e4:	e3520000 	cmp	r2, #0
    c6e8:	1affffc4 	bne	c600 <wasm2c_0x24coremark0x2Ewasm_get_func_type+0x114>
    c6ec:	e59d3020 	ldr	r3, [sp, #32]
    c6f0:	e3530000 	cmp	r3, #0
    c6f4:	0a00001e 	beq	c774 <wasm2c_0x24coremark0x2Ewasm_get_func_type+0x288>
    c6f8:	e3a0c000 	mov	ip, #0
    c6fc:	eaffffbf 	b	c600 <wasm2c_0x24coremark0x2Ewasm_get_func_type+0x114>
    c700:	e35c0000 	cmp	ip, #0
    c704:	0affffcc 	beq	c63c <wasm2c_0x24coremark0x2Ewasm_get_func_type+0x150>
    c708:	e59d2018 	ldr	r2, [sp, #24]
    c70c:	e28d3018 	add	r3, sp, #24
    c710:	e58d3004 	str	r3, [sp, #4]
    c714:	e3520000 	cmp	r2, #0
    c718:	1affffc7 	bne	c63c <wasm2c_0x24coremark0x2Ewasm_get_func_type+0x150>
    c71c:	e59d301c 	ldr	r3, [sp, #28]
    c720:	e3530003 	cmp	r3, #3
    c724:	03000000 	movweq	r0, #0
    c728:	03400000 	movteq	r0, #0
    c72c:	1affffc2 	bne	c63c <wasm2c_0x24coremark0x2Ewasm_get_func_type+0x150>
    c730:	eaffffc2 	b	c640 <wasm2c_0x24coremark0x2Ewasm_get_func_type+0x154>
    c734:	e28d3018 	add	r3, sp, #24
    c738:	e3000000 	movw	r0, #0
    c73c:	e3400000 	movt	r0, #0
    c740:	e58d3004 	str	r3, [sp, #4]
    c744:	e28dd00c 	add	sp, sp, #12
    c748:	e8bd4010 	pop	{r4, lr}
    c74c:	e28dd00c 	add	sp, sp, #12
    c750:	e12fff1e 	bx	lr
    c754:	e3000000 	movw	r0, #0
    c758:	e3400000 	movt	r0, #0
    c75c:	e28dd00c 	add	sp, sp, #12
    c760:	e8bd4010 	pop	{r4, lr}
    c764:	e28dd00c 	add	sp, sp, #12
    c768:	e12fff1e 	bx	lr
    c76c:	e59f00f8 	ldr	r0, [pc, #248]	@ c86c <wasm2c_0x24coremark0x2Ewasm_get_func_type+0x380>
    c770:	eaffffb2 	b	c640 <wasm2c_0x24coremark0x2Ewasm_get_func_type+0x154>
    c774:	e3000000 	movw	r0, #0
    c778:	e3400000 	movt	r0, #0
    c77c:	eaffffaf 	b	c640 <wasm2c_0x24coremark0x2Ewasm_get_func_type+0x154>
    c780:	e59f00e8 	ldr	r0, [pc, #232]	@ c870 <wasm2c_0x24coremark0x2Ewasm_get_func_type+0x384>
    c784:	eaffffad 	b	c640 <wasm2c_0x24coremark0x2Ewasm_get_func_type+0x154>
    c788:	e3500004 	cmp	r0, #4
    c78c:	13a0e000 	movne	lr, #0
    c790:	0201e001 	andeq	lr, r1, #1
    c794:	e35e0000 	cmp	lr, #0
    c798:	1a00001e 	bne	c818 <wasm2c_0x24coremark0x2Ewasm_get_func_type+0x32c>
    c79c:	e3500006 	cmp	r0, #6
    c7a0:	13a0e000 	movne	lr, #0
    c7a4:	0201e001 	andeq	lr, r1, #1
    c7a8:	e35e0000 	cmp	lr, #0
    c7ac:	0a00002c 	beq	c864 <wasm2c_0x24coremark0x2Ewasm_get_func_type+0x378>
    c7b0:	e59d2018 	ldr	r2, [sp, #24]
    c7b4:	e28d3018 	add	r3, sp, #24
    c7b8:	e58d3004 	str	r3, [sp, #4]
    c7bc:	e3520000 	cmp	r2, #0
    c7c0:	1affff9d 	bne	c63c <wasm2c_0x24coremark0x2Ewasm_get_func_type+0x150>
    c7c4:	e59d201c 	ldr	r2, [sp, #28]
    c7c8:	e3520000 	cmp	r2, #0
    c7cc:	1affff9a 	bne	c63c <wasm2c_0x24coremark0x2Ewasm_get_func_type+0x150>
    c7d0:	e59d2020 	ldr	r2, [sp, #32]
    c7d4:	e3520000 	cmp	r2, #0
    c7d8:	1affff97 	bne	c63c <wasm2c_0x24coremark0x2Ewasm_get_func_type+0x150>
    c7dc:	e59d2024 	ldr	r2, [sp, #36]	@ 0x24
    c7e0:	e3520000 	cmp	r2, #0
    c7e4:	1affff94 	bne	c63c <wasm2c_0x24coremark0x2Ewasm_get_func_type+0x150>
    c7e8:	e59d2028 	ldr	r2, [sp, #40]	@ 0x28
    c7ec:	e3520000 	cmp	r2, #0
    c7f0:	1affff91 	bne	c63c <wasm2c_0x24coremark0x2Ewasm_get_func_type+0x150>
    c7f4:	e59d202c 	ldr	r2, [sp, #44]	@ 0x2c
    c7f8:	e3520000 	cmp	r2, #0
    c7fc:	1affff8e 	bne	c63c <wasm2c_0x24coremark0x2Ewasm_get_func_type+0x150>
    c800:	e59d3030 	ldr	r3, [sp, #48]	@ 0x30
    c804:	e3530000 	cmp	r3, #0
    c808:	1affff8b 	bne	c63c <wasm2c_0x24coremark0x2Ewasm_get_func_type+0x150>
    c80c:	e3000000 	movw	r0, #0
    c810:	e3400000 	movt	r0, #0
    c814:	eaffff89 	b	c640 <wasm2c_0x24coremark0x2Ewasm_get_func_type+0x154>
    c818:	e59d2018 	ldr	r2, [sp, #24]
    c81c:	e28d3018 	add	r3, sp, #24
    c820:	e58d3004 	str	r3, [sp, #4]
    c824:	e3520000 	cmp	r2, #0
    c828:	1affffb4 	bne	c700 <wasm2c_0x24coremark0x2Ewasm_get_func_type+0x214>
    c82c:	e59d201c 	ldr	r2, [sp, #28]
    c830:	e3520000 	cmp	r2, #0
    c834:	1affffb1 	bne	c700 <wasm2c_0x24coremark0x2Ewasm_get_func_type+0x214>
    c838:	e59d2020 	ldr	r2, [sp, #32]
    c83c:	e3520000 	cmp	r2, #0
    c840:	1affffae 	bne	c700 <wasm2c_0x24coremark0x2Ewasm_get_func_type+0x214>
    c844:	e59d2024 	ldr	r2, [sp, #36]	@ 0x24
    c848:	e3520000 	cmp	r2, #0
    c84c:	1affffab 	bne	c700 <wasm2c_0x24coremark0x2Ewasm_get_func_type+0x214>
    c850:	e59d3028 	ldr	r3, [sp, #40]	@ 0x28
    c854:	e3530000 	cmp	r3, #0
    c858:	1affffa8 	bne	c700 <wasm2c_0x24coremark0x2Ewasm_get_func_type+0x214>
    c85c:	e59f0010 	ldr	r0, [pc, #16]	@ c874 <wasm2c_0x24coremark0x2Ewasm_get_func_type+0x388>
    c860:	eaffff76 	b	c640 <wasm2c_0x24coremark0x2Ewasm_get_func_type+0x154>
    c864:	e1a04002 	mov	r4, r2
    c868:	eaffff67 	b	c60c <wasm2c_0x24coremark0x2Ewasm_get_func_type+0x120>
    c86c:	00000608 	.word	0x00000608
    c870:	000005c0 	.word	0x000005c0
    c874:	000005e4 	.word	0x000005e4
